ARM GAS  /var/folders/fz/x0kldt2j7vs_j4slv3pyc44m0000gp/T//ccJVjqXC.s 			page 1


   1              		.cpu cortex-m7
   2              		.arch armv7e-m
   3              		.fpu fpv5-sp-d16
   4              		.eabi_attribute 27, 1
   5              		.eabi_attribute 28, 1
   6              		.eabi_attribute 20, 1
   7              		.eabi_attribute 21, 1
   8              		.eabi_attribute 23, 3
   9              		.eabi_attribute 24, 1
  10              		.eabi_attribute 25, 1
  11              		.eabi_attribute 26, 1
  12              		.eabi_attribute 30, 1
  13              		.eabi_attribute 34, 1
  14              		.eabi_attribute 18, 4
  15              		.file	"Camera_I2C.c"
  16              		.text
  17              	.Ltext0:
  18              		.cfi_sections	.debug_frame
  19              		.file 1 "Cam/Src/Camera_I2C.c"
  20              		.section	.text.I2Cx_MspInit,"ax",%progbits
  21              		.align	1
  22              		.syntax unified
  23              		.thumb
  24              		.thumb_func
  26              	I2Cx_MspInit:
  27              	.LVL0:
  28              	.LFB155:
   1:Cam/Src/Camera_I2C.c **** #include "./camera_I2C.h"
   2:Cam/Src/Camera_I2C.c **** 
   3:Cam/Src/Camera_I2C.c **** static I2C_HandleTypeDef hI2cExtHandler = {0};
   4:Cam/Src/Camera_I2C.c **** static I2C_HandleTypeDef hI2cAudioHandler = {0};
   5:Cam/Src/Camera_I2C.c **** 
   6:Cam/Src/Camera_I2C.c **** static HAL_StatusTypeDef I2Cx_ReadMultiple(I2C_HandleTypeDef *i2c_handler, uint8_t Addr, uint16_t R
   7:Cam/Src/Camera_I2C.c **** static HAL_StatusTypeDef I2Cx_WriteMultiple(I2C_HandleTypeDef *i2c_handler, uint8_t Addr, uint16_t 
   8:Cam/Src/Camera_I2C.c **** //static HAL_StatusTypeDef I2Cx_IsDeviceReady(I2C_HandleTypeDef *i2c_handler, uint16_t DevAddress, 
   9:Cam/Src/Camera_I2C.c **** static void I2Cx_Error(I2C_HandleTypeDef *i2c_handler, uint8_t Addr);
  10:Cam/Src/Camera_I2C.c **** static void     I2Cx_MspInit(I2C_HandleTypeDef *i2c_handler);
  11:Cam/Src/Camera_I2C.c **** static void     I2Cx_Init(I2C_HandleTypeDef *i2c_handler);
  12:Cam/Src/Camera_I2C.c **** 
  13:Cam/Src/Camera_I2C.c **** 
  14:Cam/Src/Camera_I2C.c **** void CAMERA_IO_Init(void) 
  15:Cam/Src/Camera_I2C.c **** {
  16:Cam/Src/Camera_I2C.c ****   I2Cx_Init(&hI2cExtHandler);
  17:Cam/Src/Camera_I2C.c **** }
  18:Cam/Src/Camera_I2C.c **** 
  19:Cam/Src/Camera_I2C.c **** //=======================Read/Write for ov2640 & ov9655 ===========================================
  20:Cam/Src/Camera_I2C.c **** void CAMERA_IO_Write(uint8_t Addr, uint8_t Reg, uint8_t Value)
  21:Cam/Src/Camera_I2C.c **** {
  22:Cam/Src/Camera_I2C.c ****   I2Cx_WriteMultiple(&hI2cExtHandler, Addr, (uint16_t)Reg, I2C_MEMADD_SIZE_8BIT,(uint8_t*)&Value, 1
  23:Cam/Src/Camera_I2C.c **** }
  24:Cam/Src/Camera_I2C.c **** 
  25:Cam/Src/Camera_I2C.c **** 
  26:Cam/Src/Camera_I2C.c **** uint8_t CAMERA_IO_Read(uint8_t Addr, uint8_t Reg)
  27:Cam/Src/Camera_I2C.c **** {
  28:Cam/Src/Camera_I2C.c ****   uint8_t read_value = 0;
  29:Cam/Src/Camera_I2C.c **** 
  30:Cam/Src/Camera_I2C.c ****   I2Cx_ReadMultiple(&hI2cExtHandler, Addr, Reg, I2C_MEMADD_SIZE_8BIT, (uint8_t*)&read_value, 1);
ARM GAS  /var/folders/fz/x0kldt2j7vs_j4slv3pyc44m0000gp/T//ccJVjqXC.s 			page 2


  31:Cam/Src/Camera_I2C.c **** 
  32:Cam/Src/Camera_I2C.c ****   return read_value;
  33:Cam/Src/Camera_I2C.c **** }
  34:Cam/Src/Camera_I2C.c **** 
  35:Cam/Src/Camera_I2C.c **** 
  36:Cam/Src/Camera_I2C.c **** //============================Read/Write for 0v5640================================================
  37:Cam/Src/Camera_I2C.c **** 
  38:Cam/Src/Camera_I2C.c **** void CAMERA_IO_Write_OV5640(uint16_t Addr, uint16_t Reg, uint8_t value)
  39:Cam/Src/Camera_I2C.c **** {
  40:Cam/Src/Camera_I2C.c ****   I2Cx_WriteMultiple(&hI2cExtHandler, Addr, (uint16_t)Reg, I2C_MEMADD_SIZE_16BIT,(uint8_t*)&value, 
  41:Cam/Src/Camera_I2C.c **** }
  42:Cam/Src/Camera_I2C.c **** 
  43:Cam/Src/Camera_I2C.c **** void CAMERA_IO_Write_OV5640_16(uint16_t Addrup, uint16_t Reg, uint16_t value) {
  44:Cam/Src/Camera_I2C.c ****   // NB: This is implicitly masking the 8 least-significant bits
  45:Cam/Src/Camera_I2C.c ****   uint8_t val_be[2];
  46:Cam/Src/Camera_I2C.c ****   val_be[0] = value >> 8;
  47:Cam/Src/Camera_I2C.c ****   val_be[1] = value;
  48:Cam/Src/Camera_I2C.c **** 
  49:Cam/Src/Camera_I2C.c ****   I2Cx_WriteMultiple(&hI2cExtHandler, Addrup, (uint16_t)Reg, I2C_MEMADD_SIZE_16BIT, val_be, 2);
  50:Cam/Src/Camera_I2C.c **** }
  51:Cam/Src/Camera_I2C.c **** 
  52:Cam/Src/Camera_I2C.c **** uint8_t CAMERA_IO_Read_OV5640(uint16_t Addr, uint16_t Reg)
  53:Cam/Src/Camera_I2C.c **** {
  54:Cam/Src/Camera_I2C.c ****   uint8_t read_value = 0;
  55:Cam/Src/Camera_I2C.c ****   I2Cx_ReadMultiple(&hI2cExtHandler, Addr, Reg, I2C_MEMADD_SIZE_16BIT, (uint8_t*)&read_value, 1);
  56:Cam/Src/Camera_I2C.c ****   return read_value;
  57:Cam/Src/Camera_I2C.c **** }
  58:Cam/Src/Camera_I2C.c **** 
  59:Cam/Src/Camera_I2C.c **** uint16_t CAMERA_IO_Read_OV5640_16(uint16_t Addr, uint16_t Reg)
  60:Cam/Src/Camera_I2C.c **** {
  61:Cam/Src/Camera_I2C.c ****   uint8_t val_be[2];
  62:Cam/Src/Camera_I2C.c **** 
  63:Cam/Src/Camera_I2C.c ****   I2Cx_ReadMultiple(&hI2cExtHandler, Addr, Reg, I2C_MEMADD_SIZE_16BIT, val_be, 2);
  64:Cam/Src/Camera_I2C.c **** 
  65:Cam/Src/Camera_I2C.c ****   return (val_be[0] << 8) + val_be[1];
  66:Cam/Src/Camera_I2C.c **** }
  67:Cam/Src/Camera_I2C.c **** 
  68:Cam/Src/Camera_I2C.c **** //=================================================================================================
  69:Cam/Src/Camera_I2C.c **** 
  70:Cam/Src/Camera_I2C.c **** //delay (ms)
  71:Cam/Src/Camera_I2C.c **** void CAMERA_Delay(uint32_t Delay)
  72:Cam/Src/Camera_I2C.c **** {
  73:Cam/Src/Camera_I2C.c ****   HAL_Delay(Delay);
  74:Cam/Src/Camera_I2C.c **** }
  75:Cam/Src/Camera_I2C.c **** 
  76:Cam/Src/Camera_I2C.c **** 
  77:Cam/Src/Camera_I2C.c **** //==============================I2C Init===========================================================
  78:Cam/Src/Camera_I2C.c **** 
  79:Cam/Src/Camera_I2C.c **** static void I2Cx_Init(I2C_HandleTypeDef *i2c_handler)
  80:Cam/Src/Camera_I2C.c **** {
  81:Cam/Src/Camera_I2C.c ****   if(HAL_I2C_GetState(i2c_handler) == HAL_I2C_STATE_RESET)
  82:Cam/Src/Camera_I2C.c ****   {
  83:Cam/Src/Camera_I2C.c ****     if (i2c_handler == (I2C_HandleTypeDef*)(&hI2cAudioHandler))
  84:Cam/Src/Camera_I2C.c ****     {
  85:Cam/Src/Camera_I2C.c ****       /* Audio and LCD I2C configuration */
  86:Cam/Src/Camera_I2C.c ****       i2c_handler->Instance = DISCOVERY_AUDIO_I2Cx;
  87:Cam/Src/Camera_I2C.c ****     }
ARM GAS  /var/folders/fz/x0kldt2j7vs_j4slv3pyc44m0000gp/T//ccJVjqXC.s 			page 3


  88:Cam/Src/Camera_I2C.c ****     else
  89:Cam/Src/Camera_I2C.c ****     {
  90:Cam/Src/Camera_I2C.c ****       /* External, camera and Arduino connector  I2C configuration */
  91:Cam/Src/Camera_I2C.c ****     i2c_handler->Instance = DISCOVERY_EXT_I2Cx;
  92:Cam/Src/Camera_I2C.c ****     }
  93:Cam/Src/Camera_I2C.c ****     i2c_handler->Init.Timing           = DISCOVERY_I2Cx_TIMING;
  94:Cam/Src/Camera_I2C.c ****     i2c_handler->Init.OwnAddress1      = 0;
  95:Cam/Src/Camera_I2C.c ****     i2c_handler->Init.AddressingMode   = I2C_ADDRESSINGMODE_7BIT;
  96:Cam/Src/Camera_I2C.c ****     i2c_handler->Init.DualAddressMode  = I2C_DUALADDRESS_DISABLE;
  97:Cam/Src/Camera_I2C.c ****     i2c_handler->Init.OwnAddress2      = 0;
  98:Cam/Src/Camera_I2C.c ****     i2c_handler->Init.GeneralCallMode  = I2C_GENERALCALL_DISABLE;
  99:Cam/Src/Camera_I2C.c ****     i2c_handler->Init.NoStretchMode    = I2C_NOSTRETCH_DISABLE;
 100:Cam/Src/Camera_I2C.c **** 
 101:Cam/Src/Camera_I2C.c ****     /* Init the I2C */
 102:Cam/Src/Camera_I2C.c ****     I2Cx_MspInit(i2c_handler);
 103:Cam/Src/Camera_I2C.c ****     HAL_I2C_Init(i2c_handler);
 104:Cam/Src/Camera_I2C.c ****   }
 105:Cam/Src/Camera_I2C.c **** }
 106:Cam/Src/Camera_I2C.c **** 
 107:Cam/Src/Camera_I2C.c **** 
 108:Cam/Src/Camera_I2C.c **** static HAL_StatusTypeDef I2Cx_ReadMultiple(I2C_HandleTypeDef *i2c_handler,
 109:Cam/Src/Camera_I2C.c ****                                            uint8_t Addr,
 110:Cam/Src/Camera_I2C.c ****                                            uint16_t Reg,
 111:Cam/Src/Camera_I2C.c ****                                            uint16_t MemAddress,
 112:Cam/Src/Camera_I2C.c ****                                            uint8_t *Buffer,
 113:Cam/Src/Camera_I2C.c ****                                            uint16_t Length)
 114:Cam/Src/Camera_I2C.c **** {
 115:Cam/Src/Camera_I2C.c ****   HAL_StatusTypeDef status = HAL_OK;
 116:Cam/Src/Camera_I2C.c **** 
 117:Cam/Src/Camera_I2C.c ****   status = HAL_I2C_Mem_Read(i2c_handler, Addr, (uint16_t)Reg, MemAddress, Buffer, Length, 1000);
 118:Cam/Src/Camera_I2C.c **** 
 119:Cam/Src/Camera_I2C.c ****   /* Check the communication status */
 120:Cam/Src/Camera_I2C.c ****   if(status != HAL_OK)
 121:Cam/Src/Camera_I2C.c ****   {
 122:Cam/Src/Camera_I2C.c ****     /* I2C error occurred */
 123:Cam/Src/Camera_I2C.c ****     I2Cx_Error(i2c_handler, Addr);
 124:Cam/Src/Camera_I2C.c ****   }
 125:Cam/Src/Camera_I2C.c ****   return status;    
 126:Cam/Src/Camera_I2C.c **** }
 127:Cam/Src/Camera_I2C.c **** 
 128:Cam/Src/Camera_I2C.c **** /**
 129:Cam/Src/Camera_I2C.c ****   * @brief  Writes a value in a register of the device through BUS in using DMA mode.
 130:Cam/Src/Camera_I2C.c ****   * @param  i2c_handler : I2C handler
 131:Cam/Src/Camera_I2C.c ****   * @param  Addr: Device address on BUS Bus.  
 132:Cam/Src/Camera_I2C.c ****   * @param  Reg: The target register address to write
 133:Cam/Src/Camera_I2C.c ****   * @param  MemAddress: Memory address 
 134:Cam/Src/Camera_I2C.c ****   * @param  Buffer: The target register value to be written 
 135:Cam/Src/Camera_I2C.c ****   * @param  Length: buffer size to be written
 136:Cam/Src/Camera_I2C.c ****   * @retval HAL status
 137:Cam/Src/Camera_I2C.c ****   */
 138:Cam/Src/Camera_I2C.c **** static HAL_StatusTypeDef I2Cx_WriteMultiple(I2C_HandleTypeDef *i2c_handler,
 139:Cam/Src/Camera_I2C.c ****                                             uint8_t Addr,
 140:Cam/Src/Camera_I2C.c ****                                             uint16_t Reg,
 141:Cam/Src/Camera_I2C.c ****                                             uint16_t MemAddress,
 142:Cam/Src/Camera_I2C.c ****                                             uint8_t *Buffer,
 143:Cam/Src/Camera_I2C.c ****                                             uint16_t Length)
 144:Cam/Src/Camera_I2C.c **** {
ARM GAS  /var/folders/fz/x0kldt2j7vs_j4slv3pyc44m0000gp/T//ccJVjqXC.s 			page 4


 145:Cam/Src/Camera_I2C.c ****   HAL_StatusTypeDef status = HAL_OK;
 146:Cam/Src/Camera_I2C.c ****   
 147:Cam/Src/Camera_I2C.c ****   status = HAL_I2C_Mem_Write(i2c_handler, Addr, (uint16_t)Reg, MemAddress, Buffer, Length, 1000);
 148:Cam/Src/Camera_I2C.c ****   
 149:Cam/Src/Camera_I2C.c ****   /* Check the communication status */
 150:Cam/Src/Camera_I2C.c ****   if(status != HAL_OK)
 151:Cam/Src/Camera_I2C.c ****   {
 152:Cam/Src/Camera_I2C.c ****     /* Re-Initiaize the I2C Bus */
 153:Cam/Src/Camera_I2C.c ****     I2Cx_Error(i2c_handler, Addr);
 154:Cam/Src/Camera_I2C.c ****   }
 155:Cam/Src/Camera_I2C.c ****   return status;
 156:Cam/Src/Camera_I2C.c **** }
 157:Cam/Src/Camera_I2C.c **** 
 158:Cam/Src/Camera_I2C.c **** 
 159:Cam/Src/Camera_I2C.c **** static void I2Cx_MspInit(I2C_HandleTypeDef *i2c_handler)
 160:Cam/Src/Camera_I2C.c **** {
  29              		.loc 1 160 1 view -0
  30              		.cfi_startproc
  31              		@ args = 0, pretend = 0, frame = 40
  32              		@ frame_needed = 0, uses_anonymous_args = 0
  33              		.loc 1 160 1 is_stmt 0 view .LVU1
  34 0000 70B5     		push	{r4, r5, r6, lr}
  35              		.cfi_def_cfa_offset 16
  36              		.cfi_offset 4, -16
  37              		.cfi_offset 5, -12
  38              		.cfi_offset 6, -8
  39              		.cfi_offset 14, -4
  40 0002 8AB0     		sub	sp, sp, #40
  41              		.cfi_def_cfa_offset 56
 161:Cam/Src/Camera_I2C.c ****   GPIO_InitTypeDef  gpio_init_structure;
  42              		.loc 1 161 3 is_stmt 1 view .LVU2
 162:Cam/Src/Camera_I2C.c ****   
 163:Cam/Src/Camera_I2C.c ****   if (i2c_handler == (I2C_HandleTypeDef*)(&hI2cAudioHandler))
  43              		.loc 1 163 3 view .LVU3
  44              		.loc 1 163 6 is_stmt 0 view .LVU4
  45 0004 444B     		ldr	r3, .L6
  46 0006 8342     		cmp	r3, r0
  47 0008 43D0     		beq	.L5
 164:Cam/Src/Camera_I2C.c ****   {
 165:Cam/Src/Camera_I2C.c ****     /* AUDIO and LCD I2C MSP init */
 166:Cam/Src/Camera_I2C.c **** 
 167:Cam/Src/Camera_I2C.c ****     /*** Configure the GPIOs ***/
 168:Cam/Src/Camera_I2C.c ****     /* Enable GPIO clock */
 169:Cam/Src/Camera_I2C.c ****     DISCOVERY_AUDIO_I2Cx_SCL_SDA_GPIO_CLK_ENABLE();
 170:Cam/Src/Camera_I2C.c **** 
 171:Cam/Src/Camera_I2C.c ****     /* Configure I2C Tx as alternate function */
 172:Cam/Src/Camera_I2C.c ****     gpio_init_structure.Pin = DISCOVERY_AUDIO_I2Cx_SCL_PIN;
 173:Cam/Src/Camera_I2C.c ****     gpio_init_structure.Mode = GPIO_MODE_AF_OD;
 174:Cam/Src/Camera_I2C.c ****     gpio_init_structure.Pull = GPIO_NOPULL;
 175:Cam/Src/Camera_I2C.c ****     gpio_init_structure.Speed = GPIO_SPEED_FAST;
 176:Cam/Src/Camera_I2C.c ****     gpio_init_structure.Alternate = DISCOVERY_AUDIO_I2Cx_SCL_SDA_AF;
 177:Cam/Src/Camera_I2C.c ****     HAL_GPIO_Init(DISCOVERY_AUDIO_I2Cx_SCL_SDA_GPIO_PORT, &gpio_init_structure);
 178:Cam/Src/Camera_I2C.c **** 
 179:Cam/Src/Camera_I2C.c ****     /* Configure I2C Rx as alternate function */
 180:Cam/Src/Camera_I2C.c ****     gpio_init_structure.Pin = DISCOVERY_AUDIO_I2Cx_SDA_PIN;
 181:Cam/Src/Camera_I2C.c ****     HAL_GPIO_Init(DISCOVERY_AUDIO_I2Cx_SCL_SDA_GPIO_PORT, &gpio_init_structure);
 182:Cam/Src/Camera_I2C.c **** 
ARM GAS  /var/folders/fz/x0kldt2j7vs_j4slv3pyc44m0000gp/T//ccJVjqXC.s 			page 5


 183:Cam/Src/Camera_I2C.c ****     /*** Configure the I2C peripheral ***/
 184:Cam/Src/Camera_I2C.c ****     /* Enable I2C clock */
 185:Cam/Src/Camera_I2C.c ****     DISCOVERY_AUDIO_I2Cx_CLK_ENABLE();
 186:Cam/Src/Camera_I2C.c **** 
 187:Cam/Src/Camera_I2C.c ****     /* Force the I2C peripheral clock reset */
 188:Cam/Src/Camera_I2C.c ****     DISCOVERY_AUDIO_I2Cx_FORCE_RESET();
 189:Cam/Src/Camera_I2C.c **** 
 190:Cam/Src/Camera_I2C.c ****     /* Release the I2C peripheral clock reset */
 191:Cam/Src/Camera_I2C.c ****     DISCOVERY_AUDIO_I2Cx_RELEASE_RESET();
 192:Cam/Src/Camera_I2C.c **** 
 193:Cam/Src/Camera_I2C.c ****     /* Enable and set I2Cx Interrupt to a lower priority */
 194:Cam/Src/Camera_I2C.c ****     HAL_NVIC_SetPriority(DISCOVERY_AUDIO_I2Cx_EV_IRQn, 0x0F, 0);
 195:Cam/Src/Camera_I2C.c ****     HAL_NVIC_EnableIRQ(DISCOVERY_AUDIO_I2Cx_EV_IRQn);
 196:Cam/Src/Camera_I2C.c **** 
 197:Cam/Src/Camera_I2C.c ****     /* Enable and set I2Cx Interrupt to a lower priority */
 198:Cam/Src/Camera_I2C.c ****     HAL_NVIC_SetPriority(DISCOVERY_AUDIO_I2Cx_ER_IRQn, 0x0F, 0);
 199:Cam/Src/Camera_I2C.c ****     HAL_NVIC_EnableIRQ(DISCOVERY_AUDIO_I2Cx_ER_IRQn);
 200:Cam/Src/Camera_I2C.c ****   }
 201:Cam/Src/Camera_I2C.c ****   else
 202:Cam/Src/Camera_I2C.c ****   {
 203:Cam/Src/Camera_I2C.c ****     /* External, camera and Arduino connector I2C MSP init */
 204:Cam/Src/Camera_I2C.c **** 
 205:Cam/Src/Camera_I2C.c ****     /*** Configure the GPIOs ***/
 206:Cam/Src/Camera_I2C.c ****     /* Enable GPIO clock */
 207:Cam/Src/Camera_I2C.c ****     DISCOVERY_EXT_I2Cx_SCL_SDA_GPIO_CLK_ENABLE();
  48              		.loc 1 207 5 is_stmt 1 view .LVU5
  49              	.LBB2:
  50              		.loc 1 207 5 view .LVU6
  51              		.loc 1 207 5 view .LVU7
  52 000a 444C     		ldr	r4, .L6+4
  53 000c 236B     		ldr	r3, [r4, #48]
  54 000e 43F00203 		orr	r3, r3, #2
  55 0012 2363     		str	r3, [r4, #48]
  56              		.loc 1 207 5 view .LVU8
  57 0014 236B     		ldr	r3, [r4, #48]
  58 0016 03F00203 		and	r3, r3, #2
  59 001a 0393     		str	r3, [sp, #12]
  60              		.loc 1 207 5 view .LVU9
  61 001c 039B     		ldr	r3, [sp, #12]
  62              	.LBE2:
  63              		.loc 1 207 5 view .LVU10
 208:Cam/Src/Camera_I2C.c **** 
 209:Cam/Src/Camera_I2C.c ****     /* Configure I2C Tx as alternate function */
 210:Cam/Src/Camera_I2C.c ****     gpio_init_structure.Pin = DISCOVERY_EXT_I2Cx_SCL_PIN;
  64              		.loc 1 210 5 view .LVU11
  65              		.loc 1 210 29 is_stmt 0 view .LVU12
  66 001e 4FF48073 		mov	r3, #256
  67 0022 0593     		str	r3, [sp, #20]
 211:Cam/Src/Camera_I2C.c ****     gpio_init_structure.Mode = GPIO_MODE_AF_OD;
  68              		.loc 1 211 5 is_stmt 1 view .LVU13
  69              		.loc 1 211 30 is_stmt 0 view .LVU14
  70 0024 1223     		movs	r3, #18
  71 0026 0693     		str	r3, [sp, #24]
 212:Cam/Src/Camera_I2C.c ****     gpio_init_structure.Pull = GPIO_NOPULL;
  72              		.loc 1 212 5 is_stmt 1 view .LVU15
  73              		.loc 1 212 30 is_stmt 0 view .LVU16
  74 0028 0025     		movs	r5, #0
ARM GAS  /var/folders/fz/x0kldt2j7vs_j4slv3pyc44m0000gp/T//ccJVjqXC.s 			page 6


  75 002a 0795     		str	r5, [sp, #28]
 213:Cam/Src/Camera_I2C.c ****     gpio_init_structure.Speed = GPIO_SPEED_FAST;
  76              		.loc 1 213 5 is_stmt 1 view .LVU17
  77              		.loc 1 213 31 is_stmt 0 view .LVU18
  78 002c 0223     		movs	r3, #2
  79 002e 0893     		str	r3, [sp, #32]
 214:Cam/Src/Camera_I2C.c ****     gpio_init_structure.Alternate = DISCOVERY_EXT_I2Cx_SCL_SDA_AF;
  80              		.loc 1 214 5 is_stmt 1 view .LVU19
  81              		.loc 1 214 35 is_stmt 0 view .LVU20
  82 0030 0423     		movs	r3, #4
  83 0032 0993     		str	r3, [sp, #36]
 215:Cam/Src/Camera_I2C.c ****     HAL_GPIO_Init(DISCOVERY_EXT_I2Cx_SCL_SDA_GPIO_PORT, &gpio_init_structure);
  84              		.loc 1 215 5 is_stmt 1 view .LVU21
  85 0034 3A4E     		ldr	r6, .L6+8
  86 0036 05A9     		add	r1, sp, #20
  87 0038 3046     		mov	r0, r6
  88              	.LVL1:
  89              		.loc 1 215 5 is_stmt 0 view .LVU22
  90 003a FFF7FEFF 		bl	HAL_GPIO_Init
  91              	.LVL2:
 216:Cam/Src/Camera_I2C.c **** 
 217:Cam/Src/Camera_I2C.c ****     /* Configure I2C Rx as alternate function */
 218:Cam/Src/Camera_I2C.c ****     gpio_init_structure.Pin = DISCOVERY_EXT_I2Cx_SDA_PIN;
  92              		.loc 1 218 5 is_stmt 1 view .LVU23
  93              		.loc 1 218 29 is_stmt 0 view .LVU24
  94 003e 4FF40073 		mov	r3, #512
  95 0042 0593     		str	r3, [sp, #20]
 219:Cam/Src/Camera_I2C.c ****     HAL_GPIO_Init(DISCOVERY_EXT_I2Cx_SCL_SDA_GPIO_PORT, &gpio_init_structure);
  96              		.loc 1 219 5 is_stmt 1 view .LVU25
  97 0044 05A9     		add	r1, sp, #20
  98 0046 3046     		mov	r0, r6
  99 0048 FFF7FEFF 		bl	HAL_GPIO_Init
 100              	.LVL3:
 220:Cam/Src/Camera_I2C.c **** 
 221:Cam/Src/Camera_I2C.c ****     /*** Configure the I2C peripheral ***/
 222:Cam/Src/Camera_I2C.c ****     /* Enable I2C clock */
 223:Cam/Src/Camera_I2C.c ****     DISCOVERY_EXT_I2Cx_CLK_ENABLE();
 101              		.loc 1 223 5 view .LVU26
 102              	.LBB3:
 103              		.loc 1 223 5 view .LVU27
 104              		.loc 1 223 5 view .LVU28
 105 004c 236C     		ldr	r3, [r4, #64]
 106 004e 43F40013 		orr	r3, r3, #2097152
 107 0052 2364     		str	r3, [r4, #64]
 108              		.loc 1 223 5 view .LVU29
 109 0054 236C     		ldr	r3, [r4, #64]
 110 0056 03F40013 		and	r3, r3, #2097152
 111 005a 0493     		str	r3, [sp, #16]
 112              		.loc 1 223 5 view .LVU30
 113 005c 049B     		ldr	r3, [sp, #16]
 114              	.LBE3:
 115              		.loc 1 223 5 view .LVU31
 224:Cam/Src/Camera_I2C.c **** 
 225:Cam/Src/Camera_I2C.c ****     /* Force the I2C peripheral clock reset */
 226:Cam/Src/Camera_I2C.c ****     DISCOVERY_EXT_I2Cx_FORCE_RESET();
 116              		.loc 1 226 5 view .LVU32
 117 005e 236A     		ldr	r3, [r4, #32]
ARM GAS  /var/folders/fz/x0kldt2j7vs_j4slv3pyc44m0000gp/T//ccJVjqXC.s 			page 7


 118 0060 43F40013 		orr	r3, r3, #2097152
 119 0064 2362     		str	r3, [r4, #32]
 227:Cam/Src/Camera_I2C.c **** 
 228:Cam/Src/Camera_I2C.c ****     /* Release the I2C peripheral clock reset */
 229:Cam/Src/Camera_I2C.c ****     DISCOVERY_EXT_I2Cx_RELEASE_RESET();
 120              		.loc 1 229 5 view .LVU33
 121 0066 236A     		ldr	r3, [r4, #32]
 122 0068 23F40013 		bic	r3, r3, #2097152
 123 006c 2362     		str	r3, [r4, #32]
 230:Cam/Src/Camera_I2C.c **** 
 231:Cam/Src/Camera_I2C.c ****     /* Enable and set I2Cx Interrupt to a lower priority */
 232:Cam/Src/Camera_I2C.c ****     HAL_NVIC_SetPriority(DISCOVERY_EXT_I2Cx_EV_IRQn, 0x0F, 0);
 124              		.loc 1 232 5 view .LVU34
 125 006e 2A46     		mov	r2, r5
 126 0070 0F21     		movs	r1, #15
 127 0072 1F20     		movs	r0, #31
 128 0074 FFF7FEFF 		bl	HAL_NVIC_SetPriority
 129              	.LVL4:
 233:Cam/Src/Camera_I2C.c ****     HAL_NVIC_EnableIRQ(DISCOVERY_EXT_I2Cx_EV_IRQn);
 130              		.loc 1 233 5 view .LVU35
 131 0078 1F20     		movs	r0, #31
 132 007a FFF7FEFF 		bl	HAL_NVIC_EnableIRQ
 133              	.LVL5:
 234:Cam/Src/Camera_I2C.c **** 
 235:Cam/Src/Camera_I2C.c ****     /* Enable and set I2Cx Interrupt to a lower priority */
 236:Cam/Src/Camera_I2C.c ****     HAL_NVIC_SetPriority(DISCOVERY_EXT_I2Cx_ER_IRQn, 0x0F, 0);
 134              		.loc 1 236 5 view .LVU36
 135 007e 2A46     		mov	r2, r5
 136 0080 0F21     		movs	r1, #15
 137 0082 2020     		movs	r0, #32
 138 0084 FFF7FEFF 		bl	HAL_NVIC_SetPriority
 139              	.LVL6:
 237:Cam/Src/Camera_I2C.c ****     HAL_NVIC_EnableIRQ(DISCOVERY_EXT_I2Cx_ER_IRQn);
 140              		.loc 1 237 5 view .LVU37
 141 0088 2020     		movs	r0, #32
 142 008a FFF7FEFF 		bl	HAL_NVIC_EnableIRQ
 143              	.LVL7:
 144              	.L1:
 238:Cam/Src/Camera_I2C.c ****   }
 239:Cam/Src/Camera_I2C.c **** }
 145              		.loc 1 239 1 is_stmt 0 view .LVU38
 146 008e 0AB0     		add	sp, sp, #40
 147              		.cfi_remember_state
 148              		.cfi_def_cfa_offset 16
 149              		@ sp needed
 150 0090 70BD     		pop	{r4, r5, r6, pc}
 151              	.LVL8:
 152              	.L5:
 153              		.cfi_restore_state
 169:Cam/Src/Camera_I2C.c **** 
 154              		.loc 1 169 5 is_stmt 1 view .LVU39
 155              	.LBB4:
 169:Cam/Src/Camera_I2C.c **** 
 156              		.loc 1 169 5 view .LVU40
 169:Cam/Src/Camera_I2C.c **** 
 157              		.loc 1 169 5 view .LVU41
 158 0092 224C     		ldr	r4, .L6+4
ARM GAS  /var/folders/fz/x0kldt2j7vs_j4slv3pyc44m0000gp/T//ccJVjqXC.s 			page 8


 159 0094 236B     		ldr	r3, [r4, #48]
 160 0096 43F08003 		orr	r3, r3, #128
 161 009a 2363     		str	r3, [r4, #48]
 169:Cam/Src/Camera_I2C.c **** 
 162              		.loc 1 169 5 view .LVU42
 163 009c 236B     		ldr	r3, [r4, #48]
 164 009e 03F08003 		and	r3, r3, #128
 165 00a2 0193     		str	r3, [sp, #4]
 169:Cam/Src/Camera_I2C.c **** 
 166              		.loc 1 169 5 view .LVU43
 167 00a4 019B     		ldr	r3, [sp, #4]
 168              	.LBE4:
 169:Cam/Src/Camera_I2C.c **** 
 169              		.loc 1 169 5 view .LVU44
 172:Cam/Src/Camera_I2C.c ****     gpio_init_structure.Mode = GPIO_MODE_AF_OD;
 170              		.loc 1 172 5 view .LVU45
 172:Cam/Src/Camera_I2C.c ****     gpio_init_structure.Mode = GPIO_MODE_AF_OD;
 171              		.loc 1 172 29 is_stmt 0 view .LVU46
 172 00a6 8023     		movs	r3, #128
 173 00a8 0593     		str	r3, [sp, #20]
 173:Cam/Src/Camera_I2C.c ****     gpio_init_structure.Pull = GPIO_NOPULL;
 174              		.loc 1 173 5 is_stmt 1 view .LVU47
 173:Cam/Src/Camera_I2C.c ****     gpio_init_structure.Pull = GPIO_NOPULL;
 175              		.loc 1 173 30 is_stmt 0 view .LVU48
 176 00aa 1223     		movs	r3, #18
 177 00ac 0693     		str	r3, [sp, #24]
 174:Cam/Src/Camera_I2C.c ****     gpio_init_structure.Speed = GPIO_SPEED_FAST;
 178              		.loc 1 174 5 is_stmt 1 view .LVU49
 174:Cam/Src/Camera_I2C.c ****     gpio_init_structure.Speed = GPIO_SPEED_FAST;
 179              		.loc 1 174 30 is_stmt 0 view .LVU50
 180 00ae 0025     		movs	r5, #0
 181 00b0 0795     		str	r5, [sp, #28]
 175:Cam/Src/Camera_I2C.c ****     gpio_init_structure.Alternate = DISCOVERY_AUDIO_I2Cx_SCL_SDA_AF;
 182              		.loc 1 175 5 is_stmt 1 view .LVU51
 175:Cam/Src/Camera_I2C.c ****     gpio_init_structure.Alternate = DISCOVERY_AUDIO_I2Cx_SCL_SDA_AF;
 183              		.loc 1 175 31 is_stmt 0 view .LVU52
 184 00b2 0223     		movs	r3, #2
 185 00b4 0893     		str	r3, [sp, #32]
 176:Cam/Src/Camera_I2C.c ****     HAL_GPIO_Init(DISCOVERY_AUDIO_I2Cx_SCL_SDA_GPIO_PORT, &gpio_init_structure);
 186              		.loc 1 176 5 is_stmt 1 view .LVU53
 176:Cam/Src/Camera_I2C.c ****     HAL_GPIO_Init(DISCOVERY_AUDIO_I2Cx_SCL_SDA_GPIO_PORT, &gpio_init_structure);
 187              		.loc 1 176 35 is_stmt 0 view .LVU54
 188 00b6 0423     		movs	r3, #4
 189 00b8 0993     		str	r3, [sp, #36]
 177:Cam/Src/Camera_I2C.c **** 
 190              		.loc 1 177 5 is_stmt 1 view .LVU55
 191 00ba 1A4E     		ldr	r6, .L6+12
 192 00bc 05A9     		add	r1, sp, #20
 193 00be 3046     		mov	r0, r6
 194              	.LVL9:
 177:Cam/Src/Camera_I2C.c **** 
 195              		.loc 1 177 5 is_stmt 0 view .LVU56
 196 00c0 FFF7FEFF 		bl	HAL_GPIO_Init
 197              	.LVL10:
 180:Cam/Src/Camera_I2C.c ****     HAL_GPIO_Init(DISCOVERY_AUDIO_I2Cx_SCL_SDA_GPIO_PORT, &gpio_init_structure);
 198              		.loc 1 180 5 is_stmt 1 view .LVU57
 180:Cam/Src/Camera_I2C.c ****     HAL_GPIO_Init(DISCOVERY_AUDIO_I2Cx_SCL_SDA_GPIO_PORT, &gpio_init_structure);
ARM GAS  /var/folders/fz/x0kldt2j7vs_j4slv3pyc44m0000gp/T//ccJVjqXC.s 			page 9


 199              		.loc 1 180 29 is_stmt 0 view .LVU58
 200 00c4 4FF48073 		mov	r3, #256
 201 00c8 0593     		str	r3, [sp, #20]
 181:Cam/Src/Camera_I2C.c **** 
 202              		.loc 1 181 5 is_stmt 1 view .LVU59
 203 00ca 05A9     		add	r1, sp, #20
 204 00cc 3046     		mov	r0, r6
 205 00ce FFF7FEFF 		bl	HAL_GPIO_Init
 206              	.LVL11:
 185:Cam/Src/Camera_I2C.c **** 
 207              		.loc 1 185 5 view .LVU60
 208              	.LBB5:
 185:Cam/Src/Camera_I2C.c **** 
 209              		.loc 1 185 5 view .LVU61
 185:Cam/Src/Camera_I2C.c **** 
 210              		.loc 1 185 5 view .LVU62
 211 00d2 236C     		ldr	r3, [r4, #64]
 212 00d4 43F40003 		orr	r3, r3, #8388608
 213 00d8 2364     		str	r3, [r4, #64]
 185:Cam/Src/Camera_I2C.c **** 
 214              		.loc 1 185 5 view .LVU63
 215 00da 236C     		ldr	r3, [r4, #64]
 216 00dc 03F40003 		and	r3, r3, #8388608
 217 00e0 0293     		str	r3, [sp, #8]
 185:Cam/Src/Camera_I2C.c **** 
 218              		.loc 1 185 5 view .LVU64
 219 00e2 029B     		ldr	r3, [sp, #8]
 220              	.LBE5:
 185:Cam/Src/Camera_I2C.c **** 
 221              		.loc 1 185 5 view .LVU65
 188:Cam/Src/Camera_I2C.c **** 
 222              		.loc 1 188 5 view .LVU66
 223 00e4 236A     		ldr	r3, [r4, #32]
 224 00e6 43F40003 		orr	r3, r3, #8388608
 225 00ea 2362     		str	r3, [r4, #32]
 191:Cam/Src/Camera_I2C.c **** 
 226              		.loc 1 191 5 view .LVU67
 227 00ec 236A     		ldr	r3, [r4, #32]
 228 00ee 23F40003 		bic	r3, r3, #8388608
 229 00f2 2362     		str	r3, [r4, #32]
 194:Cam/Src/Camera_I2C.c ****     HAL_NVIC_EnableIRQ(DISCOVERY_AUDIO_I2Cx_EV_IRQn);
 230              		.loc 1 194 5 view .LVU68
 231 00f4 2A46     		mov	r2, r5
 232 00f6 0F21     		movs	r1, #15
 233 00f8 4820     		movs	r0, #72
 234 00fa FFF7FEFF 		bl	HAL_NVIC_SetPriority
 235              	.LVL12:
 195:Cam/Src/Camera_I2C.c **** 
 236              		.loc 1 195 5 view .LVU69
 237 00fe 4820     		movs	r0, #72
 238 0100 FFF7FEFF 		bl	HAL_NVIC_EnableIRQ
 239              	.LVL13:
 198:Cam/Src/Camera_I2C.c ****     HAL_NVIC_EnableIRQ(DISCOVERY_AUDIO_I2Cx_ER_IRQn);
 240              		.loc 1 198 5 view .LVU70
 241 0104 2A46     		mov	r2, r5
 242 0106 0F21     		movs	r1, #15
 243 0108 4920     		movs	r0, #73
ARM GAS  /var/folders/fz/x0kldt2j7vs_j4slv3pyc44m0000gp/T//ccJVjqXC.s 			page 10


 244 010a FFF7FEFF 		bl	HAL_NVIC_SetPriority
 245              	.LVL14:
 199:Cam/Src/Camera_I2C.c ****   }
 246              		.loc 1 199 5 view .LVU71
 247 010e 4920     		movs	r0, #73
 248 0110 FFF7FEFF 		bl	HAL_NVIC_EnableIRQ
 249              	.LVL15:
 250 0114 BBE7     		b	.L1
 251              	.L7:
 252 0116 00BF     		.align	2
 253              	.L6:
 254 0118 00000000 		.word	hI2cAudioHandler
 255 011c 00380240 		.word	1073887232
 256 0120 00040240 		.word	1073873920
 257 0124 001C0240 		.word	1073880064
 258              		.cfi_endproc
 259              	.LFE155:
 261              		.section	.text.I2Cx_Init,"ax",%progbits
 262              		.align	1
 263              		.syntax unified
 264              		.thumb
 265              		.thumb_func
 267              	I2Cx_Init:
 268              	.LVL16:
 269              	.LFB152:
  80:Cam/Src/Camera_I2C.c ****   if(HAL_I2C_GetState(i2c_handler) == HAL_I2C_STATE_RESET)
 270              		.loc 1 80 1 view -0
 271              		.cfi_startproc
 272              		@ args = 0, pretend = 0, frame = 0
 273              		@ frame_needed = 0, uses_anonymous_args = 0
  80:Cam/Src/Camera_I2C.c ****   if(HAL_I2C_GetState(i2c_handler) == HAL_I2C_STATE_RESET)
 274              		.loc 1 80 1 is_stmt 0 view .LVU73
 275 0000 10B5     		push	{r4, lr}
 276              		.cfi_def_cfa_offset 8
 277              		.cfi_offset 4, -8
 278              		.cfi_offset 14, -4
 279 0002 0446     		mov	r4, r0
  81:Cam/Src/Camera_I2C.c ****   {
 280              		.loc 1 81 3 is_stmt 1 view .LVU74
  81:Cam/Src/Camera_I2C.c ****   {
 281              		.loc 1 81 6 is_stmt 0 view .LVU75
 282 0004 FFF7FEFF 		bl	HAL_I2C_GetState
 283              	.LVL17:
  81:Cam/Src/Camera_I2C.c ****   {
 284              		.loc 1 81 5 view .LVU76
 285 0008 A0B9     		cbnz	r0, .L8
  83:Cam/Src/Camera_I2C.c ****     {
 286              		.loc 1 83 5 is_stmt 1 view .LVU77
  83:Cam/Src/Camera_I2C.c ****     {
 287              		.loc 1 83 8 is_stmt 0 view .LVU78
 288 000a 0C4B     		ldr	r3, .L14
 289 000c 9C42     		cmp	r4, r3
 290 000e 12D0     		beq	.L13
  91:Cam/Src/Camera_I2C.c ****     }
 291              		.loc 1 91 5 is_stmt 1 view .LVU79
  91:Cam/Src/Camera_I2C.c ****     }
 292              		.loc 1 91 27 is_stmt 0 view .LVU80
ARM GAS  /var/folders/fz/x0kldt2j7vs_j4slv3pyc44m0000gp/T//ccJVjqXC.s 			page 11


 293 0010 0B4B     		ldr	r3, .L14+4
 294 0012 2360     		str	r3, [r4]
 295              	.L11:
  93:Cam/Src/Camera_I2C.c ****     i2c_handler->Init.OwnAddress1      = 0;
 296              		.loc 1 93 5 is_stmt 1 view .LVU81
  93:Cam/Src/Camera_I2C.c ****     i2c_handler->Init.OwnAddress1      = 0;
 297              		.loc 1 93 40 is_stmt 0 view .LVU82
 298 0014 0B4B     		ldr	r3, .L14+8
 299 0016 6360     		str	r3, [r4, #4]
  94:Cam/Src/Camera_I2C.c ****     i2c_handler->Init.AddressingMode   = I2C_ADDRESSINGMODE_7BIT;
 300              		.loc 1 94 5 is_stmt 1 view .LVU83
  94:Cam/Src/Camera_I2C.c ****     i2c_handler->Init.AddressingMode   = I2C_ADDRESSINGMODE_7BIT;
 301              		.loc 1 94 40 is_stmt 0 view .LVU84
 302 0018 0023     		movs	r3, #0
 303 001a A360     		str	r3, [r4, #8]
  95:Cam/Src/Camera_I2C.c ****     i2c_handler->Init.DualAddressMode  = I2C_DUALADDRESS_DISABLE;
 304              		.loc 1 95 5 is_stmt 1 view .LVU85
  95:Cam/Src/Camera_I2C.c ****     i2c_handler->Init.DualAddressMode  = I2C_DUALADDRESS_DISABLE;
 305              		.loc 1 95 40 is_stmt 0 view .LVU86
 306 001c 0122     		movs	r2, #1
 307 001e E260     		str	r2, [r4, #12]
  96:Cam/Src/Camera_I2C.c ****     i2c_handler->Init.OwnAddress2      = 0;
 308              		.loc 1 96 5 is_stmt 1 view .LVU87
  96:Cam/Src/Camera_I2C.c ****     i2c_handler->Init.OwnAddress2      = 0;
 309              		.loc 1 96 40 is_stmt 0 view .LVU88
 310 0020 2361     		str	r3, [r4, #16]
  97:Cam/Src/Camera_I2C.c ****     i2c_handler->Init.GeneralCallMode  = I2C_GENERALCALL_DISABLE;
 311              		.loc 1 97 5 is_stmt 1 view .LVU89
  97:Cam/Src/Camera_I2C.c ****     i2c_handler->Init.GeneralCallMode  = I2C_GENERALCALL_DISABLE;
 312              		.loc 1 97 40 is_stmt 0 view .LVU90
 313 0022 6361     		str	r3, [r4, #20]
  98:Cam/Src/Camera_I2C.c ****     i2c_handler->Init.NoStretchMode    = I2C_NOSTRETCH_DISABLE;
 314              		.loc 1 98 5 is_stmt 1 view .LVU91
  98:Cam/Src/Camera_I2C.c ****     i2c_handler->Init.NoStretchMode    = I2C_NOSTRETCH_DISABLE;
 315              		.loc 1 98 40 is_stmt 0 view .LVU92
 316 0024 E361     		str	r3, [r4, #28]
  99:Cam/Src/Camera_I2C.c **** 
 317              		.loc 1 99 5 is_stmt 1 view .LVU93
  99:Cam/Src/Camera_I2C.c **** 
 318              		.loc 1 99 40 is_stmt 0 view .LVU94
 319 0026 2362     		str	r3, [r4, #32]
 102:Cam/Src/Camera_I2C.c ****     HAL_I2C_Init(i2c_handler);
 320              		.loc 1 102 5 is_stmt 1 view .LVU95
 321 0028 2046     		mov	r0, r4
 322 002a FFF7FEFF 		bl	I2Cx_MspInit
 323              	.LVL18:
 103:Cam/Src/Camera_I2C.c ****   }
 324              		.loc 1 103 5 view .LVU96
 325 002e 2046     		mov	r0, r4
 326 0030 FFF7FEFF 		bl	HAL_I2C_Init
 327              	.LVL19:
 328              	.L8:
 105:Cam/Src/Camera_I2C.c **** 
 329              		.loc 1 105 1 is_stmt 0 view .LVU97
 330 0034 10BD     		pop	{r4, pc}
 331              	.LVL20:
 332              	.L13:
ARM GAS  /var/folders/fz/x0kldt2j7vs_j4slv3pyc44m0000gp/T//ccJVjqXC.s 			page 12


  86:Cam/Src/Camera_I2C.c ****     }
 333              		.loc 1 86 7 is_stmt 1 view .LVU98
  86:Cam/Src/Camera_I2C.c ****     }
 334              		.loc 1 86 29 is_stmt 0 view .LVU99
 335 0036 044B     		ldr	r3, .L14+12
 336 0038 2360     		str	r3, [r4]
 337 003a EBE7     		b	.L11
 338              	.L15:
 339              		.align	2
 340              	.L14:
 341 003c 00000000 		.word	hI2cAudioHandler
 342 0040 00540040 		.word	1073763328
 343 0044 32279140 		.word	1083254578
 344 0048 005C0040 		.word	1073765376
 345              		.cfi_endproc
 346              	.LFE152:
 348              		.section	.text.I2Cx_Error,"ax",%progbits
 349              		.align	1
 350              		.syntax unified
 351              		.thumb
 352              		.thumb_func
 354              	I2Cx_Error:
 355              	.LVL21:
 356              	.LFB156:
 240:Cam/Src/Camera_I2C.c **** 
 241:Cam/Src/Camera_I2C.c **** static void I2Cx_Error(I2C_HandleTypeDef *i2c_handler, uint8_t Addr)
 242:Cam/Src/Camera_I2C.c **** {
 357              		.loc 1 242 1 is_stmt 1 view -0
 358              		.cfi_startproc
 359              		@ args = 0, pretend = 0, frame = 0
 360              		@ frame_needed = 0, uses_anonymous_args = 0
 361              		.loc 1 242 1 is_stmt 0 view .LVU101
 362 0000 10B5     		push	{r4, lr}
 363              		.cfi_def_cfa_offset 8
 364              		.cfi_offset 4, -8
 365              		.cfi_offset 14, -4
 366 0002 0446     		mov	r4, r0
 243:Cam/Src/Camera_I2C.c ****   /* De-initialize the I2C communication bus */
 244:Cam/Src/Camera_I2C.c ****   HAL_I2C_DeInit(i2c_handler);
 367              		.loc 1 244 3 is_stmt 1 view .LVU102
 368 0004 FFF7FEFF 		bl	HAL_I2C_DeInit
 369              	.LVL22:
 245:Cam/Src/Camera_I2C.c ****   
 246:Cam/Src/Camera_I2C.c ****   /* Re-Initialize the I2C communication bus */
 247:Cam/Src/Camera_I2C.c ****   I2Cx_Init(i2c_handler);
 370              		.loc 1 247 3 view .LVU103
 371 0008 2046     		mov	r0, r4
 372 000a FFF7FEFF 		bl	I2Cx_Init
 373              	.LVL23:
 248:Cam/Src/Camera_I2C.c **** }
 374              		.loc 1 248 1 is_stmt 0 view .LVU104
 375 000e 10BD     		pop	{r4, pc}
 376              		.loc 1 248 1 view .LVU105
 377              		.cfi_endproc
 378              	.LFE156:
 380              		.section	.text.I2Cx_WriteMultiple,"ax",%progbits
 381              		.align	1
ARM GAS  /var/folders/fz/x0kldt2j7vs_j4slv3pyc44m0000gp/T//ccJVjqXC.s 			page 13


 382              		.syntax unified
 383              		.thumb
 384              		.thumb_func
 386              	I2Cx_WriteMultiple:
 387              	.LVL24:
 388              	.LFB154:
 144:Cam/Src/Camera_I2C.c ****   HAL_StatusTypeDef status = HAL_OK;
 389              		.loc 1 144 1 is_stmt 1 view -0
 390              		.cfi_startproc
 391              		@ args = 8, pretend = 0, frame = 0
 392              		@ frame_needed = 0, uses_anonymous_args = 0
 144:Cam/Src/Camera_I2C.c ****   HAL_StatusTypeDef status = HAL_OK;
 393              		.loc 1 144 1 is_stmt 0 view .LVU107
 394 0000 70B5     		push	{r4, r5, r6, lr}
 395              		.cfi_def_cfa_offset 16
 396              		.cfi_offset 4, -16
 397              		.cfi_offset 5, -12
 398              		.cfi_offset 6, -8
 399              		.cfi_offset 14, -4
 400 0002 84B0     		sub	sp, sp, #16
 401              		.cfi_def_cfa_offset 32
 402 0004 0446     		mov	r4, r0
 403 0006 0D46     		mov	r5, r1
 145:Cam/Src/Camera_I2C.c ****   
 404              		.loc 1 145 3 is_stmt 1 view .LVU108
 405              	.LVL25:
 147:Cam/Src/Camera_I2C.c ****   
 406              		.loc 1 147 3 view .LVU109
 147:Cam/Src/Camera_I2C.c ****   
 407              		.loc 1 147 12 is_stmt 0 view .LVU110
 408 0008 4FF47A76 		mov	r6, #1000
 409 000c 0296     		str	r6, [sp, #8]
 410 000e BDF82460 		ldrh	r6, [sp, #36]
 411 0012 0196     		str	r6, [sp, #4]
 412 0014 089E     		ldr	r6, [sp, #32]
 413 0016 0096     		str	r6, [sp]
 414 0018 FFF7FEFF 		bl	HAL_I2C_Mem_Write
 415              	.LVL26:
 150:Cam/Src/Camera_I2C.c ****   {
 416              		.loc 1 150 3 is_stmt 1 view .LVU111
 150:Cam/Src/Camera_I2C.c ****   {
 417              		.loc 1 150 5 is_stmt 0 view .LVU112
 418 001c 0646     		mov	r6, r0
 419 001e 10B9     		cbnz	r0, .L21
 420              	.LVL27:
 421              	.L19:
 155:Cam/Src/Camera_I2C.c **** }
 422              		.loc 1 155 3 is_stmt 1 view .LVU113
 156:Cam/Src/Camera_I2C.c **** 
 423              		.loc 1 156 1 is_stmt 0 view .LVU114
 424 0020 3046     		mov	r0, r6
 425 0022 04B0     		add	sp, sp, #16
 426              		.cfi_remember_state
 427              		.cfi_def_cfa_offset 16
 428              		@ sp needed
 429 0024 70BD     		pop	{r4, r5, r6, pc}
 430              	.LVL28:
ARM GAS  /var/folders/fz/x0kldt2j7vs_j4slv3pyc44m0000gp/T//ccJVjqXC.s 			page 14


 431              	.L21:
 432              		.cfi_restore_state
 153:Cam/Src/Camera_I2C.c ****   }
 433              		.loc 1 153 5 is_stmt 1 view .LVU115
 434 0026 2946     		mov	r1, r5
 435 0028 2046     		mov	r0, r4
 436              	.LVL29:
 153:Cam/Src/Camera_I2C.c ****   }
 437              		.loc 1 153 5 is_stmt 0 view .LVU116
 438 002a FFF7FEFF 		bl	I2Cx_Error
 439              	.LVL30:
 440 002e F7E7     		b	.L19
 441              		.cfi_endproc
 442              	.LFE154:
 444              		.section	.text.I2Cx_ReadMultiple,"ax",%progbits
 445              		.align	1
 446              		.syntax unified
 447              		.thumb
 448              		.thumb_func
 450              	I2Cx_ReadMultiple:
 451              	.LVL31:
 452              	.LFB153:
 114:Cam/Src/Camera_I2C.c ****   HAL_StatusTypeDef status = HAL_OK;
 453              		.loc 1 114 1 is_stmt 1 view -0
 454              		.cfi_startproc
 455              		@ args = 8, pretend = 0, frame = 0
 456              		@ frame_needed = 0, uses_anonymous_args = 0
 114:Cam/Src/Camera_I2C.c ****   HAL_StatusTypeDef status = HAL_OK;
 457              		.loc 1 114 1 is_stmt 0 view .LVU118
 458 0000 70B5     		push	{r4, r5, r6, lr}
 459              		.cfi_def_cfa_offset 16
 460              		.cfi_offset 4, -16
 461              		.cfi_offset 5, -12
 462              		.cfi_offset 6, -8
 463              		.cfi_offset 14, -4
 464 0002 84B0     		sub	sp, sp, #16
 465              		.cfi_def_cfa_offset 32
 466 0004 0446     		mov	r4, r0
 467 0006 0D46     		mov	r5, r1
 115:Cam/Src/Camera_I2C.c **** 
 468              		.loc 1 115 3 is_stmt 1 view .LVU119
 469              	.LVL32:
 117:Cam/Src/Camera_I2C.c **** 
 470              		.loc 1 117 3 view .LVU120
 117:Cam/Src/Camera_I2C.c **** 
 471              		.loc 1 117 12 is_stmt 0 view .LVU121
 472 0008 4FF47A76 		mov	r6, #1000
 473 000c 0296     		str	r6, [sp, #8]
 474 000e BDF82460 		ldrh	r6, [sp, #36]
 475 0012 0196     		str	r6, [sp, #4]
 476 0014 089E     		ldr	r6, [sp, #32]
 477 0016 0096     		str	r6, [sp]
 478 0018 FFF7FEFF 		bl	HAL_I2C_Mem_Read
 479              	.LVL33:
 120:Cam/Src/Camera_I2C.c ****   {
 480              		.loc 1 120 3 is_stmt 1 view .LVU122
 120:Cam/Src/Camera_I2C.c ****   {
ARM GAS  /var/folders/fz/x0kldt2j7vs_j4slv3pyc44m0000gp/T//ccJVjqXC.s 			page 15


 481              		.loc 1 120 5 is_stmt 0 view .LVU123
 482 001c 0646     		mov	r6, r0
 483 001e 10B9     		cbnz	r0, .L25
 484              	.LVL34:
 485              	.L23:
 125:Cam/Src/Camera_I2C.c **** }
 486              		.loc 1 125 3 is_stmt 1 view .LVU124
 126:Cam/Src/Camera_I2C.c **** 
 487              		.loc 1 126 1 is_stmt 0 view .LVU125
 488 0020 3046     		mov	r0, r6
 489 0022 04B0     		add	sp, sp, #16
 490              		.cfi_remember_state
 491              		.cfi_def_cfa_offset 16
 492              		@ sp needed
 493 0024 70BD     		pop	{r4, r5, r6, pc}
 494              	.LVL35:
 495              	.L25:
 496              		.cfi_restore_state
 123:Cam/Src/Camera_I2C.c ****   }
 497              		.loc 1 123 5 is_stmt 1 view .LVU126
 498 0026 2946     		mov	r1, r5
 499 0028 2046     		mov	r0, r4
 500              	.LVL36:
 123:Cam/Src/Camera_I2C.c ****   }
 501              		.loc 1 123 5 is_stmt 0 view .LVU127
 502 002a FFF7FEFF 		bl	I2Cx_Error
 503              	.LVL37:
 504 002e F7E7     		b	.L23
 505              		.cfi_endproc
 506              	.LFE153:
 508              		.section	.text.CAMERA_IO_Init,"ax",%progbits
 509              		.align	1
 510              		.global	CAMERA_IO_Init
 511              		.syntax unified
 512              		.thumb
 513              		.thumb_func
 515              	CAMERA_IO_Init:
 516              	.LFB144:
  15:Cam/Src/Camera_I2C.c ****   I2Cx_Init(&hI2cExtHandler);
 517              		.loc 1 15 1 is_stmt 1 view -0
 518              		.cfi_startproc
 519              		@ args = 0, pretend = 0, frame = 0
 520              		@ frame_needed = 0, uses_anonymous_args = 0
 521 0000 08B5     		push	{r3, lr}
 522              		.cfi_def_cfa_offset 8
 523              		.cfi_offset 3, -8
 524              		.cfi_offset 14, -4
  16:Cam/Src/Camera_I2C.c **** }
 525              		.loc 1 16 3 view .LVU129
 526 0002 0248     		ldr	r0, .L28
 527 0004 FFF7FEFF 		bl	I2Cx_Init
 528              	.LVL38:
  17:Cam/Src/Camera_I2C.c **** 
 529              		.loc 1 17 1 is_stmt 0 view .LVU130
 530 0008 08BD     		pop	{r3, pc}
 531              	.L29:
 532 000a 00BF     		.align	2
ARM GAS  /var/folders/fz/x0kldt2j7vs_j4slv3pyc44m0000gp/T//ccJVjqXC.s 			page 16


 533              	.L28:
 534 000c 00000000 		.word	hI2cExtHandler
 535              		.cfi_endproc
 536              	.LFE144:
 538              		.section	.text.CAMERA_IO_Write,"ax",%progbits
 539              		.align	1
 540              		.global	CAMERA_IO_Write
 541              		.syntax unified
 542              		.thumb
 543              		.thumb_func
 545              	CAMERA_IO_Write:
 546              	.LVL39:
 547              	.LFB145:
  21:Cam/Src/Camera_I2C.c ****   I2Cx_WriteMultiple(&hI2cExtHandler, Addr, (uint16_t)Reg, I2C_MEMADD_SIZE_8BIT,(uint8_t*)&Value, 1
 548              		.loc 1 21 1 is_stmt 1 view -0
 549              		.cfi_startproc
 550              		@ args = 0, pretend = 0, frame = 8
 551              		@ frame_needed = 0, uses_anonymous_args = 0
  21:Cam/Src/Camera_I2C.c ****   I2Cx_WriteMultiple(&hI2cExtHandler, Addr, (uint16_t)Reg, I2C_MEMADD_SIZE_8BIT,(uint8_t*)&Value, 1
 552              		.loc 1 21 1 is_stmt 0 view .LVU132
 553 0000 00B5     		push	{lr}
 554              		.cfi_def_cfa_offset 4
 555              		.cfi_offset 14, -4
 556 0002 85B0     		sub	sp, sp, #20
 557              		.cfi_def_cfa_offset 24
 558 0004 8DF80F20 		strb	r2, [sp, #15]
  22:Cam/Src/Camera_I2C.c **** }
 559              		.loc 1 22 3 is_stmt 1 view .LVU133
 560 0008 0123     		movs	r3, #1
 561 000a 0193     		str	r3, [sp, #4]
 562 000c 0DF10F02 		add	r2, sp, #15
 563              	.LVL40:
  22:Cam/Src/Camera_I2C.c **** }
 564              		.loc 1 22 3 is_stmt 0 view .LVU134
 565 0010 0092     		str	r2, [sp]
 566 0012 0A46     		mov	r2, r1
 567              	.LVL41:
  22:Cam/Src/Camera_I2C.c **** }
 568              		.loc 1 22 3 view .LVU135
 569 0014 0146     		mov	r1, r0
 570              	.LVL42:
  22:Cam/Src/Camera_I2C.c **** }
 571              		.loc 1 22 3 view .LVU136
 572 0016 0348     		ldr	r0, .L32
 573              	.LVL43:
  22:Cam/Src/Camera_I2C.c **** }
 574              		.loc 1 22 3 view .LVU137
 575 0018 FFF7FEFF 		bl	I2Cx_WriteMultiple
 576              	.LVL44:
  23:Cam/Src/Camera_I2C.c **** 
 577              		.loc 1 23 1 view .LVU138
 578 001c 05B0     		add	sp, sp, #20
 579              		.cfi_def_cfa_offset 4
 580              		@ sp needed
 581 001e 5DF804FB 		ldr	pc, [sp], #4
 582              	.L33:
 583 0022 00BF     		.align	2
ARM GAS  /var/folders/fz/x0kldt2j7vs_j4slv3pyc44m0000gp/T//ccJVjqXC.s 			page 17


 584              	.L32:
 585 0024 00000000 		.word	hI2cExtHandler
 586              		.cfi_endproc
 587              	.LFE145:
 589              		.section	.text.CAMERA_IO_Read,"ax",%progbits
 590              		.align	1
 591              		.global	CAMERA_IO_Read
 592              		.syntax unified
 593              		.thumb
 594              		.thumb_func
 596              	CAMERA_IO_Read:
 597              	.LVL45:
 598              	.LFB146:
  27:Cam/Src/Camera_I2C.c ****   uint8_t read_value = 0;
 599              		.loc 1 27 1 is_stmt 1 view -0
 600              		.cfi_startproc
 601              		@ args = 0, pretend = 0, frame = 8
 602              		@ frame_needed = 0, uses_anonymous_args = 0
  27:Cam/Src/Camera_I2C.c ****   uint8_t read_value = 0;
 603              		.loc 1 27 1 is_stmt 0 view .LVU140
 604 0000 00B5     		push	{lr}
 605              		.cfi_def_cfa_offset 4
 606              		.cfi_offset 14, -4
 607 0002 85B0     		sub	sp, sp, #20
 608              		.cfi_def_cfa_offset 24
 609 0004 0A46     		mov	r2, r1
  28:Cam/Src/Camera_I2C.c **** 
 610              		.loc 1 28 3 is_stmt 1 view .LVU141
  28:Cam/Src/Camera_I2C.c **** 
 611              		.loc 1 28 11 is_stmt 0 view .LVU142
 612 0006 0023     		movs	r3, #0
 613 0008 8DF80F30 		strb	r3, [sp, #15]
  30:Cam/Src/Camera_I2C.c **** 
 614              		.loc 1 30 3 is_stmt 1 view .LVU143
 615 000c 0123     		movs	r3, #1
 616 000e 0193     		str	r3, [sp, #4]
 617 0010 0DF10F01 		add	r1, sp, #15
 618              	.LVL46:
  30:Cam/Src/Camera_I2C.c **** 
 619              		.loc 1 30 3 is_stmt 0 view .LVU144
 620 0014 0091     		str	r1, [sp]
 621 0016 0146     		mov	r1, r0
 622 0018 0348     		ldr	r0, .L36
 623              	.LVL47:
  30:Cam/Src/Camera_I2C.c **** 
 624              		.loc 1 30 3 view .LVU145
 625 001a FFF7FEFF 		bl	I2Cx_ReadMultiple
 626              	.LVL48:
  32:Cam/Src/Camera_I2C.c **** }
 627              		.loc 1 32 3 is_stmt 1 view .LVU146
  33:Cam/Src/Camera_I2C.c **** 
 628              		.loc 1 33 1 is_stmt 0 view .LVU147
 629 001e 9DF80F00 		ldrb	r0, [sp, #15]	@ zero_extendqisi2
 630 0022 05B0     		add	sp, sp, #20
 631              		.cfi_def_cfa_offset 4
 632              		@ sp needed
 633 0024 5DF804FB 		ldr	pc, [sp], #4
ARM GAS  /var/folders/fz/x0kldt2j7vs_j4slv3pyc44m0000gp/T//ccJVjqXC.s 			page 18


 634              	.L37:
 635              		.align	2
 636              	.L36:
 637 0028 00000000 		.word	hI2cExtHandler
 638              		.cfi_endproc
 639              	.LFE146:
 641              		.section	.text.CAMERA_IO_Write_OV5640,"ax",%progbits
 642              		.align	1
 643              		.global	CAMERA_IO_Write_OV5640
 644              		.syntax unified
 645              		.thumb
 646              		.thumb_func
 648              	CAMERA_IO_Write_OV5640:
 649              	.LVL49:
 650              	.LFB147:
  39:Cam/Src/Camera_I2C.c ****   I2Cx_WriteMultiple(&hI2cExtHandler, Addr, (uint16_t)Reg, I2C_MEMADD_SIZE_16BIT,(uint8_t*)&value, 
 651              		.loc 1 39 1 is_stmt 1 view -0
 652              		.cfi_startproc
 653              		@ args = 0, pretend = 0, frame = 8
 654              		@ frame_needed = 0, uses_anonymous_args = 0
  39:Cam/Src/Camera_I2C.c ****   I2Cx_WriteMultiple(&hI2cExtHandler, Addr, (uint16_t)Reg, I2C_MEMADD_SIZE_16BIT,(uint8_t*)&value, 
 655              		.loc 1 39 1 is_stmt 0 view .LVU149
 656 0000 00B5     		push	{lr}
 657              		.cfi_def_cfa_offset 4
 658              		.cfi_offset 14, -4
 659 0002 85B0     		sub	sp, sp, #20
 660              		.cfi_def_cfa_offset 24
 661 0004 8DF80F20 		strb	r2, [sp, #15]
  40:Cam/Src/Camera_I2C.c **** }
 662              		.loc 1 40 3 is_stmt 1 view .LVU150
 663 0008 0123     		movs	r3, #1
 664 000a 0193     		str	r3, [sp, #4]
 665 000c 0DF10F03 		add	r3, sp, #15
 666 0010 0093     		str	r3, [sp]
 667 0012 0223     		movs	r3, #2
 668 0014 0A46     		mov	r2, r1
 669              	.LVL50:
  40:Cam/Src/Camera_I2C.c **** }
 670              		.loc 1 40 3 is_stmt 0 view .LVU151
 671 0016 C1B2     		uxtb	r1, r0
 672              	.LVL51:
  40:Cam/Src/Camera_I2C.c **** }
 673              		.loc 1 40 3 view .LVU152
 674 0018 0248     		ldr	r0, .L40
 675              	.LVL52:
  40:Cam/Src/Camera_I2C.c **** }
 676              		.loc 1 40 3 view .LVU153
 677 001a FFF7FEFF 		bl	I2Cx_WriteMultiple
 678              	.LVL53:
  41:Cam/Src/Camera_I2C.c **** 
 679              		.loc 1 41 1 view .LVU154
 680 001e 05B0     		add	sp, sp, #20
 681              		.cfi_def_cfa_offset 4
 682              		@ sp needed
 683 0020 5DF804FB 		ldr	pc, [sp], #4
 684              	.L41:
 685              		.align	2
ARM GAS  /var/folders/fz/x0kldt2j7vs_j4slv3pyc44m0000gp/T//ccJVjqXC.s 			page 19


 686              	.L40:
 687 0024 00000000 		.word	hI2cExtHandler
 688              		.cfi_endproc
 689              	.LFE147:
 691              		.section	.text.CAMERA_IO_Write_OV5640_16,"ax",%progbits
 692              		.align	1
 693              		.global	CAMERA_IO_Write_OV5640_16
 694              		.syntax unified
 695              		.thumb
 696              		.thumb_func
 698              	CAMERA_IO_Write_OV5640_16:
 699              	.LVL54:
 700              	.LFB148:
  43:Cam/Src/Camera_I2C.c ****   // NB: This is implicitly masking the 8 least-significant bits
 701              		.loc 1 43 79 is_stmt 1 view -0
 702              		.cfi_startproc
 703              		@ args = 0, pretend = 0, frame = 8
 704              		@ frame_needed = 0, uses_anonymous_args = 0
  43:Cam/Src/Camera_I2C.c ****   // NB: This is implicitly masking the 8 least-significant bits
 705              		.loc 1 43 79 is_stmt 0 view .LVU156
 706 0000 00B5     		push	{lr}
 707              		.cfi_def_cfa_offset 4
 708              		.cfi_offset 14, -4
 709 0002 85B0     		sub	sp, sp, #20
 710              		.cfi_def_cfa_offset 24
  45:Cam/Src/Camera_I2C.c ****   val_be[0] = value >> 8;
 711              		.loc 1 45 3 is_stmt 1 view .LVU157
  46:Cam/Src/Camera_I2C.c ****   val_be[1] = value;
 712              		.loc 1 46 3 view .LVU158
  46:Cam/Src/Camera_I2C.c ****   val_be[1] = value;
 713              		.loc 1 46 13 is_stmt 0 view .LVU159
 714 0004 130A     		lsrs	r3, r2, #8
 715 0006 8DF80C30 		strb	r3, [sp, #12]
  47:Cam/Src/Camera_I2C.c **** 
 716              		.loc 1 47 3 is_stmt 1 view .LVU160
  47:Cam/Src/Camera_I2C.c **** 
 717              		.loc 1 47 13 is_stmt 0 view .LVU161
 718 000a 8DF80D20 		strb	r2, [sp, #13]
  49:Cam/Src/Camera_I2C.c **** }
 719              		.loc 1 49 3 is_stmt 1 view .LVU162
 720 000e 0223     		movs	r3, #2
 721 0010 0193     		str	r3, [sp, #4]
 722 0012 03AA     		add	r2, sp, #12
 723              	.LVL55:
  49:Cam/Src/Camera_I2C.c **** }
 724              		.loc 1 49 3 is_stmt 0 view .LVU163
 725 0014 0092     		str	r2, [sp]
 726 0016 0A46     		mov	r2, r1
 727 0018 C1B2     		uxtb	r1, r0
 728              	.LVL56:
  49:Cam/Src/Camera_I2C.c **** }
 729              		.loc 1 49 3 view .LVU164
 730 001a 0348     		ldr	r0, .L44
 731              	.LVL57:
  49:Cam/Src/Camera_I2C.c **** }
 732              		.loc 1 49 3 view .LVU165
 733 001c FFF7FEFF 		bl	I2Cx_WriteMultiple
ARM GAS  /var/folders/fz/x0kldt2j7vs_j4slv3pyc44m0000gp/T//ccJVjqXC.s 			page 20


 734              	.LVL58:
  50:Cam/Src/Camera_I2C.c **** 
 735              		.loc 1 50 1 view .LVU166
 736 0020 05B0     		add	sp, sp, #20
 737              		.cfi_def_cfa_offset 4
 738              		@ sp needed
 739 0022 5DF804FB 		ldr	pc, [sp], #4
 740              	.L45:
 741 0026 00BF     		.align	2
 742              	.L44:
 743 0028 00000000 		.word	hI2cExtHandler
 744              		.cfi_endproc
 745              	.LFE148:
 747              		.section	.text.CAMERA_IO_Read_OV5640,"ax",%progbits
 748              		.align	1
 749              		.global	CAMERA_IO_Read_OV5640
 750              		.syntax unified
 751              		.thumb
 752              		.thumb_func
 754              	CAMERA_IO_Read_OV5640:
 755              	.LVL59:
 756              	.LFB149:
  53:Cam/Src/Camera_I2C.c ****   uint8_t read_value = 0;
 757              		.loc 1 53 1 is_stmt 1 view -0
 758              		.cfi_startproc
 759              		@ args = 0, pretend = 0, frame = 8
 760              		@ frame_needed = 0, uses_anonymous_args = 0
  53:Cam/Src/Camera_I2C.c ****   uint8_t read_value = 0;
 761              		.loc 1 53 1 is_stmt 0 view .LVU168
 762 0000 00B5     		push	{lr}
 763              		.cfi_def_cfa_offset 4
 764              		.cfi_offset 14, -4
 765 0002 85B0     		sub	sp, sp, #20
 766              		.cfi_def_cfa_offset 24
 767 0004 0A46     		mov	r2, r1
  54:Cam/Src/Camera_I2C.c ****   I2Cx_ReadMultiple(&hI2cExtHandler, Addr, Reg, I2C_MEMADD_SIZE_16BIT, (uint8_t*)&read_value, 1);
 768              		.loc 1 54 3 is_stmt 1 view .LVU169
  54:Cam/Src/Camera_I2C.c ****   I2Cx_ReadMultiple(&hI2cExtHandler, Addr, Reg, I2C_MEMADD_SIZE_16BIT, (uint8_t*)&read_value, 1);
 769              		.loc 1 54 11 is_stmt 0 view .LVU170
 770 0006 0023     		movs	r3, #0
 771 0008 8DF80F30 		strb	r3, [sp, #15]
  55:Cam/Src/Camera_I2C.c ****   return read_value;
 772              		.loc 1 55 3 is_stmt 1 view .LVU171
 773 000c 0123     		movs	r3, #1
 774 000e 0193     		str	r3, [sp, #4]
 775 0010 0DF10F03 		add	r3, sp, #15
 776 0014 0093     		str	r3, [sp]
 777 0016 0223     		movs	r3, #2
 778 0018 C1B2     		uxtb	r1, r0
 779              	.LVL60:
  55:Cam/Src/Camera_I2C.c ****   return read_value;
 780              		.loc 1 55 3 is_stmt 0 view .LVU172
 781 001a 0448     		ldr	r0, .L48
 782              	.LVL61:
  55:Cam/Src/Camera_I2C.c ****   return read_value;
 783              		.loc 1 55 3 view .LVU173
 784 001c FFF7FEFF 		bl	I2Cx_ReadMultiple
ARM GAS  /var/folders/fz/x0kldt2j7vs_j4slv3pyc44m0000gp/T//ccJVjqXC.s 			page 21


 785              	.LVL62:
  56:Cam/Src/Camera_I2C.c **** }
 786              		.loc 1 56 3 is_stmt 1 view .LVU174
  57:Cam/Src/Camera_I2C.c **** 
 787              		.loc 1 57 1 is_stmt 0 view .LVU175
 788 0020 9DF80F00 		ldrb	r0, [sp, #15]	@ zero_extendqisi2
 789 0024 05B0     		add	sp, sp, #20
 790              		.cfi_def_cfa_offset 4
 791              		@ sp needed
 792 0026 5DF804FB 		ldr	pc, [sp], #4
 793              	.L49:
 794 002a 00BF     		.align	2
 795              	.L48:
 796 002c 00000000 		.word	hI2cExtHandler
 797              		.cfi_endproc
 798              	.LFE149:
 800              		.section	.text.CAMERA_IO_Read_OV5640_16,"ax",%progbits
 801              		.align	1
 802              		.global	CAMERA_IO_Read_OV5640_16
 803              		.syntax unified
 804              		.thumb
 805              		.thumb_func
 807              	CAMERA_IO_Read_OV5640_16:
 808              	.LVL63:
 809              	.LFB150:
  60:Cam/Src/Camera_I2C.c ****   uint8_t val_be[2];
 810              		.loc 1 60 1 is_stmt 1 view -0
 811              		.cfi_startproc
 812              		@ args = 0, pretend = 0, frame = 8
 813              		@ frame_needed = 0, uses_anonymous_args = 0
  60:Cam/Src/Camera_I2C.c ****   uint8_t val_be[2];
 814              		.loc 1 60 1 is_stmt 0 view .LVU177
 815 0000 00B5     		push	{lr}
 816              		.cfi_def_cfa_offset 4
 817              		.cfi_offset 14, -4
 818 0002 85B0     		sub	sp, sp, #20
 819              		.cfi_def_cfa_offset 24
 820 0004 0A46     		mov	r2, r1
  61:Cam/Src/Camera_I2C.c **** 
 821              		.loc 1 61 3 is_stmt 1 view .LVU178
  63:Cam/Src/Camera_I2C.c **** 
 822              		.loc 1 63 3 view .LVU179
 823 0006 0223     		movs	r3, #2
 824 0008 0193     		str	r3, [sp, #4]
 825 000a 03A9     		add	r1, sp, #12
 826              	.LVL64:
  63:Cam/Src/Camera_I2C.c **** 
 827              		.loc 1 63 3 is_stmt 0 view .LVU180
 828 000c 0091     		str	r1, [sp]
 829 000e C1B2     		uxtb	r1, r0
 830 0010 0648     		ldr	r0, .L52
 831              	.LVL65:
  63:Cam/Src/Camera_I2C.c **** 
 832              		.loc 1 63 3 view .LVU181
 833 0012 FFF7FEFF 		bl	I2Cx_ReadMultiple
 834              	.LVL66:
  65:Cam/Src/Camera_I2C.c **** }
ARM GAS  /var/folders/fz/x0kldt2j7vs_j4slv3pyc44m0000gp/T//ccJVjqXC.s 			page 22


 835              		.loc 1 65 3 is_stmt 1 view .LVU182
  65:Cam/Src/Camera_I2C.c **** }
 836              		.loc 1 65 17 is_stmt 0 view .LVU183
 837 0016 9DF80C30 		ldrb	r3, [sp, #12]	@ zero_extendqisi2
  65:Cam/Src/Camera_I2C.c **** }
 838              		.loc 1 65 35 view .LVU184
 839 001a 9DF80D00 		ldrb	r0, [sp, #13]	@ zero_extendqisi2
  65:Cam/Src/Camera_I2C.c **** }
 840              		.loc 1 65 27 view .LVU185
 841 001e 00EB0320 		add	r0, r0, r3, lsl #8
  66:Cam/Src/Camera_I2C.c **** 
 842              		.loc 1 66 1 view .LVU186
 843 0022 80B2     		uxth	r0, r0
 844 0024 05B0     		add	sp, sp, #20
 845              		.cfi_def_cfa_offset 4
 846              		@ sp needed
 847 0026 5DF804FB 		ldr	pc, [sp], #4
 848              	.L53:
 849 002a 00BF     		.align	2
 850              	.L52:
 851 002c 00000000 		.word	hI2cExtHandler
 852              		.cfi_endproc
 853              	.LFE150:
 855              		.section	.text.CAMERA_Delay,"ax",%progbits
 856              		.align	1
 857              		.global	CAMERA_Delay
 858              		.syntax unified
 859              		.thumb
 860              		.thumb_func
 862              	CAMERA_Delay:
 863              	.LVL67:
 864              	.LFB151:
  72:Cam/Src/Camera_I2C.c ****   HAL_Delay(Delay);
 865              		.loc 1 72 1 is_stmt 1 view -0
 866              		.cfi_startproc
 867              		@ args = 0, pretend = 0, frame = 0
 868              		@ frame_needed = 0, uses_anonymous_args = 0
  72:Cam/Src/Camera_I2C.c ****   HAL_Delay(Delay);
 869              		.loc 1 72 1 is_stmt 0 view .LVU188
 870 0000 08B5     		push	{r3, lr}
 871              		.cfi_def_cfa_offset 8
 872              		.cfi_offset 3, -8
 873              		.cfi_offset 14, -4
  73:Cam/Src/Camera_I2C.c **** }
 874              		.loc 1 73 3 is_stmt 1 view .LVU189
 875 0002 FFF7FEFF 		bl	HAL_Delay
 876              	.LVL68:
  74:Cam/Src/Camera_I2C.c **** 
 877              		.loc 1 74 1 is_stmt 0 view .LVU190
 878 0006 08BD     		pop	{r3, pc}
 879              		.cfi_endproc
 880              	.LFE151:
 882              		.section	.bss.hI2cAudioHandler,"aw",%nobits
 883              		.align	2
 886              	hI2cAudioHandler:
 887 0000 00000000 		.space	84
 887      00000000 
ARM GAS  /var/folders/fz/x0kldt2j7vs_j4slv3pyc44m0000gp/T//ccJVjqXC.s 			page 23


 887      00000000 
 887      00000000 
 887      00000000 
 888              		.section	.bss.hI2cExtHandler,"aw",%nobits
 889              		.align	2
 892              	hI2cExtHandler:
 893 0000 00000000 		.space	84
 893      00000000 
 893      00000000 
 893      00000000 
 893      00000000 
 894              		.text
 895              	.Letext0:
 896              		.file 2 "/Users/sol/Library/Application Support/Code/User/globalStorage/bmd.stm32-for-vscode/@xpac
 897              		.file 3 "/Users/sol/Library/Application Support/Code/User/globalStorage/bmd.stm32-for-vscode/@xpac
 898              		.file 4 "Drivers/CMSIS/Device/ST/STM32F7xx/Include/stm32f746xx.h"
 899              		.file 5 "Drivers/STM32F7xx_HAL_Driver/Inc/stm32f7xx_hal_def.h"
 900              		.file 6 "Drivers/STM32F7xx_HAL_Driver/Inc/stm32f7xx_hal_gpio.h"
 901              		.file 7 "Drivers/STM32F7xx_HAL_Driver/Inc/stm32f7xx_hal_dma.h"
 902              		.file 8 "Drivers/STM32F7xx_HAL_Driver/Inc/stm32f7xx_hal_i2c.h"
 903              		.file 9 "Drivers/STM32F7xx_HAL_Driver/Inc/stm32f7xx_hal.h"
 904              		.file 10 "Drivers/STM32F7xx_HAL_Driver/Inc/stm32f7xx_hal_cortex.h"
ARM GAS  /var/folders/fz/x0kldt2j7vs_j4slv3pyc44m0000gp/T//ccJVjqXC.s 			page 24

