ARM GAS  /var/folders/fz/x0kldt2j7vs_j4slv3pyc44m0000gp/T//ccIn6myf.s 			page 1


   1              		.cpu cortex-m7
   2              		.arch armv7e-m
   3              		.fpu fpv5-sp-d16
   4              		.eabi_attribute 27, 1
   5              		.eabi_attribute 28, 1
   6              		.eabi_attribute 20, 1
   7              		.eabi_attribute 21, 1
   8              		.eabi_attribute 23, 3
   9              		.eabi_attribute 24, 1
  10              		.eabi_attribute 25, 1
  11              		.eabi_attribute 26, 1
  12              		.eabi_attribute 30, 1
  13              		.eabi_attribute 34, 1
  14              		.eabi_attribute 18, 4
  15              		.file	"F7Cam_Driver.c"
  16              		.text
  17              	.Ltext0:
  18              		.cfi_sections	.debug_frame
  19              		.file 1 "Cam/Src/F7Cam_Driver.c"
  20              		.section	.text.DCMI_DMAError,"ax",%progbits
  21              		.align	1
  22              		.syntax unified
  23              		.thumb
  24              		.thumb_func
  26              	DCMI_DMAError:
  27              	.LVL0:
  28              	.LFB167:
   1:Cam/Src/F7Cam_Driver.c **** #include "F7Cam_Driver.h"
   2:Cam/Src/F7Cam_Driver.c **** 
   3:Cam/Src/F7Cam_Driver.c **** #include <stdbool.h>
   4:Cam/Src/F7Cam_Driver.c **** #include <stdio.h>
   5:Cam/Src/F7Cam_Driver.c **** #include <stdlib.h>
   6:Cam/Src/F7Cam_Driver.c **** 
   7:Cam/Src/F7Cam_Driver.c **** #include "camera_I2C.h"
   8:Cam/Src/F7Cam_Driver.c **** #include "events.h"
   9:Cam/Src/F7Cam_Driver.c **** #include "stm32f7xx_hal.h"
  10:Cam/Src/F7Cam_Driver.c **** #include "stm32f7xx_hal_dcmi.h"
  11:Cam/Src/F7Cam_Driver.c **** #include "stm32f7xx_hal_gpio.h"
  12:Cam/Src/F7Cam_Driver.c **** 
  13:Cam/Src/F7Cam_Driver.c **** 
  14:Cam/Src/F7Cam_Driver.c **** #define OV5640
  15:Cam/Src/F7Cam_Driver.c **** 
  16:Cam/Src/F7Cam_Driver.c **** char cam_fb[CAM_FB_SIZE];// __attribute__ ((section (".sdram"), aligned (4)));
  17:Cam/Src/F7Cam_Driver.c **** // uint8_t jpeg_search_buffer[CAM_FB_SIZE];
  18:Cam/Src/F7Cam_Driver.c **** uint8_t frameCounter = 0;
  19:Cam/Src/F7Cam_Driver.c **** uint8_t buffer_offset;
  20:Cam/Src/F7Cam_Driver.c **** uint8_t packetCounter = 0;
  21:Cam/Src/F7Cam_Driver.c **** uint8_t startOffset = 2;
  22:Cam/Src/F7Cam_Driver.c **** 
  23:Cam/Src/F7Cam_Driver.c **** //BUFFER TRACKER =============================================
  24:Cam/Src/F7Cam_Driver.c **** 
  25:Cam/Src/F7Cam_Driver.c **** uint8_t total_buffer_fragments;
  26:Cam/Src/F7Cam_Driver.c **** int8_t buffer_position = -1;
  27:Cam/Src/F7Cam_Driver.c **** uint8_t current_frame_start_pos = 0;
  28:Cam/Src/F7Cam_Driver.c **** 
  29:Cam/Src/F7Cam_Driver.c **** //============================== ==========================
  30:Cam/Src/F7Cam_Driver.c **** 
ARM GAS  /var/folders/fz/x0kldt2j7vs_j4slv3pyc44m0000gp/T//ccIn6myf.s 			page 2


  31:Cam/Src/F7Cam_Driver.c **** bool capture_data = false;
  32:Cam/Src/F7Cam_Driver.c **** 
  33:Cam/Src/F7Cam_Driver.c **** void DCMI_DMA_TRANSFER_HALF_COMPLETE(DMA_HandleTypeDef *hdma);
  34:Cam/Src/F7Cam_Driver.c **** void DCMI_DMA_TRANSFER_COMPLETE(DMA_HandleTypeDef *hdma);
  35:Cam/Src/F7Cam_Driver.c **** static void DCMI_DMAError(DMA_HandleTypeDef *hdma);
  36:Cam/Src/F7Cam_Driver.c **** 
  37:Cam/Src/F7Cam_Driver.c **** bool LoadedFlag = false;
  38:Cam/Src/F7Cam_Driver.c **** bool firstVsync = false;
  39:Cam/Src/F7Cam_Driver.c **** uint8_t loadingCounter = 0;
  40:Cam/Src/F7Cam_Driver.c **** 
  41:Cam/Src/F7Cam_Driver.c **** DCMI_HandleTypeDef  hDcmiHandler;
  42:Cam/Src/F7Cam_Driver.c **** 
  43:Cam/Src/F7Cam_Driver.c **** 
  44:Cam/Src/F7Cam_Driver.c **** uint32_t JPEG_counter = 0;
  45:Cam/Src/F7Cam_Driver.c **** uint32_t printFrameCounter = 0;
  46:Cam/Src/F7Cam_Driver.c **** uint32_t current_JPEG_size = 0;
  47:Cam/Src/F7Cam_Driver.c **** uint8_t bufferblockcounter;
  48:Cam/Src/F7Cam_Driver.c **** 
  49:Cam/Src/F7Cam_Driver.c **** uint16_t FIFO_SIZE;
  50:Cam/Src/F7Cam_Driver.c **** uint8_t PACKET_COUNT;
  51:Cam/Src/F7Cam_Driver.c **** uint16_t JPEG_Size = 0;
  52:Cam/Src/F7Cam_Driver.c **** uint16_t JPEG_FIFO_SIZE_BUFFER[20];
  53:Cam/Src/F7Cam_Driver.c **** uint16_t JPEG_HEX_SIZE_BUFFER[20];
  54:Cam/Src/F7Cam_Driver.c **** uint16_t JPEG_PACKET_COUNT_BUFFER[20];
  55:Cam/Src/F7Cam_Driver.c **** 
  56:Cam/Src/F7Cam_Driver.c **** #ifdef OV5640
  57:Cam/Src/F7Cam_Driver.c **** uint8_t CAM_Init(uint8_t format, uint16_t x_res, uint16_t y_res, uint8_t FPS, uint16_t FB_size, uin
  58:Cam/Src/F7Cam_Driver.c **** {
  59:Cam/Src/F7Cam_Driver.c ****   DCMI_HandleTypeDef *phdcmi;
  60:Cam/Src/F7Cam_Driver.c ****   uint8_t status = CAMERA_ERROR;
  61:Cam/Src/F7Cam_Driver.c **** 
  62:Cam/Src/F7Cam_Driver.c ****   /* Get the DCMI handle structure */
  63:Cam/Src/F7Cam_Driver.c ****   phdcmi = &hDcmiHandler;
  64:Cam/Src/F7Cam_Driver.c **** 
  65:Cam/Src/F7Cam_Driver.c ****   /*** Configures the DCMI to interface with the camera module ***/
  66:Cam/Src/F7Cam_Driver.c ****   /* DCMI configuration */
  67:Cam/Src/F7Cam_Driver.c ****   phdcmi->Init.CaptureRate      = DCMI_CR_ALL_FRAME;
  68:Cam/Src/F7Cam_Driver.c ****   phdcmi->Init.HSPolarity       = DCMI_HSPOLARITY_HIGH;
  69:Cam/Src/F7Cam_Driver.c ****   phdcmi->Init.SynchroMode      = DCMI_SYNCHRO_HARDWARE;
  70:Cam/Src/F7Cam_Driver.c ****   phdcmi->Init.VSPolarity       = DCMI_VSPOLARITY_HIGH;
  71:Cam/Src/F7Cam_Driver.c ****   phdcmi->Init.ExtendedDataMode = DCMI_EXTEND_DATA_8B;
  72:Cam/Src/F7Cam_Driver.c ****   phdcmi->Init.PCKPolarity      = DCMI_PCKPOLARITY_RISING;
  73:Cam/Src/F7Cam_Driver.c ****    if (format == FMT_JPEG) {
  74:Cam/Src/F7Cam_Driver.c **** 	   phdcmi->Init.JPEGMode 		  = DCMI_JPEG_ENABLE;
  75:Cam/Src/F7Cam_Driver.c ****    }
  76:Cam/Src/F7Cam_Driver.c ****   phdcmi->Instance              = DCMI;
  77:Cam/Src/F7Cam_Driver.c ****   status = CAMERA_ERROR;
  78:Cam/Src/F7Cam_Driver.c **** 
  79:Cam/Src/F7Cam_Driver.c **** 	BSP_CAMERA_PwrDown();
  80:Cam/Src/F7Cam_Driver.c ****   BSP_CAMERA_PwrUp();
  81:Cam/Src/F7Cam_Driver.c **** 	HAL_Delay(1000);
  82:Cam/Src/F7Cam_Driver.c ****   /* Read ID of Camera module via I2C */
  83:Cam/Src/F7Cam_Driver.c ****   if(ov5640_ReadID(CAMERA_I2C_ADDRESS_OV5640) == OV5640_ID)
  84:Cam/Src/F7Cam_Driver.c ****   {
  85:Cam/Src/F7Cam_Driver.c ****     /* Initialize the camera driver structure */
  86:Cam/Src/F7Cam_Driver.c ****     //camera_drv = &ov5640_drv;
  87:Cam/Src/F7Cam_Driver.c ****     //CameraHwAddress = CAMERA_I2C_ADDRESS_OV5640;
ARM GAS  /var/folders/fz/x0kldt2j7vs_j4slv3pyc44m0000gp/T//ccIn6myf.s 			page 3


  88:Cam/Src/F7Cam_Driver.c ****     FIFO_SIZE = FIFO_width;
  89:Cam/Src/F7Cam_Driver.c ****     PACKET_COUNT = packet_count;
  90:Cam/Src/F7Cam_Driver.c ****     total_buffer_fragments = CAM_FB_SIZE / FIFO_width;
  91:Cam/Src/F7Cam_Driver.c ****   
  92:Cam/Src/F7Cam_Driver.c **** 	    switch (format)
  93:Cam/Src/F7Cam_Driver.c **** 	        {
  94:Cam/Src/F7Cam_Driver.c **** 	    		case FMT_JPEG:
  95:Cam/Src/F7Cam_Driver.c **** 	    		{
  96:Cam/Src/F7Cam_Driver.c ****             	
  97:Cam/Src/F7Cam_Driver.c **** 
  98:Cam/Src/F7Cam_Driver.c **** 	    			ov5640_Init_JPEG(x_res, y_res, FIFO_width, packet_count, jpeg_comp_ratio);
  99:Cam/Src/F7Cam_Driver.c ****             // if (FPS != 9) {
 100:Cam/Src/F7Cam_Driver.c ****             //   OV5640_SetPCLK(FPS);
 101:Cam/Src/F7Cam_Driver.c ****             // }
 102:Cam/Src/F7Cam_Driver.c **** 	    			//OV5640_Set_Comp_Ratio(jpeg_comp_ratio);
 103:Cam/Src/F7Cam_Driver.c **** 	    			//OV5640_Config_FIFO(FIFO_SIZE, PACKET_COUNT);
 104:Cam/Src/F7Cam_Driver.c **** 	    			break;
 105:Cam/Src/F7Cam_Driver.c **** 	    		}
 106:Cam/Src/F7Cam_Driver.c **** 	    		case FMT_RGB565:
 107:Cam/Src/F7Cam_Driver.c **** 	    		{
 108:Cam/Src/F7Cam_Driver.c **** 	    			//OV5640_Set_NightMode();
 109:Cam/Src/F7Cam_Driver.c **** 	    			ov5640_Init_RGB565(x_res, y_res);
 110:Cam/Src/F7Cam_Driver.c **** 	    			break;
 111:Cam/Src/F7Cam_Driver.c **** 	    		}
 112:Cam/Src/F7Cam_Driver.c **** 	    		default:
 113:Cam/Src/F7Cam_Driver.c **** 	    		{
 114:Cam/Src/F7Cam_Driver.c **** 	    			break;
 115:Cam/Src/F7Cam_Driver.c **** 	    		}
 116:Cam/Src/F7Cam_Driver.c **** 	        }
 117:Cam/Src/F7Cam_Driver.c **** 
 118:Cam/Src/F7Cam_Driver.c ****     /* DCMI Initialization */
 119:Cam/Src/F7Cam_Driver.c ****     BSP_CAMERA_MspInit(&hDcmiHandler, NULL);
 120:Cam/Src/F7Cam_Driver.c **** 
 121:Cam/Src/F7Cam_Driver.c ****     //HAL_DCMI_Start_DMA2(&hDcmiHandler, DCMI_MODE_CONTINUOUS, (uint32_t)cam_fb, (CAM_FB_SIZE / 4))
 122:Cam/Src/F7Cam_Driver.c **** 
 123:Cam/Src/F7Cam_Driver.c ****     HAL_DCMI_Init(phdcmi); // ENABLED VSYNC INTERRUPTS
 124:Cam/Src/F7Cam_Driver.c ****     HAL_DCMI_DisableCROP(phdcmi);
 125:Cam/Src/F7Cam_Driver.c ****   
 126:Cam/Src/F7Cam_Driver.c ****     status = CAMERA_OK;
 127:Cam/Src/F7Cam_Driver.c ****   }
 128:Cam/Src/F7Cam_Driver.c ****   else
 129:Cam/Src/F7Cam_Driver.c ****   {
 130:Cam/Src/F7Cam_Driver.c ****     /* Return CAMERA_NOT_SUPPORTED status */
 131:Cam/Src/F7Cam_Driver.c ****     status = CAMERA_NOT_SUPPORTED;
 132:Cam/Src/F7Cam_Driver.c ****     printf("\nread ID incorrect\n");
 133:Cam/Src/F7Cam_Driver.c ****   }
 134:Cam/Src/F7Cam_Driver.c **** 
 135:Cam/Src/F7Cam_Driver.c ****   return status;
 136:Cam/Src/F7Cam_Driver.c **** }
 137:Cam/Src/F7Cam_Driver.c **** #endif
 138:Cam/Src/F7Cam_Driver.c **** 
 139:Cam/Src/F7Cam_Driver.c **** 
 140:Cam/Src/F7Cam_Driver.c **** uint8_t BSP_CAMERA_DeInit(void)
 141:Cam/Src/F7Cam_Driver.c **** { 
 142:Cam/Src/F7Cam_Driver.c ****   hDcmiHandler.Instance              = DCMI;
 143:Cam/Src/F7Cam_Driver.c **** 
 144:Cam/Src/F7Cam_Driver.c ****   HAL_DCMI_DeInit(&hDcmiHandler);
ARM GAS  /var/folders/fz/x0kldt2j7vs_j4slv3pyc44m0000gp/T//ccIn6myf.s 			page 4


 145:Cam/Src/F7Cam_Driver.c ****   BSP_CAMERA_MspDeInit(&hDcmiHandler, NULL);
 146:Cam/Src/F7Cam_Driver.c ****   return CAMERA_OK;
 147:Cam/Src/F7Cam_Driver.c **** }
 148:Cam/Src/F7Cam_Driver.c **** 
 149:Cam/Src/F7Cam_Driver.c **** void BSP_CAMERA_ContinuousStart()
 150:Cam/Src/F7Cam_Driver.c **** {
 151:Cam/Src/F7Cam_Driver.c ****   // Wait for first x vsync VSYNC
 152:Cam/Src/F7Cam_Driver.c ****   int8_t vsyncCounter = 0;
 153:Cam/Src/F7Cam_Driver.c ****   bool currentValue = 0;
 154:Cam/Src/F7Cam_Driver.c ****   bool lastValue = 0;
 155:Cam/Src/F7Cam_Driver.c ****   bool read = false;
 156:Cam/Src/F7Cam_Driver.c ****   while (!(HAL_GPIO_ReadPin(GPIOG, GPIO_PIN_9))) {
 157:Cam/Src/F7Cam_Driver.c ****   }
 158:Cam/Src/F7Cam_Driver.c ****   // while (vsyncCounter < 20) {
 159:Cam/Src/F7Cam_Driver.c ****   //   currentValue = HAL_GPIO_ReadPin(GPIOG, GPIO_PIN_9);
 160:Cam/Src/F7Cam_Driver.c ****   //   read = false;
 161:Cam/Src/F7Cam_Driver.c ****   //   if ((currentValue != lastValue) && read == false) {
 162:Cam/Src/F7Cam_Driver.c ****   //       vsyncCounter++;
 163:Cam/Src/F7Cam_Driver.c ****   //       printf("VSYNC\n");
 164:Cam/Src/F7Cam_Driver.c ****   //       read = true;
 165:Cam/Src/F7Cam_Driver.c **** 
 166:Cam/Src/F7Cam_Driver.c ****   //   }
 167:Cam/Src/F7Cam_Driver.c ****   //   lastValue = currentValue;
 168:Cam/Src/F7Cam_Driver.c ****   // }
 169:Cam/Src/F7Cam_Driver.c **** 
 170:Cam/Src/F7Cam_Driver.c **** 
 171:Cam/Src/F7Cam_Driver.c ****   //printf("\nCAM Start\n");
 172:Cam/Src/F7Cam_Driver.c ****   capture_data = true;
 173:Cam/Src/F7Cam_Driver.c **** 
 174:Cam/Src/F7Cam_Driver.c ****   /* Start the camera capture */
 175:Cam/Src/F7Cam_Driver.c ****  HAL_DCMI_Start_DMA2(&hDcmiHandler, DCMI_MODE_CONTINUOUS, (uintptr_t) cam_fb, CAM_FB_SIZE);
 176:Cam/Src/F7Cam_Driver.c **** }
 177:Cam/Src/F7Cam_Driver.c **** 
 178:Cam/Src/F7Cam_Driver.c **** 
 179:Cam/Src/F7Cam_Driver.c **** void BSP_CAMERA_Suspend(void) 
 180:Cam/Src/F7Cam_Driver.c **** {
 181:Cam/Src/F7Cam_Driver.c ****   /* Suspend the Camera Capture */
 182:Cam/Src/F7Cam_Driver.c ****   HAL_DCMI_Suspend(&hDcmiHandler);  
 183:Cam/Src/F7Cam_Driver.c **** }
 184:Cam/Src/F7Cam_Driver.c **** 
 185:Cam/Src/F7Cam_Driver.c **** 
 186:Cam/Src/F7Cam_Driver.c **** void BSP_CAMERA_Resume(void) 
 187:Cam/Src/F7Cam_Driver.c **** {
 188:Cam/Src/F7Cam_Driver.c ****   /* Start the Camera Capture */
 189:Cam/Src/F7Cam_Driver.c ****   HAL_DCMI_Resume(&hDcmiHandler);
 190:Cam/Src/F7Cam_Driver.c **** }
 191:Cam/Src/F7Cam_Driver.c **** 
 192:Cam/Src/F7Cam_Driver.c **** 
 193:Cam/Src/F7Cam_Driver.c **** uint8_t BSP_CAMERA_Stop(void) 
 194:Cam/Src/F7Cam_Driver.c **** {
 195:Cam/Src/F7Cam_Driver.c ****   uint8_t status = CAMERA_ERROR;
 196:Cam/Src/F7Cam_Driver.c **** 
 197:Cam/Src/F7Cam_Driver.c ****   if(HAL_DCMI_Stop(&hDcmiHandler) == HAL_OK)
 198:Cam/Src/F7Cam_Driver.c ****   {
 199:Cam/Src/F7Cam_Driver.c ****      status = CAMERA_OK;
 200:Cam/Src/F7Cam_Driver.c ****   }
 201:Cam/Src/F7Cam_Driver.c ****   
ARM GAS  /var/folders/fz/x0kldt2j7vs_j4slv3pyc44m0000gp/T//ccIn6myf.s 			page 5


 202:Cam/Src/F7Cam_Driver.c ****   /* Set Camera in Power Down */
 203:Cam/Src/F7Cam_Driver.c ****   BSP_CAMERA_PwrDown();
 204:Cam/Src/F7Cam_Driver.c **** 
 205:Cam/Src/F7Cam_Driver.c ****   return status;
 206:Cam/Src/F7Cam_Driver.c **** }
 207:Cam/Src/F7Cam_Driver.c **** 
 208:Cam/Src/F7Cam_Driver.c **** 
 209:Cam/Src/F7Cam_Driver.c **** void BSP_CAMERA_PwrUp(void)
 210:Cam/Src/F7Cam_Driver.c **** {
 211:Cam/Src/F7Cam_Driver.c ****   GPIO_InitTypeDef gpio_init_structure;
 212:Cam/Src/F7Cam_Driver.c **** 
 213:Cam/Src/F7Cam_Driver.c ****   /* Enable GPIO clock */
 214:Cam/Src/F7Cam_Driver.c ****   __HAL_RCC_GPIOH_CLK_ENABLE();
 215:Cam/Src/F7Cam_Driver.c **** 
 216:Cam/Src/F7Cam_Driver.c ****   /*** Configure the GPIO ***/
 217:Cam/Src/F7Cam_Driver.c ****   /* Configure DCMI GPIO as alternate function */
 218:Cam/Src/F7Cam_Driver.c ****   gpio_init_structure.Pin       = GPIO_PIN_13;
 219:Cam/Src/F7Cam_Driver.c ****   gpio_init_structure.Mode      = GPIO_MODE_OUTPUT_PP;
 220:Cam/Src/F7Cam_Driver.c ****   gpio_init_structure.Pull      = GPIO_NOPULL;
 221:Cam/Src/F7Cam_Driver.c ****   gpio_init_structure.Speed     = GPIO_SPEED_HIGH;
 222:Cam/Src/F7Cam_Driver.c ****   HAL_GPIO_Init(GPIOH, &gpio_init_structure);
 223:Cam/Src/F7Cam_Driver.c **** 
 224:Cam/Src/F7Cam_Driver.c ****   /* De-assert the camera POWER_DOWN pin (active high) */
 225:Cam/Src/F7Cam_Driver.c ****   HAL_GPIO_WritePin(GPIOH, GPIO_PIN_13, GPIO_PIN_RESET);
 226:Cam/Src/F7Cam_Driver.c **** 
 227:Cam/Src/F7Cam_Driver.c ****   HAL_Delay(3);     /* POWER_DOWN de-asserted during 3ms */
 228:Cam/Src/F7Cam_Driver.c **** }
 229:Cam/Src/F7Cam_Driver.c **** 
 230:Cam/Src/F7Cam_Driver.c **** 
 231:Cam/Src/F7Cam_Driver.c **** void BSP_CAMERA_PwrDown(void)
 232:Cam/Src/F7Cam_Driver.c **** {
 233:Cam/Src/F7Cam_Driver.c ****   GPIO_InitTypeDef gpio_init_structure;
 234:Cam/Src/F7Cam_Driver.c **** 
 235:Cam/Src/F7Cam_Driver.c ****   /* Enable GPIO clock */
 236:Cam/Src/F7Cam_Driver.c ****   __HAL_RCC_GPIOH_CLK_ENABLE();
 237:Cam/Src/F7Cam_Driver.c **** 
 238:Cam/Src/F7Cam_Driver.c ****   /*** Configure the GPIO ***/
 239:Cam/Src/F7Cam_Driver.c ****   /* Configure DCMI GPIO as alternate function */
 240:Cam/Src/F7Cam_Driver.c ****   gpio_init_structure.Pin       = GPIO_PIN_13;
 241:Cam/Src/F7Cam_Driver.c ****   gpio_init_structure.Mode      = GPIO_MODE_OUTPUT_PP;
 242:Cam/Src/F7Cam_Driver.c ****   gpio_init_structure.Pull      = GPIO_NOPULL;
 243:Cam/Src/F7Cam_Driver.c ****   gpio_init_structure.Speed     = GPIO_SPEED_HIGH;
 244:Cam/Src/F7Cam_Driver.c ****   HAL_GPIO_Init(GPIOH, &gpio_init_structure);
 245:Cam/Src/F7Cam_Driver.c **** 
 246:Cam/Src/F7Cam_Driver.c ****   /* Assert the camera POWER_DOWN pin (active high) */
 247:Cam/Src/F7Cam_Driver.c ****   HAL_GPIO_WritePin(GPIOH, GPIO_PIN_13, GPIO_PIN_SET);
 248:Cam/Src/F7Cam_Driver.c **** 
 249:Cam/Src/F7Cam_Driver.c **** }
 250:Cam/Src/F7Cam_Driver.c **** 
 251:Cam/Src/F7Cam_Driver.c **** 
 252:Cam/Src/F7Cam_Driver.c **** __weak void BSP_CAMERA_MspInit(DCMI_HandleTypeDef *hdcmi, void *Params)
 253:Cam/Src/F7Cam_Driver.c **** {
 254:Cam/Src/F7Cam_Driver.c ****   static DMA_HandleTypeDef hdma_handler;
 255:Cam/Src/F7Cam_Driver.c ****   GPIO_InitTypeDef gpio_init_structure;
 256:Cam/Src/F7Cam_Driver.c ****   
 257:Cam/Src/F7Cam_Driver.c ****   /*** Enable peripherals and GPIO clocks ***/
 258:Cam/Src/F7Cam_Driver.c ****   /* Enable DCMI clock */
ARM GAS  /var/folders/fz/x0kldt2j7vs_j4slv3pyc44m0000gp/T//ccIn6myf.s 			page 6


 259:Cam/Src/F7Cam_Driver.c ****   __HAL_RCC_DCMI_CLK_ENABLE();
 260:Cam/Src/F7Cam_Driver.c **** 
 261:Cam/Src/F7Cam_Driver.c ****   /* Enable DMA2 clock */
 262:Cam/Src/F7Cam_Driver.c ****   __HAL_RCC_DMA2_CLK_ENABLE();
 263:Cam/Src/F7Cam_Driver.c ****   
 264:Cam/Src/F7Cam_Driver.c ****   /* Enable GPIO clocks */
 265:Cam/Src/F7Cam_Driver.c ****   __HAL_RCC_GPIOA_CLK_ENABLE();
 266:Cam/Src/F7Cam_Driver.c ****   __HAL_RCC_GPIOD_CLK_ENABLE();
 267:Cam/Src/F7Cam_Driver.c ****   __HAL_RCC_GPIOE_CLK_ENABLE();
 268:Cam/Src/F7Cam_Driver.c ****   __HAL_RCC_GPIOG_CLK_ENABLE();
 269:Cam/Src/F7Cam_Driver.c ****   __HAL_RCC_GPIOH_CLK_ENABLE();
 270:Cam/Src/F7Cam_Driver.c **** 
 271:Cam/Src/F7Cam_Driver.c ****   /*** Configure the GPIO ***/
 272:Cam/Src/F7Cam_Driver.c ****   /* Configure DCMI GPIO as alternate function */
 273:Cam/Src/F7Cam_Driver.c ****   gpio_init_structure.Pin       = GPIO_PIN_4 | GPIO_PIN_6;
 274:Cam/Src/F7Cam_Driver.c ****   gpio_init_structure.Mode      = GPIO_MODE_AF_PP;
 275:Cam/Src/F7Cam_Driver.c ****   gpio_init_structure.Pull      = GPIO_PULLUP;
 276:Cam/Src/F7Cam_Driver.c ****   gpio_init_structure.Speed     = GPIO_SPEED_HIGH;
 277:Cam/Src/F7Cam_Driver.c ****   gpio_init_structure.Alternate = GPIO_AF13_DCMI;
 278:Cam/Src/F7Cam_Driver.c ****   HAL_GPIO_Init(GPIOA, &gpio_init_structure);
 279:Cam/Src/F7Cam_Driver.c **** 
 280:Cam/Src/F7Cam_Driver.c ****   gpio_init_structure.Pin       = GPIO_PIN_3;
 281:Cam/Src/F7Cam_Driver.c ****   gpio_init_structure.Mode      = GPIO_MODE_AF_PP;
 282:Cam/Src/F7Cam_Driver.c ****   gpio_init_structure.Pull      = GPIO_PULLUP;
 283:Cam/Src/F7Cam_Driver.c ****   gpio_init_structure.Speed     = GPIO_SPEED_HIGH;
 284:Cam/Src/F7Cam_Driver.c ****   gpio_init_structure.Alternate = GPIO_AF13_DCMI;
 285:Cam/Src/F7Cam_Driver.c ****   HAL_GPIO_Init(GPIOD, &gpio_init_structure);
 286:Cam/Src/F7Cam_Driver.c **** 
 287:Cam/Src/F7Cam_Driver.c ****   gpio_init_structure.Pin       = GPIO_PIN_5 | GPIO_PIN_6;
 288:Cam/Src/F7Cam_Driver.c ****   gpio_init_structure.Mode      = GPIO_MODE_AF_PP;
 289:Cam/Src/F7Cam_Driver.c ****   gpio_init_structure.Pull      = GPIO_PULLUP;
 290:Cam/Src/F7Cam_Driver.c ****   gpio_init_structure.Speed     = GPIO_SPEED_HIGH;
 291:Cam/Src/F7Cam_Driver.c ****   gpio_init_structure.Alternate = GPIO_AF13_DCMI;
 292:Cam/Src/F7Cam_Driver.c ****   HAL_GPIO_Init(GPIOE, &gpio_init_structure);
 293:Cam/Src/F7Cam_Driver.c **** 
 294:Cam/Src/F7Cam_Driver.c ****   gpio_init_structure.Pin       = GPIO_PIN_9;
 295:Cam/Src/F7Cam_Driver.c ****   gpio_init_structure.Mode      = GPIO_MODE_AF_PP;
 296:Cam/Src/F7Cam_Driver.c ****   gpio_init_structure.Pull      = GPIO_PULLUP;
 297:Cam/Src/F7Cam_Driver.c ****   gpio_init_structure.Speed     = GPIO_SPEED_HIGH;
 298:Cam/Src/F7Cam_Driver.c ****   gpio_init_structure.Alternate = GPIO_AF13_DCMI;
 299:Cam/Src/F7Cam_Driver.c ****   HAL_GPIO_Init(GPIOG, &gpio_init_structure);
 300:Cam/Src/F7Cam_Driver.c **** 
 301:Cam/Src/F7Cam_Driver.c ****   gpio_init_structure.Pin       = GPIO_PIN_9 | GPIO_PIN_10  | GPIO_PIN_11  |\
 302:Cam/Src/F7Cam_Driver.c ****                                   GPIO_PIN_12 | GPIO_PIN_14;
 303:Cam/Src/F7Cam_Driver.c ****   gpio_init_structure.Mode      = GPIO_MODE_AF_PP;
 304:Cam/Src/F7Cam_Driver.c ****   gpio_init_structure.Pull      = GPIO_PULLUP;
 305:Cam/Src/F7Cam_Driver.c ****   gpio_init_structure.Speed     = GPIO_SPEED_HIGH;
 306:Cam/Src/F7Cam_Driver.c ****   gpio_init_structure.Alternate = GPIO_AF13_DCMI;
 307:Cam/Src/F7Cam_Driver.c ****   HAL_GPIO_Init(GPIOH, &gpio_init_structure);
 308:Cam/Src/F7Cam_Driver.c **** 
 309:Cam/Src/F7Cam_Driver.c ****   /*** Configure the DMA ***/
 310:Cam/Src/F7Cam_Driver.c ****   /* Set the parameters to be configured */
 311:Cam/Src/F7Cam_Driver.c ****   hdma_handler.Init.Channel             = DMA_CHANNEL_1;
 312:Cam/Src/F7Cam_Driver.c ****   hdma_handler.Init.Direction           = DMA_PERIPH_TO_MEMORY;
 313:Cam/Src/F7Cam_Driver.c ****   hdma_handler.Init.PeriphInc           = DMA_PINC_DISABLE;
 314:Cam/Src/F7Cam_Driver.c ****   hdma_handler.Init.MemInc              = DMA_MINC_ENABLE;
 315:Cam/Src/F7Cam_Driver.c ****   hdma_handler.Init.PeriphDataAlignment = DMA_PDATAALIGN_WORD;
ARM GAS  /var/folders/fz/x0kldt2j7vs_j4slv3pyc44m0000gp/T//ccIn6myf.s 			page 7


 316:Cam/Src/F7Cam_Driver.c ****   hdma_handler.Init.MemDataAlignment    = DMA_MDATAALIGN_WORD;
 317:Cam/Src/F7Cam_Driver.c ****   hdma_handler.Init.Mode                = DMA_CIRCULAR; //DMA_NORMAL
 318:Cam/Src/F7Cam_Driver.c ****   //hdma_handler.Init.Mode                = DMA_NORMAL; 
 319:Cam/Src/F7Cam_Driver.c ****   //hdma_handler.Init.Mode                = DMA_NORMAL;
 320:Cam/Src/F7Cam_Driver.c ****   hdma_handler.Init.Priority            = DMA_PRIORITY_HIGH;
 321:Cam/Src/F7Cam_Driver.c ****   hdma_handler.Init.FIFOMode            = DMA_FIFOMODE_ENABLE; //was disable
 322:Cam/Src/F7Cam_Driver.c ****   hdma_handler.Init.FIFOThreshold       = DMA_FIFO_THRESHOLD_FULL;
 323:Cam/Src/F7Cam_Driver.c ****   hdma_handler.Init.MemBurst            = DMA_MBURST_SINGLE;
 324:Cam/Src/F7Cam_Driver.c ****   hdma_handler.Init.PeriphBurst         = DMA_PBURST_INC4; //wasDMA_PBURST_SINGLE
 325:Cam/Src/F7Cam_Driver.c **** 
 326:Cam/Src/F7Cam_Driver.c ****   hdma_handler.Instance = DMA2_Stream1;
 327:Cam/Src/F7Cam_Driver.c **** 
 328:Cam/Src/F7Cam_Driver.c ****   /* Associate the initialized DMA handle to the DCMI handle */
 329:Cam/Src/F7Cam_Driver.c ****   __HAL_LINKDMA(hdcmi, DMA_Handle, hdma_handler);
 330:Cam/Src/F7Cam_Driver.c ****   
 331:Cam/Src/F7Cam_Driver.c ****   /*** Configure the NVIC for DCMI and DMA ***/
 332:Cam/Src/F7Cam_Driver.c ****   /* NVIC configuration for DCMI transfer complete interrupt */
 333:Cam/Src/F7Cam_Driver.c ****   HAL_NVIC_SetPriority(DCMI_IRQn, 0x0F, 0);
 334:Cam/Src/F7Cam_Driver.c ****   HAL_NVIC_EnableIRQ(DCMI_IRQn);  
 335:Cam/Src/F7Cam_Driver.c ****   
 336:Cam/Src/F7Cam_Driver.c ****   /* NVIC configuration for DMA2D transfer complete interrupt */
 337:Cam/Src/F7Cam_Driver.c ****   HAL_NVIC_SetPriority(DMA2_Stream1_IRQn, 0x0F, 0);
 338:Cam/Src/F7Cam_Driver.c ****   HAL_NVIC_EnableIRQ(DMA2_Stream1_IRQn);
 339:Cam/Src/F7Cam_Driver.c ****   
 340:Cam/Src/F7Cam_Driver.c ****   /* Configure the DMA stream */
 341:Cam/Src/F7Cam_Driver.c ****   HAL_DMA_Init(hdcmi->DMA_Handle);
 342:Cam/Src/F7Cam_Driver.c **** }
 343:Cam/Src/F7Cam_Driver.c **** 
 344:Cam/Src/F7Cam_Driver.c **** 
 345:Cam/Src/F7Cam_Driver.c **** /**
 346:Cam/Src/F7Cam_Driver.c ****   * @brief  DeInitializes the DCMI MSP.
 347:Cam/Src/F7Cam_Driver.c ****   * @param  hdcmi: HDMI handle 
 348:Cam/Src/F7Cam_Driver.c ****   * @param  Params
 349:Cam/Src/F7Cam_Driver.c ****   * @retval None
 350:Cam/Src/F7Cam_Driver.c ****   */
 351:Cam/Src/F7Cam_Driver.c **** __weak void BSP_CAMERA_MspDeInit(DCMI_HandleTypeDef *hdcmi, void *Params)
 352:Cam/Src/F7Cam_Driver.c **** {
 353:Cam/Src/F7Cam_Driver.c ****   /* Disable NVIC  for DCMI transfer complete interrupt */
 354:Cam/Src/F7Cam_Driver.c ****   HAL_NVIC_DisableIRQ(DCMI_IRQn);  
 355:Cam/Src/F7Cam_Driver.c ****   
 356:Cam/Src/F7Cam_Driver.c ****   /* Disable NVIC for DMA2 transfer complete interrupt */
 357:Cam/Src/F7Cam_Driver.c ****   HAL_NVIC_DisableIRQ(DMA2_Stream1_IRQn);
 358:Cam/Src/F7Cam_Driver.c ****   
 359:Cam/Src/F7Cam_Driver.c ****   /* Configure the DMA stream */
 360:Cam/Src/F7Cam_Driver.c ****   HAL_DMA_DeInit(hdcmi->DMA_Handle);  
 361:Cam/Src/F7Cam_Driver.c **** 
 362:Cam/Src/F7Cam_Driver.c ****   /* Disable DCMI clock */
 363:Cam/Src/F7Cam_Driver.c ****   __HAL_RCC_DCMI_CLK_DISABLE();
 364:Cam/Src/F7Cam_Driver.c **** 
 365:Cam/Src/F7Cam_Driver.c ****   /* GPIO pins clock and DMA clock can be shut down in the application 
 366:Cam/Src/F7Cam_Driver.c ****      by surcharging this __weak function */ 
 367:Cam/Src/F7Cam_Driver.c **** }
 368:Cam/Src/F7Cam_Driver.c **** 
 369:Cam/Src/F7Cam_Driver.c **** /**
 370:Cam/Src/F7Cam_Driver.c ****   * @brief  Line event callback
 371:Cam/Src/F7Cam_Driver.c ****   * @param  hdcmi: pointer to the DCMI handle  
 372:Cam/Src/F7Cam_Driver.c ****   * @retval None
ARM GAS  /var/folders/fz/x0kldt2j7vs_j4slv3pyc44m0000gp/T//ccIn6myf.s 			page 8


 373:Cam/Src/F7Cam_Driver.c ****   */
 374:Cam/Src/F7Cam_Driver.c **** void HAL_DCMI_LineEventCallback(DCMI_HandleTypeDef *hdcmi)
 375:Cam/Src/F7Cam_Driver.c **** {
 376:Cam/Src/F7Cam_Driver.c ****   if (!capture_data) {
 377:Cam/Src/F7Cam_Driver.c ****     return;
 378:Cam/Src/F7Cam_Driver.c ****   }
 379:Cam/Src/F7Cam_Driver.c **** 
 380:Cam/Src/F7Cam_Driver.c ****   BSP_CAMERA_LineEventCallback();
 381:Cam/Src/F7Cam_Driver.c ****   //packetCounter++;
 382:Cam/Src/F7Cam_Driver.c ****   if (buffer_position + 1 >= total_buffer_fragments) {
 383:Cam/Src/F7Cam_Driver.c ****     buffer_position = 0;
 384:Cam/Src/F7Cam_Driver.c ****   } else {  
 385:Cam/Src/F7Cam_Driver.c ****     buffer_position++;
 386:Cam/Src/F7Cam_Driver.c ****   }
 387:Cam/Src/F7Cam_Driver.c ****   //printf("buffer_position: %i\n", buffer_position);
 388:Cam/Src/F7Cam_Driver.c **** 
 389:Cam/Src/F7Cam_Driver.c **** }
 390:Cam/Src/F7Cam_Driver.c **** 
 391:Cam/Src/F7Cam_Driver.c **** 
 392:Cam/Src/F7Cam_Driver.c **** /**
 393:Cam/Src/F7Cam_Driver.c ****   * @brief  Line Event callback.
 394:Cam/Src/F7Cam_Driver.c ****   * @retval None
 395:Cam/Src/F7Cam_Driver.c ****   */
 396:Cam/Src/F7Cam_Driver.c **** __weak void BSP_CAMERA_LineEventCallback(void)
 397:Cam/Src/F7Cam_Driver.c **** {
 398:Cam/Src/F7Cam_Driver.c ****   /* NOTE : This function Should not be modified, when the callback is needed,
 399:Cam/Src/F7Cam_Driver.c ****             the HAL_DCMI_LineEventCallback could be implemented in the user file
 400:Cam/Src/F7Cam_Driver.c ****    */
 401:Cam/Src/F7Cam_Driver.c **** }
 402:Cam/Src/F7Cam_Driver.c **** 
 403:Cam/Src/F7Cam_Driver.c **** /**
 404:Cam/Src/F7Cam_Driver.c ****   * @brief  VSYNC event callback
 405:Cam/Src/F7Cam_Driver.c ****   * @param  hdcmi: pointer to the DCMI handle  
 406:Cam/Src/F7Cam_Driver.c ****   * @retval None
 407:Cam/Src/F7Cam_Driver.c ****   */
 408:Cam/Src/F7Cam_Driver.c **** void HAL_DCMI_VsyncEventCallback(DCMI_HandleTypeDef *hdcmi)
 409:Cam/Src/F7Cam_Driver.c **** {
 410:Cam/Src/F7Cam_Driver.c ****   if (!capture_data) {
 411:Cam/Src/F7Cam_Driver.c ****     return;
 412:Cam/Src/F7Cam_Driver.c ****   }
 413:Cam/Src/F7Cam_Driver.c **** 
 414:Cam/Src/F7Cam_Driver.c ****   BSP_CAMERA_VsyncEventCallback();
 415:Cam/Src/F7Cam_Driver.c ****   frameCounter++;
 416:Cam/Src/F7Cam_Driver.c ****   loadingCounter++;
 417:Cam/Src/F7Cam_Driver.c ****   uint8_t current_frame_end_pos = buffer_position;
 418:Cam/Src/F7Cam_Driver.c **** 
 419:Cam/Src/F7Cam_Driver.c ****   if (loadingCounter > 10) {
 420:Cam/Src/F7Cam_Driver.c ****     BSP_CAMERA_Stop();
 421:Cam/Src/F7Cam_Driver.c ****     for(uint32_t i = 0; i < ((total_buffer_fragments/ 4) * FIFO_SIZE) ; i = i + 2) {
 422:Cam/Src/F7Cam_Driver.c ****       printf("%.2X%.2X ", cam_fb[i], cam_fb[i+ 1]);
 423:Cam/Src/F7Cam_Driver.c ****     }
 424:Cam/Src/F7Cam_Driver.c ****   }
 425:Cam/Src/F7Cam_Driver.c ****   
 426:Cam/Src/F7Cam_Driver.c **** 
 427:Cam/Src/F7Cam_Driver.c ****   if (current_frame_end_pos < current_frame_start_pos) {
 428:Cam/Src/F7Cam_Driver.c ****     //frame has wrapped around buffer
 429:Cam/Src/F7Cam_Driver.c **** 
ARM GAS  /var/folders/fz/x0kldt2j7vs_j4slv3pyc44m0000gp/T//ccIn6myf.s 			page 9


 430:Cam/Src/F7Cam_Driver.c ****     printf("\twrapped frame\n\n");
 431:Cam/Src/F7Cam_Driver.c **** 
 432:Cam/Src/F7Cam_Driver.c ****     //payload 1: previous frame to end of buffer
 433:Cam/Src/F7Cam_Driver.c ****     uint16_t bufferEndSize = ((total_buffer_fragments) - current_frame_start_pos) * FIFO_SIZE;
 434:Cam/Src/F7Cam_Driver.c ****     //printf("pos1:%i\n", current_frame_start_pos);
 435:Cam/Src/F7Cam_Driver.c ****     //printf("bufferEndSize: %i\n", bufferEndSize / FIFO_SIZE);
 436:Cam/Src/F7Cam_Driver.c **** 
 437:Cam/Src/F7Cam_Driver.c ****     //payload
 438:Cam/Src/F7Cam_Driver.c ****     DCMIDataReadyEventData *partial_1_data_ready_payload = malloc(sizeof(DCMIDataReadyEventData));
 439:Cam/Src/F7Cam_Driver.c ****     partial_1_data_ready_payload->data = cam_fb + (current_frame_start_pos * FIFO_SIZE);
 440:Cam/Src/F7Cam_Driver.c ****     partial_1_data_ready_payload->size = bufferEndSize;
 441:Cam/Src/F7Cam_Driver.c ****     //printf("/nELSE IF/n");
 442:Cam/Src/F7Cam_Driver.c **** 
 443:Cam/Src/F7Cam_Driver.c ****     Event data_ready_part1_event = {
 444:Cam/Src/F7Cam_Driver.c ****       DCMIDataReady,
 445:Cam/Src/F7Cam_Driver.c ****       partial_1_data_ready_payload
 446:Cam/Src/F7Cam_Driver.c ****     };
 447:Cam/Src/F7Cam_Driver.c **** 
 448:Cam/Src/F7Cam_Driver.c ****       //if (loadingCounter >= startOffset) {
 449:Cam/Src/F7Cam_Driver.c ****         push_event_queue(data_ready_part1_event);
 450:Cam/Src/F7Cam_Driver.c ****       //}
 451:Cam/Src/F7Cam_Driver.c **** 
 452:Cam/Src/F7Cam_Driver.c **** 
 453:Cam/Src/F7Cam_Driver.c ****     //pay load 2: start of buffer to current frame
 454:Cam/Src/F7Cam_Driver.c ****     //printf("pos2:%i\n", 0);
 455:Cam/Src/F7Cam_Driver.c ****     uint16_t bufferStartSize = (current_frame_end_pos + 1) * FIFO_SIZE;
 456:Cam/Src/F7Cam_Driver.c ****     //printf("bufferStartSize: %i\n\n", bufferStartSize / FIFO_SIZE);
 457:Cam/Src/F7Cam_Driver.c **** 
 458:Cam/Src/F7Cam_Driver.c **** 
 459:Cam/Src/F7Cam_Driver.c ****     //payload
 460:Cam/Src/F7Cam_Driver.c ****     DCMIDataReadyEventData *partial_2_data_ready_payload = malloc(sizeof(DCMIDataReadyEventData));
 461:Cam/Src/F7Cam_Driver.c ****     partial_2_data_ready_payload->data = cam_fb;
 462:Cam/Src/F7Cam_Driver.c ****     partial_2_data_ready_payload->size = bufferStartSize * FIFO_SIZE;
 463:Cam/Src/F7Cam_Driver.c **** 
 464:Cam/Src/F7Cam_Driver.c ****     Event data_ready_part2_event = {
 465:Cam/Src/F7Cam_Driver.c ****       DCMIDataReady,
 466:Cam/Src/F7Cam_Driver.c ****       partial_2_data_ready_payload
 467:Cam/Src/F7Cam_Driver.c ****     };
 468:Cam/Src/F7Cam_Driver.c **** 
 469:Cam/Src/F7Cam_Driver.c ****    
 470:Cam/Src/F7Cam_Driver.c ****       push_event_queue(data_ready_part2_event);
 471:Cam/Src/F7Cam_Driver.c **** 
 472:Cam/Src/F7Cam_Driver.c ****   JPEG_Size = bufferEndSize + bufferStartSize;
 473:Cam/Src/F7Cam_Driver.c **** 
 474:Cam/Src/F7Cam_Driver.c **** 
 475:Cam/Src/F7Cam_Driver.c ****   } else {
 476:Cam/Src/F7Cam_Driver.c ****     //=============size of last frame===========
 477:Cam/Src/F7Cam_Driver.c ****     // printf("\tregular frame\n");
 478:Cam/Src/F7Cam_Driver.c ****     // printf("pos:%i\n",(current_frame_start_pos));
 479:Cam/Src/F7Cam_Driver.c ****     uint16_t wholeFrameSize = ((current_frame_end_pos - current_frame_start_pos)) * FIFO_SIZE;
 480:Cam/Src/F7Cam_Driver.c ****     // printf("wholeFrameSize: %i\n\n", wholeFrameSize / FIFO_SIZE);
 481:Cam/Src/F7Cam_Driver.c ****     // printf("frame first byte: %x/%c\n", cam_fb[(current_frame_start_pos) * FIFO_SIZE], cam_fb[(c
 482:Cam/Src/F7Cam_Driver.c ****     // printf("prev packet first byte: %x/%c\n", cam_fb[(current_frame_start_pos - 1) * FIFO_SIZE],
 483:Cam/Src/F7Cam_Driver.c ****     // printf("next packet first byte: %x/%c\n", cam_fb[(current_frame_start_pos + 1) * FIFO_SIZE],
 484:Cam/Src/F7Cam_Driver.c ****     // printf("NDTR * 4: %d\n", hdcmi->DMA_Handle->Instance->NDTR * 4);
 485:Cam/Src/F7Cam_Driver.c **** 
 486:Cam/Src/F7Cam_Driver.c ****     DCMIDataReadyEventData *full_data_ready_payload = malloc(sizeof(DCMIDataReadyEventData));
ARM GAS  /var/folders/fz/x0kldt2j7vs_j4slv3pyc44m0000gp/T//ccIn6myf.s 			page 10


 487:Cam/Src/F7Cam_Driver.c ****     full_data_ready_payload->data = cam_fb + ((current_frame_start_pos) * FIFO_SIZE);
 488:Cam/Src/F7Cam_Driver.c ****     full_data_ready_payload->size = wholeFrameSize;
 489:Cam/Src/F7Cam_Driver.c **** 
 490:Cam/Src/F7Cam_Driver.c ****     Event data_ready_full_event = {
 491:Cam/Src/F7Cam_Driver.c ****       DCMIDataReady,
 492:Cam/Src/F7Cam_Driver.c ****       full_data_ready_payload
 493:Cam/Src/F7Cam_Driver.c ****     };
 494:Cam/Src/F7Cam_Driver.c **** 
 495:Cam/Src/F7Cam_Driver.c ****     //if(loadingCounter >= startOffset){
 496:Cam/Src/F7Cam_Driver.c ****       push_event_queue(data_ready_full_event);
 497:Cam/Src/F7Cam_Driver.c ****     //}
 498:Cam/Src/F7Cam_Driver.c **** 
 499:Cam/Src/F7Cam_Driver.c ****     JPEG_Size = wholeFrameSize;
 500:Cam/Src/F7Cam_Driver.c **** 
 501:Cam/Src/F7Cam_Driver.c ****   }
 502:Cam/Src/F7Cam_Driver.c **** 
 503:Cam/Src/F7Cam_Driver.c ****   //someting wrong here 
 504:Cam/Src/F7Cam_Driver.c ****   current_frame_start_pos = buffer_position < total_buffer_fragments - 1 ? buffer_position + 1 : 0;
 505:Cam/Src/F7Cam_Driver.c ****   
 506:Cam/Src/F7Cam_Driver.c ****   firstVsync = true;
 507:Cam/Src/F7Cam_Driver.c **** 
 508:Cam/Src/F7Cam_Driver.c ****  
 509:Cam/Src/F7Cam_Driver.c **** 
 510:Cam/Src/F7Cam_Driver.c **** 
 511:Cam/Src/F7Cam_Driver.c ****   DCMIFrameCompleteEventData *frame_complete_payload = malloc(sizeof(DCMIFrameCompleteEventData));
 512:Cam/Src/F7Cam_Driver.c ****   frame_complete_payload->size = JPEG_Size; //FRAME_SIZE; //JPEG_Size;
 513:Cam/Src/F7Cam_Driver.c **** 
 514:Cam/Src/F7Cam_Driver.c **** 
 515:Cam/Src/F7Cam_Driver.c ****   Event frame_event = {
 516:Cam/Src/F7Cam_Driver.c ****     DCMIFrameComplete,
 517:Cam/Src/F7Cam_Driver.c ****     frame_complete_payload
 518:Cam/Src/F7Cam_Driver.c ****   };
 519:Cam/Src/F7Cam_Driver.c **** 
 520:Cam/Src/F7Cam_Driver.c **** 
 521:Cam/Src/F7Cam_Driver.c ****   push_event_queue(frame_event);
 522:Cam/Src/F7Cam_Driver.c ****  
 523:Cam/Src/F7Cam_Driver.c ****   JPEG_Size = 0;
 524:Cam/Src/F7Cam_Driver.c **** }
 525:Cam/Src/F7Cam_Driver.c **** 
 526:Cam/Src/F7Cam_Driver.c **** /**
 527:Cam/Src/F7Cam_Driver.c ****   * @brief  VSYNC Event callback.
 528:Cam/Src/F7Cam_Driver.c ****   * @retval None
 529:Cam/Src/F7Cam_Driver.c ****   */
 530:Cam/Src/F7Cam_Driver.c **** __weak void BSP_CAMERA_VsyncEventCallback(void)
 531:Cam/Src/F7Cam_Driver.c **** {
 532:Cam/Src/F7Cam_Driver.c ****   /* NOTE : This function Should not be modified, when the callback is needed,
 533:Cam/Src/F7Cam_Driver.c ****             the HAL_DCMI_VsyncEventCallback could be implemented in the user file
 534:Cam/Src/F7Cam_Driver.c ****    */
 535:Cam/Src/F7Cam_Driver.c **** }
 536:Cam/Src/F7Cam_Driver.c **** 
 537:Cam/Src/F7Cam_Driver.c **** /**
 538:Cam/Src/F7Cam_Driver.c ****   * @brief  Frame event callback
 539:Cam/Src/F7Cam_Driver.c ****   * @param  hdcmi: pointer to the DCMI handle  
 540:Cam/Src/F7Cam_Driver.c ****   * @retval None
 541:Cam/Src/F7Cam_Driver.c ****   */
 542:Cam/Src/F7Cam_Driver.c **** void HAL_DCMI_FrameEventCallback(DCMI_HandleTypeDef *hdcmi)
 543:Cam/Src/F7Cam_Driver.c **** {
ARM GAS  /var/folders/fz/x0kldt2j7vs_j4slv3pyc44m0000gp/T//ccIn6myf.s 			page 11


 544:Cam/Src/F7Cam_Driver.c ****   BSP_CAMERA_FrameEventCallback();
 545:Cam/Src/F7Cam_Driver.c **** }
 546:Cam/Src/F7Cam_Driver.c **** 
 547:Cam/Src/F7Cam_Driver.c **** /**
 548:Cam/Src/F7Cam_Driver.c ****   * @brief  Frame Event callback.
 549:Cam/Src/F7Cam_Driver.c ****   * @retval None
 550:Cam/Src/F7Cam_Driver.c ****   */
 551:Cam/Src/F7Cam_Driver.c **** __weak void BSP_CAMERA_FrameEventCallback(void)
 552:Cam/Src/F7Cam_Driver.c **** {
 553:Cam/Src/F7Cam_Driver.c ****   /* NOTE : This function Should not be modified, when the callback is needed,
 554:Cam/Src/F7Cam_Driver.c ****             the HAL_DCMI_FrameEventCallback could be implemented in the user file
 555:Cam/Src/F7Cam_Driver.c ****    */
 556:Cam/Src/F7Cam_Driver.c **** }
 557:Cam/Src/F7Cam_Driver.c **** 
 558:Cam/Src/F7Cam_Driver.c **** /**
 559:Cam/Src/F7Cam_Driver.c ****   * @brief  Error callback
 560:Cam/Src/F7Cam_Driver.c ****   * @param  hdcmi: pointer to the DCMI handle  
 561:Cam/Src/F7Cam_Driver.c ****   * @retval None
 562:Cam/Src/F7Cam_Driver.c ****   */
 563:Cam/Src/F7Cam_Driver.c **** void HAL_DCMI_ErrorCallback(DCMI_HandleTypeDef *hdcmi)
 564:Cam/Src/F7Cam_Driver.c **** {        
 565:Cam/Src/F7Cam_Driver.c ****   BSP_CAMERA_ErrorCallback();
 566:Cam/Src/F7Cam_Driver.c **** }
 567:Cam/Src/F7Cam_Driver.c **** 
 568:Cam/Src/F7Cam_Driver.c **** /**
 569:Cam/Src/F7Cam_Driver.c ****   * @brief  Error callback.
 570:Cam/Src/F7Cam_Driver.c ****   * @retval None
 571:Cam/Src/F7Cam_Driver.c ****   */
 572:Cam/Src/F7Cam_Driver.c **** __weak void BSP_CAMERA_ErrorCallback(void)
 573:Cam/Src/F7Cam_Driver.c **** {
 574:Cam/Src/F7Cam_Driver.c ****   /* NOTE : This function Should not be modified, when the callback is needed,
 575:Cam/Src/F7Cam_Driver.c ****             the HAL_DCMI_ErrorCallback could be implemented in the user file
 576:Cam/Src/F7Cam_Driver.c ****    */
 577:Cam/Src/F7Cam_Driver.c **** }
 578:Cam/Src/F7Cam_Driver.c **** 
 579:Cam/Src/F7Cam_Driver.c **** /**
 580:Cam/Src/F7Cam_Driver.c ****   * @}
 581:Cam/Src/F7Cam_Driver.c ****   */  
 582:Cam/Src/F7Cam_Driver.c ****   
 583:Cam/Src/F7Cam_Driver.c **** 
 584:Cam/Src/F7Cam_Driver.c **** void FPSCalculate(void) {
 585:Cam/Src/F7Cam_Driver.c ****   printf("\nFPS:%i\n",frameCounter);
 586:Cam/Src/F7Cam_Driver.c **** 	frameCounter = 0;
 587:Cam/Src/F7Cam_Driver.c **** }
 588:Cam/Src/F7Cam_Driver.c **** 
 589:Cam/Src/F7Cam_Driver.c **** 
 590:Cam/Src/F7Cam_Driver.c **** 
 591:Cam/Src/F7Cam_Driver.c **** void DCMI_DMA_TRANSFER_COMPLETE(DMA_HandleTypeDef *hdma)
 592:Cam/Src/F7Cam_Driver.c **** {
 593:Cam/Src/F7Cam_Driver.c ****   uint32_t tmp = 0;
 594:Cam/Src/F7Cam_Driver.c **** 
 595:Cam/Src/F7Cam_Driver.c ****   DCMI_HandleTypeDef *hdcmi = (DCMI_HandleTypeDef *)((DMA_HandleTypeDef *)hdma)->Parent;
 596:Cam/Src/F7Cam_Driver.c **** 
 597:Cam/Src/F7Cam_Driver.c ****   if (hdcmi->XferCount != 0)
 598:Cam/Src/F7Cam_Driver.c ****   {
 599:Cam/Src/F7Cam_Driver.c ****     /* Update memory 0 address location */
 600:Cam/Src/F7Cam_Driver.c ****     tmp = ((hdcmi->DMA_Handle->Instance->CR) & DMA_SxCR_CT);
ARM GAS  /var/folders/fz/x0kldt2j7vs_j4slv3pyc44m0000gp/T//ccIn6myf.s 			page 12


 601:Cam/Src/F7Cam_Driver.c ****     if (((hdcmi->XferCount % 2) == 0) && (tmp != 0))
 602:Cam/Src/F7Cam_Driver.c ****     {
 603:Cam/Src/F7Cam_Driver.c ****       tmp = hdcmi->DMA_Handle->Instance->M0AR;
 604:Cam/Src/F7Cam_Driver.c ****       HAL_DMAEx_ChangeMemory(hdcmi->DMA_Handle, (tmp + (8 * hdcmi->XferSize)), MEMORY0);
 605:Cam/Src/F7Cam_Driver.c ****       hdcmi->XferCount--;
 606:Cam/Src/F7Cam_Driver.c ****     }
 607:Cam/Src/F7Cam_Driver.c ****     /* Update memory 1 address location */
 608:Cam/Src/F7Cam_Driver.c ****     else if ((hdcmi->DMA_Handle->Instance->CR & DMA_SxCR_CT) == 0)
 609:Cam/Src/F7Cam_Driver.c ****     {
 610:Cam/Src/F7Cam_Driver.c ****       tmp = hdcmi->DMA_Handle->Instance->M1AR;
 611:Cam/Src/F7Cam_Driver.c ****       HAL_DMAEx_ChangeMemory(hdcmi->DMA_Handle, (tmp + (8 * hdcmi->XferSize)), MEMORY1);
 612:Cam/Src/F7Cam_Driver.c ****       hdcmi->XferCount--;
 613:Cam/Src/F7Cam_Driver.c ****     }
 614:Cam/Src/F7Cam_Driver.c ****   }
 615:Cam/Src/F7Cam_Driver.c ****   /* Update memory 0 address location */
 616:Cam/Src/F7Cam_Driver.c ****   else if ((hdcmi->DMA_Handle->Instance->CR & DMA_SxCR_CT) != 0)
 617:Cam/Src/F7Cam_Driver.c ****   {
 618:Cam/Src/F7Cam_Driver.c ****     hdcmi->DMA_Handle->Instance->M0AR = hdcmi->pBuffPtr;
 619:Cam/Src/F7Cam_Driver.c ****   }
 620:Cam/Src/F7Cam_Driver.c ****   /* Update memory 1 address location */
 621:Cam/Src/F7Cam_Driver.c ****   else if ((hdcmi->DMA_Handle->Instance->CR & DMA_SxCR_CT) == 0)
 622:Cam/Src/F7Cam_Driver.c ****   {
 623:Cam/Src/F7Cam_Driver.c ****     tmp = hdcmi->pBuffPtr;
 624:Cam/Src/F7Cam_Driver.c ****     hdcmi->DMA_Handle->Instance->M1AR = (tmp + (4 * hdcmi->XferSize));
 625:Cam/Src/F7Cam_Driver.c ****     hdcmi->XferCount = hdcmi->XferTransferNumber;
 626:Cam/Src/F7Cam_Driver.c ****   }
 627:Cam/Src/F7Cam_Driver.c **** 
 628:Cam/Src/F7Cam_Driver.c ****   /* Enable the Frame interrupt */
 629:Cam/Src/F7Cam_Driver.c ****   //frame_packet_data_available2 = true;
 630:Cam/Src/F7Cam_Driver.c **** 
 631:Cam/Src/F7Cam_Driver.c ****   /* Check if the frame is transferred */
 632:Cam/Src/F7Cam_Driver.c ****   if (hdcmi->XferCount == hdcmi->XferTransferNumber)
 633:Cam/Src/F7Cam_Driver.c ****   {
 634:Cam/Src/F7Cam_Driver.c ****     __HAL_DCMI_ENABLE_IT(hdcmi, DCMI_IT_FRAME);
 635:Cam/Src/F7Cam_Driver.c **** 
 636:Cam/Src/F7Cam_Driver.c ****     DCMIDataReadyEventData *full_data_ready_payload = malloc(sizeof(DCMIDataReadyEventData));
 637:Cam/Src/F7Cam_Driver.c ****     full_data_ready_payload->data = cam_fb + (CAM_FB_SIZE / 2) + 10;
 638:Cam/Src/F7Cam_Driver.c ****     full_data_ready_payload->size = (CAM_FB_SIZE / 2) - 2;
 639:Cam/Src/F7Cam_Driver.c **** 
 640:Cam/Src/F7Cam_Driver.c ****     Event data_ready_full_event = {
 641:Cam/Src/F7Cam_Driver.c ****       DCMIDataReady,
 642:Cam/Src/F7Cam_Driver.c ****       full_data_ready_payload
 643:Cam/Src/F7Cam_Driver.c ****     };
 644:Cam/Src/F7Cam_Driver.c **** 
 645:Cam/Src/F7Cam_Driver.c ****    //printf("[%lu] Pushing DCMIDataReady\n", HAL_GetTick());
 646:Cam/Src/F7Cam_Driver.c ****    //if (loadingCounter > 2) {
 647:Cam/Src/F7Cam_Driver.c ****     //push_event_queue(data_ready_full_event);
 648:Cam/Src/F7Cam_Driver.c ****   } else if (hdcmi->XferTransferNumber != 0 && hdcmi->XferCount == hdcmi->XferTransferNumber / 2) {
 649:Cam/Src/F7Cam_Driver.c ****     DCMIDataReadyEventData *full_data_ready_payload = malloc(sizeof(DCMIDataReadyEventData));
 650:Cam/Src/F7Cam_Driver.c ****     full_data_ready_payload->data = cam_fb;
 651:Cam/Src/F7Cam_Driver.c ****     full_data_ready_payload->size = (CAM_FB_SIZE / 2) -2;
 652:Cam/Src/F7Cam_Driver.c ****     printf("/nELSE IF/n");
 653:Cam/Src/F7Cam_Driver.c **** 
 654:Cam/Src/F7Cam_Driver.c ****     Event data_ready_full_event = {
 655:Cam/Src/F7Cam_Driver.c ****       DCMIDataReady,
 656:Cam/Src/F7Cam_Driver.c ****       full_data_ready_payload
 657:Cam/Src/F7Cam_Driver.c ****     };
ARM GAS  /var/folders/fz/x0kldt2j7vs_j4slv3pyc44m0000gp/T//ccIn6myf.s 			page 13


 658:Cam/Src/F7Cam_Driver.c **** 
 659:Cam/Src/F7Cam_Driver.c ****     //push_event_queue(data_ready_full_event);
 660:Cam/Src/F7Cam_Driver.c ****   }
 661:Cam/Src/F7Cam_Driver.c **** 
 662:Cam/Src/F7Cam_Driver.c ****   /* When snapshot mode, set dcmi state to ready */
 663:Cam/Src/F7Cam_Driver.c ****   if ((hdcmi->Instance->CR & DCMI_CR_CM) == DCMI_MODE_SNAPSHOT)
 664:Cam/Src/F7Cam_Driver.c ****   {
 665:Cam/Src/F7Cam_Driver.c ****     hdcmi->State = HAL_DCMI_STATE_READY;
 666:Cam/Src/F7Cam_Driver.c ****   }
 667:Cam/Src/F7Cam_Driver.c **** }
 668:Cam/Src/F7Cam_Driver.c **** 
 669:Cam/Src/F7Cam_Driver.c **** void DCMI_DMA_TRANSFER_HALF_COMPLETE(DMA_HandleTypeDef *hdma) {
 670:Cam/Src/F7Cam_Driver.c ****   //printf("\n Half transfer complete\n");
 671:Cam/Src/F7Cam_Driver.c ****   //Camera data ready event
 672:Cam/Src/F7Cam_Driver.c **** 
 673:Cam/Src/F7Cam_Driver.c ****   DCMIDataReadyEventData *half_data_ready_payload = malloc(sizeof(DCMIDataReadyEventData));
 674:Cam/Src/F7Cam_Driver.c ****   half_data_ready_payload->data = cam_fb;
 675:Cam/Src/F7Cam_Driver.c ****   half_data_ready_payload->size = (CAM_FB_SIZE / 2) + 2;
 676:Cam/Src/F7Cam_Driver.c **** 
 677:Cam/Src/F7Cam_Driver.c ****   Event data_ready_half_event = {
 678:Cam/Src/F7Cam_Driver.c ****     DCMIDataReady,
 679:Cam/Src/F7Cam_Driver.c ****     half_data_ready_payload
 680:Cam/Src/F7Cam_Driver.c ****   };
 681:Cam/Src/F7Cam_Driver.c **** 
 682:Cam/Src/F7Cam_Driver.c ****   //printf("[%lu] Pushing DCMIDataReady\n", HAL_GetTick());
 683:Cam/Src/F7Cam_Driver.c ****   //if (loadingCounter > 2) {
 684:Cam/Src/F7Cam_Driver.c ****     //push_event_queue(data_ready_half_event);
 685:Cam/Src/F7Cam_Driver.c ****   //}
 686:Cam/Src/F7Cam_Driver.c **** 
 687:Cam/Src/F7Cam_Driver.c ****   //printf("cam pointer: = %i\n", cam_data_location);
 688:Cam/Src/F7Cam_Driver.c **** 
 689:Cam/Src/F7Cam_Driver.c **** }
 690:Cam/Src/F7Cam_Driver.c **** 
 691:Cam/Src/F7Cam_Driver.c **** void JPEG_search_Full_Frame(void) {
 692:Cam/Src/F7Cam_Driver.c **** 			printf("\nsearching frame\n");
 693:Cam/Src/F7Cam_Driver.c **** 			//uint8_t *p;
 694:Cam/Src/F7Cam_Driver.c **** 	        uint32_t i=0,jpgstart=0,jpglen=0, padding_counter = 0;
 695:Cam/Src/F7Cam_Driver.c **** 	        uint8_t  head=0;
 696:Cam/Src/F7Cam_Driver.c **** 	        uint8_t found_jpeg_footer = 0;
 697:Cam/Src/F7Cam_Driver.c **** 	        uint8_t jpeg_frame_counter = 1;
 698:Cam/Src/F7Cam_Driver.c **** 
 699:Cam/Src/F7Cam_Driver.c **** 	        HAL_DCMI_Stop(&hDcmiHandler);
 700:Cam/Src/F7Cam_Driver.c **** 
 701:Cam/Src/F7Cam_Driver.c **** 	        //p=(uint8_t*)cam_fb;
 702:Cam/Src/F7Cam_Driver.c **** 
 703:Cam/Src/F7Cam_Driver.c **** 	        for(i=0;i<CAM_FB_SIZE; i++)//search for 0XFF 0XD8 and 0XFF 0XD9, get size of JPG
 704:Cam/Src/F7Cam_Driver.c **** 	        {
 705:Cam/Src/F7Cam_Driver.c **** 	                if((cam_fb[i]==0XFF)&&(cam_fb[i+1]==0XD8))
 706:Cam/Src/F7Cam_Driver.c **** 	                {
 707:Cam/Src/F7Cam_Driver.c **** 	                		found_jpeg_footer = 0;
 708:Cam/Src/F7Cam_Driver.c **** 	                		//printf("%i, total size: %d \r\n", jpeg_frame_counter, (jpglen + padding_counte
 709:Cam/Src/F7Cam_Driver.c **** 	                		JPEG_HEX_SIZE_BUFFER[jpeg_frame_counter + 1] = jpglen + padding_counter + 1;
 710:Cam/Src/F7Cam_Driver.c **** 	                		padding_counter = 0;
 711:Cam/Src/F7Cam_Driver.c **** 	                		jpeg_frame_counter++;
 712:Cam/Src/F7Cam_Driver.c **** 
 713:Cam/Src/F7Cam_Driver.c **** 
 714:Cam/Src/F7Cam_Driver.c **** 
ARM GAS  /var/folders/fz/x0kldt2j7vs_j4slv3pyc44m0000gp/T//ccIn6myf.s 			page 14


 715:Cam/Src/F7Cam_Driver.c **** 	                        jpgstart=i;
 716:Cam/Src/F7Cam_Driver.c **** 	                        head=1;	// Already found  FF D8
 717:Cam/Src/F7Cam_Driver.c **** 	                        printf("\nfound header\n");
 718:Cam/Src/F7Cam_Driver.c **** 	                }
 719:Cam/Src/F7Cam_Driver.c **** 	                if((cam_fb[i]==0XFF)&&(cam_fb[i+1]==0XD9)&&head) //search for FF D9
 720:Cam/Src/F7Cam_Driver.c **** 	                {
 721:Cam/Src/F7Cam_Driver.c ****                         	printf("\nfound footer\n");
 722:Cam/Src/F7Cam_Driver.c **** 	                        jpglen=i-jpgstart+2;
 723:Cam/Src/F7Cam_Driver.c **** 	                        found_jpeg_footer = 1;
 724:Cam/Src/F7Cam_Driver.c **** 	                }
 725:Cam/Src/F7Cam_Driver.c **** 	                if(((found_jpeg_footer == 1) && (cam_fb[i] == 0x00)) && (cam_fb[i+1]!=0XFF)&&(cam_
 726:Cam/Src/F7Cam_Driver.c **** 	                	padding_counter++;
 727:Cam/Src/F7Cam_Driver.c **** 	                }
 728:Cam/Src/F7Cam_Driver.c **** 
 729:Cam/Src/F7Cam_Driver.c **** 	        }
 730:Cam/Src/F7Cam_Driver.c **** 	        if(jpglen)
 731:Cam/Src/F7Cam_Driver.c **** 	        {
 732:Cam/Src/F7Cam_Driver.c **** 
 733:Cam/Src/F7Cam_Driver.c **** 	                printf("padding :  %d \r\n" , padding_counter);
 734:Cam/Src/F7Cam_Driver.c **** 	                //printf("jpgstart :  %d \r\n" , jpgstart);
 735:Cam/Src/F7Cam_Driver.c **** 	        }
 736:Cam/Src/F7Cam_Driver.c **** }
 737:Cam/Src/F7Cam_Driver.c **** 
 738:Cam/Src/F7Cam_Driver.c **** //============================================DCMI HAL Re-definitions =============================
 739:Cam/Src/F7Cam_Driver.c **** 
 740:Cam/Src/F7Cam_Driver.c **** HAL_StatusTypeDef HAL_DCMI_Start_DMA2(DCMI_HandleTypeDef *hdcmi, uint32_t DCMI_Mode, uint32_t pData
 741:Cam/Src/F7Cam_Driver.c **** {
 742:Cam/Src/F7Cam_Driver.c ****   // Convert Length to DMA data units
 743:Cam/Src/F7Cam_Driver.c ****   switch (hdcmi->DMA_Handle->Init.PeriphDataAlignment) {
 744:Cam/Src/F7Cam_Driver.c ****     case DMA_PDATAALIGN_BYTE:
 745:Cam/Src/F7Cam_Driver.c ****       break;
 746:Cam/Src/F7Cam_Driver.c ****     case DMA_PDATAALIGN_HALFWORD:
 747:Cam/Src/F7Cam_Driver.c ****       Length /= 2;
 748:Cam/Src/F7Cam_Driver.c ****       break;
 749:Cam/Src/F7Cam_Driver.c ****     case DMA_PDATAALIGN_WORD:
 750:Cam/Src/F7Cam_Driver.c ****       Length /= 4;
 751:Cam/Src/F7Cam_Driver.c ****       break;
 752:Cam/Src/F7Cam_Driver.c ****     default:
 753:Cam/Src/F7Cam_Driver.c ****       // @TODO: Error here?
 754:Cam/Src/F7Cam_Driver.c ****       break;
 755:Cam/Src/F7Cam_Driver.c ****   }
 756:Cam/Src/F7Cam_Driver.c **** 
 757:Cam/Src/F7Cam_Driver.c ****   /* Initialize the second memory address */
 758:Cam/Src/F7Cam_Driver.c ****   uint32_t SecondMemAddress = 0;
 759:Cam/Src/F7Cam_Driver.c **** 
 760:Cam/Src/F7Cam_Driver.c ****   /* Check function parameters */
 761:Cam/Src/F7Cam_Driver.c ****   assert_param(IS_DCMI_CAPTURE_MODE(DCMI_Mode));
 762:Cam/Src/F7Cam_Driver.c **** 
 763:Cam/Src/F7Cam_Driver.c ****   /* Process Locked */
 764:Cam/Src/F7Cam_Driver.c ****   __HAL_LOCK(hdcmi);
 765:Cam/Src/F7Cam_Driver.c **** 
 766:Cam/Src/F7Cam_Driver.c ****   /* Lock the DCMI peripheral state */
 767:Cam/Src/F7Cam_Driver.c ****   hdcmi->State = HAL_DCMI_STATE_BUSY;
 768:Cam/Src/F7Cam_Driver.c **** 
 769:Cam/Src/F7Cam_Driver.c ****   /* Enable DCMI by setting DCMIEN bit */
 770:Cam/Src/F7Cam_Driver.c ****   __HAL_DCMI_ENABLE(hdcmi);
 771:Cam/Src/F7Cam_Driver.c **** 
ARM GAS  /var/folders/fz/x0kldt2j7vs_j4slv3pyc44m0000gp/T//ccIn6myf.s 			page 15


 772:Cam/Src/F7Cam_Driver.c ****   /* Configure the DCMI Mode */
 773:Cam/Src/F7Cam_Driver.c ****   hdcmi->Instance->CR &= ~(DCMI_CR_CM);
 774:Cam/Src/F7Cam_Driver.c ****   hdcmi->Instance->CR |= (uint32_t)(DCMI_Mode);
 775:Cam/Src/F7Cam_Driver.c **** 
 776:Cam/Src/F7Cam_Driver.c ****   /* Set the DMA memory0 conversion complete callback */
 777:Cam/Src/F7Cam_Driver.c ****   hdcmi->DMA_Handle->XferCpltCallback = DCMI_DMA_TRANSFER_COMPLETE;
 778:Cam/Src/F7Cam_Driver.c **** 
 779:Cam/Src/F7Cam_Driver.c ****   /* Set the DMA error callback */
 780:Cam/Src/F7Cam_Driver.c ****   hdcmi->DMA_Handle->XferErrorCallback = DCMI_DMAError;
 781:Cam/Src/F7Cam_Driver.c **** 
 782:Cam/Src/F7Cam_Driver.c ****   /* Set the dma abort callback */
 783:Cam/Src/F7Cam_Driver.c ****   hdcmi->DMA_Handle->XferAbortCallback = NULL;
 784:Cam/Src/F7Cam_Driver.c **** 
 785:Cam/Src/F7Cam_Driver.c ****   /* Reset transfer counters value */
 786:Cam/Src/F7Cam_Driver.c ****   hdcmi->XferCount = 0;
 787:Cam/Src/F7Cam_Driver.c ****   hdcmi->XferTransferNumber = 0;
 788:Cam/Src/F7Cam_Driver.c ****   hdcmi->XferSize = 0;
 789:Cam/Src/F7Cam_Driver.c ****   hdcmi->pBuffPtr = 0;
 790:Cam/Src/F7Cam_Driver.c **** 
 791:Cam/Src/F7Cam_Driver.c ****   if (Length <= 0xFFFFU)
 792:Cam/Src/F7Cam_Driver.c ****   {
 793:Cam/Src/F7Cam_Driver.c ****     printf("\nSTARTED DMA STREAM SMALL\n");
 794:Cam/Src/F7Cam_Driver.c ****     /* Enable the DMA Stream */
 795:Cam/Src/F7Cam_Driver.c ****     hdcmi->DMA_Handle->XferHalfCpltCallback = DCMI_DMA_TRANSFER_HALF_COMPLETE;
 796:Cam/Src/F7Cam_Driver.c ****     if (HAL_DMA_Start_IT(hdcmi->DMA_Handle, (uint32_t)&hdcmi->Instance->DR, (uint32_t)pData, Length
 797:Cam/Src/F7Cam_Driver.c ****     {
 798:Cam/Src/F7Cam_Driver.c ****       return HAL_ERROR;
 799:Cam/Src/F7Cam_Driver.c ****     }
 800:Cam/Src/F7Cam_Driver.c ****   }
 801:Cam/Src/F7Cam_Driver.c ****   else /* DCMI_DOUBLE_BUFFER Mode */
 802:Cam/Src/F7Cam_Driver.c ****   {
 803:Cam/Src/F7Cam_Driver.c ****     /* Set the DMA memory1 conversion complete callback */
 804:Cam/Src/F7Cam_Driver.c ****     hdcmi->DMA_Handle->XferM1CpltCallback = DCMI_DMA_TRANSFER_COMPLETE;
 805:Cam/Src/F7Cam_Driver.c **** 
 806:Cam/Src/F7Cam_Driver.c ****     /* Initialize transfer parameters */
 807:Cam/Src/F7Cam_Driver.c ****     hdcmi->XferCount = 1;
 808:Cam/Src/F7Cam_Driver.c ****     hdcmi->XferSize = Length;
 809:Cam/Src/F7Cam_Driver.c ****     hdcmi->pBuffPtr = pData;
 810:Cam/Src/F7Cam_Driver.c **** 
 811:Cam/Src/F7Cam_Driver.c ****     /* Get the number of buffer */
 812:Cam/Src/F7Cam_Driver.c ****     while (hdcmi->XferSize > 0xFFFFU)
 813:Cam/Src/F7Cam_Driver.c ****     {
 814:Cam/Src/F7Cam_Driver.c ****       hdcmi->XferSize = (hdcmi->XferSize / 2U);
 815:Cam/Src/F7Cam_Driver.c ****       hdcmi->XferCount = hdcmi->XferCount * 2U;
 816:Cam/Src/F7Cam_Driver.c ****     }
 817:Cam/Src/F7Cam_Driver.c **** 
 818:Cam/Src/F7Cam_Driver.c ****     /* Update DCMI counter  and transfer number*/
 819:Cam/Src/F7Cam_Driver.c ****     hdcmi->XferCount = (hdcmi->XferCount - 2U);
 820:Cam/Src/F7Cam_Driver.c ****     hdcmi->XferTransferNumber = hdcmi->XferCount;
 821:Cam/Src/F7Cam_Driver.c **** 
 822:Cam/Src/F7Cam_Driver.c ****     /* Update second memory address */
 823:Cam/Src/F7Cam_Driver.c ****     SecondMemAddress = (uint32_t)(pData + (4 * hdcmi->XferSize));
 824:Cam/Src/F7Cam_Driver.c **** 
 825:Cam/Src/F7Cam_Driver.c ****     /* Start DMA multi buffer transfer */
 826:Cam/Src/F7Cam_Driver.c ****     if (HAL_DMAEx_MultiBufferStart_IT(hdcmi->DMA_Handle, (uint32_t)&hdcmi->Instance->DR, (uint32_t)
 827:Cam/Src/F7Cam_Driver.c ****     {
 828:Cam/Src/F7Cam_Driver.c ****       return HAL_ERROR;
ARM GAS  /var/folders/fz/x0kldt2j7vs_j4slv3pyc44m0000gp/T//ccIn6myf.s 			page 16


 829:Cam/Src/F7Cam_Driver.c ****     }
 830:Cam/Src/F7Cam_Driver.c ****   }
 831:Cam/Src/F7Cam_Driver.c **** 
 832:Cam/Src/F7Cam_Driver.c ****   /* Enable Capture */
 833:Cam/Src/F7Cam_Driver.c ****   hdcmi->Instance->CR |= DCMI_CR_CAPTURE;
 834:Cam/Src/F7Cam_Driver.c **** 
 835:Cam/Src/F7Cam_Driver.c ****   /* Release Lock */
 836:Cam/Src/F7Cam_Driver.c ****   __HAL_UNLOCK(hdcmi);
 837:Cam/Src/F7Cam_Driver.c **** 
 838:Cam/Src/F7Cam_Driver.c ****   /* Return function status */
 839:Cam/Src/F7Cam_Driver.c ****   return HAL_OK;
 840:Cam/Src/F7Cam_Driver.c **** }
 841:Cam/Src/F7Cam_Driver.c **** static void DCMI_DMAError(DMA_HandleTypeDef *hdma)
 842:Cam/Src/F7Cam_Driver.c **** {
  29              		.loc 1 842 1 view -0
  30              		.cfi_startproc
  31              		@ args = 0, pretend = 0, frame = 0
  32              		@ frame_needed = 0, uses_anonymous_args = 0
  33              		@ link register save eliminated.
 843:Cam/Src/F7Cam_Driver.c ****   DCMI_HandleTypeDef *hdcmi = (DCMI_HandleTypeDef *)((DMA_HandleTypeDef *)hdma)->Parent;
  34              		.loc 1 843 3 view .LVU1
  35              		.loc 1 843 23 is_stmt 0 view .LVU2
  36 0000 836B     		ldr	r3, [r0, #56]
  37              	.LVL1:
 844:Cam/Src/F7Cam_Driver.c **** 
 845:Cam/Src/F7Cam_Driver.c ****   if (hdcmi->DMA_Handle->ErrorCode != HAL_DMA_ERROR_FE)
  38              		.loc 1 845 3 is_stmt 1 view .LVU3
  39              		.loc 1 845 12 is_stmt 0 view .LVU4
  40 0002 9A6C     		ldr	r2, [r3, #72]
  41              		.loc 1 845 24 view .LVU5
  42 0004 526D     		ldr	r2, [r2, #84]
  43              		.loc 1 845 6 view .LVU6
  44 0006 022A     		cmp	r2, #2
  45 0008 06D0     		beq	.L1
 846:Cam/Src/F7Cam_Driver.c ****   {
 847:Cam/Src/F7Cam_Driver.c ****     /* Initialize the DCMI state*/
 848:Cam/Src/F7Cam_Driver.c ****     hdcmi->State = HAL_DCMI_STATE_READY;
  46              		.loc 1 848 5 is_stmt 1 view .LVU7
  47              		.loc 1 848 18 is_stmt 0 view .LVU8
  48 000a 0122     		movs	r2, #1
  49 000c 83F83520 		strb	r2, [r3, #53]
 849:Cam/Src/F7Cam_Driver.c **** 
 850:Cam/Src/F7Cam_Driver.c ****     /* Set DCMI Error Code */
 851:Cam/Src/F7Cam_Driver.c ****     hdcmi->ErrorCode |= HAL_DCMI_ERROR_DMA;
  50              		.loc 1 851 5 is_stmt 1 view .LVU9
  51              		.loc 1 851 10 is_stmt 0 view .LVU10
  52 0010 DA6C     		ldr	r2, [r3, #76]
  53              		.loc 1 851 22 view .LVU11
  54 0012 42F04002 		orr	r2, r2, #64
  55 0016 DA64     		str	r2, [r3, #76]
  56              	.L1:
 852:Cam/Src/F7Cam_Driver.c ****   }
 853:Cam/Src/F7Cam_Driver.c **** } 
  57              		.loc 1 853 1 view .LVU12
  58 0018 7047     		bx	lr
  59              		.cfi_endproc
  60              	.LFE167:
ARM GAS  /var/folders/fz/x0kldt2j7vs_j4slv3pyc44m0000gp/T//ccIn6myf.s 			page 17


  62              		.section	.text.DCMI_DMA_TRANSFER_HALF_COMPLETE,"ax",%progbits
  63              		.align	1
  64              		.global	DCMI_DMA_TRANSFER_HALF_COMPLETE
  65              		.syntax unified
  66              		.thumb
  67              		.thumb_func
  69              	DCMI_DMA_TRANSFER_HALF_COMPLETE:
  70              	.LVL2:
  71              	.LFB164:
 669:Cam/Src/F7Cam_Driver.c ****   //printf("\n Half transfer complete\n");
  72              		.loc 1 669 63 is_stmt 1 view -0
  73              		.cfi_startproc
  74              		@ args = 0, pretend = 0, frame = 8
  75              		@ frame_needed = 0, uses_anonymous_args = 0
 669:Cam/Src/F7Cam_Driver.c ****   //printf("\n Half transfer complete\n");
  76              		.loc 1 669 63 is_stmt 0 view .LVU14
  77 0000 00B5     		push	{lr}
  78              		.cfi_def_cfa_offset 4
  79              		.cfi_offset 14, -4
  80 0002 83B0     		sub	sp, sp, #12
  81              		.cfi_def_cfa_offset 16
 673:Cam/Src/F7Cam_Driver.c ****   half_data_ready_payload->data = cam_fb;
  82              		.loc 1 673 3 is_stmt 1 view .LVU15
 673:Cam/Src/F7Cam_Driver.c ****   half_data_ready_payload->data = cam_fb;
  83              		.loc 1 673 53 is_stmt 0 view .LVU16
  84 0004 0820     		movs	r0, #8
  85              	.LVL3:
 673:Cam/Src/F7Cam_Driver.c ****   half_data_ready_payload->data = cam_fb;
  86              		.loc 1 673 53 view .LVU17
  87 0006 FFF7FEFF 		bl	malloc
  88              	.LVL4:
 674:Cam/Src/F7Cam_Driver.c ****   half_data_ready_payload->size = (CAM_FB_SIZE / 2) + 2;
  89              		.loc 1 674 3 is_stmt 1 view .LVU18
 674:Cam/Src/F7Cam_Driver.c ****   half_data_ready_payload->size = (CAM_FB_SIZE / 2) + 2;
  90              		.loc 1 674 33 is_stmt 0 view .LVU19
  91 000a 064B     		ldr	r3, .L5
  92 000c 0360     		str	r3, [r0]
 675:Cam/Src/F7Cam_Driver.c **** 
  93              		.loc 1 675 3 is_stmt 1 view .LVU20
 675:Cam/Src/F7Cam_Driver.c **** 
  94              		.loc 1 675 33 is_stmt 0 view .LVU21
  95 000e 4CF60203 		movw	r3, #51202
  96 0012 4360     		str	r3, [r0, #4]
 677:Cam/Src/F7Cam_Driver.c ****     DCMIDataReady,
  97              		.loc 1 677 3 is_stmt 1 view .LVU22
 677:Cam/Src/F7Cam_Driver.c ****     DCMIDataReady,
  98              		.loc 1 677 9 is_stmt 0 view .LVU23
  99 0014 0123     		movs	r3, #1
 100 0016 8DF80030 		strb	r3, [sp]
 101 001a 0190     		str	r0, [sp, #4]
 689:Cam/Src/F7Cam_Driver.c **** 
 102              		.loc 1 689 1 view .LVU24
 103 001c 03B0     		add	sp, sp, #12
 104              		.cfi_def_cfa_offset 4
 105              		@ sp needed
 106 001e 5DF804FB 		ldr	pc, [sp], #4
 107              	.L6:
ARM GAS  /var/folders/fz/x0kldt2j7vs_j4slv3pyc44m0000gp/T//ccIn6myf.s 			page 18


 108 0022 00BF     		.align	2
 109              	.L5:
 110 0024 00000000 		.word	cam_fb
 111              		.cfi_endproc
 112              	.LFE164:
 114              		.section	.rodata.DCMI_DMA_TRANSFER_COMPLETE.str1.4,"aMS",%progbits,1
 115              		.align	2
 116              	.LC0:
 117 0000 2F6E454C 		.ascii	"/nELSE IF/n\000"
 117      53452049 
 117      462F6E00 
 118              		.section	.text.DCMI_DMA_TRANSFER_COMPLETE,"ax",%progbits
 119              		.align	1
 120              		.global	DCMI_DMA_TRANSFER_COMPLETE
 121              		.syntax unified
 122              		.thumb
 123              		.thumb_func
 125              	DCMI_DMA_TRANSFER_COMPLETE:
 126              	.LVL5:
 127              	.LFB163:
 592:Cam/Src/F7Cam_Driver.c ****   uint32_t tmp = 0;
 128              		.loc 1 592 1 is_stmt 1 view -0
 129              		.cfi_startproc
 130              		@ args = 0, pretend = 0, frame = 8
 131              		@ frame_needed = 0, uses_anonymous_args = 0
 592:Cam/Src/F7Cam_Driver.c ****   uint32_t tmp = 0;
 132              		.loc 1 592 1 is_stmt 0 view .LVU26
 133 0000 30B5     		push	{r4, r5, lr}
 134              		.cfi_def_cfa_offset 12
 135              		.cfi_offset 4, -12
 136              		.cfi_offset 5, -8
 137              		.cfi_offset 14, -4
 138 0002 83B0     		sub	sp, sp, #12
 139              		.cfi_def_cfa_offset 24
 593:Cam/Src/F7Cam_Driver.c **** 
 140              		.loc 1 593 3 is_stmt 1 view .LVU27
 141              	.LVL6:
 595:Cam/Src/F7Cam_Driver.c **** 
 142              		.loc 1 595 3 view .LVU28
 595:Cam/Src/F7Cam_Driver.c **** 
 143              		.loc 1 595 23 is_stmt 0 view .LVU29
 144 0004 846B     		ldr	r4, [r0, #56]
 145              	.LVL7:
 597:Cam/Src/F7Cam_Driver.c ****   {
 146              		.loc 1 597 3 is_stmt 1 view .LVU30
 597:Cam/Src/F7Cam_Driver.c ****   {
 147              		.loc 1 597 12 is_stmt 0 view .LVU31
 148 0006 A36B     		ldr	r3, [r4, #56]
 597:Cam/Src/F7Cam_Driver.c ****   {
 149              		.loc 1 597 6 view .LVU32
 150 0008 002B     		cmp	r3, #0
 151 000a 36D0     		beq	.L8
 600:Cam/Src/F7Cam_Driver.c ****     if (((hdcmi->XferCount % 2) == 0) && (tmp != 0))
 152              		.loc 1 600 5 is_stmt 1 view .LVU33
 600:Cam/Src/F7Cam_Driver.c ****     if (((hdcmi->XferCount % 2) == 0) && (tmp != 0))
 153              		.loc 1 600 18 is_stmt 0 view .LVU34
 154 000c A06C     		ldr	r0, [r4, #72]
ARM GAS  /var/folders/fz/x0kldt2j7vs_j4slv3pyc44m0000gp/T//ccIn6myf.s 			page 19


 155              	.LVL8:
 600:Cam/Src/F7Cam_Driver.c ****     if (((hdcmi->XferCount % 2) == 0) && (tmp != 0))
 156              		.loc 1 600 30 view .LVU35
 157 000e 0268     		ldr	r2, [r0]
 600:Cam/Src/F7Cam_Driver.c ****     if (((hdcmi->XferCount % 2) == 0) && (tmp != 0))
 158              		.loc 1 600 40 view .LVU36
 159 0010 1368     		ldr	r3, [r2]
 600:Cam/Src/F7Cam_Driver.c ****     if (((hdcmi->XferCount % 2) == 0) && (tmp != 0))
 160              		.loc 1 600 9 view .LVU37
 161 0012 03F40023 		and	r3, r3, #524288
 162              	.LVL9:
 601:Cam/Src/F7Cam_Driver.c ****     {
 163              		.loc 1 601 5 is_stmt 1 view .LVU38
 601:Cam/Src/F7Cam_Driver.c ****     {
 164              		.loc 1 601 16 is_stmt 0 view .LVU39
 165 0016 A16B     		ldr	r1, [r4, #56]
 601:Cam/Src/F7Cam_Driver.c ****     {
 166              		.loc 1 601 8 view .LVU40
 167 0018 11F0010F 		tst	r1, #1
 168 001c 00D1     		bne	.L9
 601:Cam/Src/F7Cam_Driver.c ****     {
 169              		.loc 1 601 39 discriminator 1 view .LVU41
 170 001e B3B9     		cbnz	r3, .L16
 171              	.L9:
 608:Cam/Src/F7Cam_Driver.c ****     {
 172              		.loc 1 608 10 is_stmt 1 view .LVU42
 608:Cam/Src/F7Cam_Driver.c ****     {
 173              		.loc 1 608 42 is_stmt 0 view .LVU43
 174 0020 1368     		ldr	r3, [r2]
 175              	.LVL10:
 608:Cam/Src/F7Cam_Driver.c ****     {
 176              		.loc 1 608 13 view .LVU44
 177 0022 13F4002F 		tst	r3, #524288
 178 0026 1DD0     		beq	.L17
 179              	.LVL11:
 180              	.L10:
 632:Cam/Src/F7Cam_Driver.c ****   {
 181              		.loc 1 632 3 is_stmt 1 view .LVU45
 632:Cam/Src/F7Cam_Driver.c ****   {
 182              		.loc 1 632 12 is_stmt 0 view .LVU46
 183 0028 A26B     		ldr	r2, [r4, #56]
 632:Cam/Src/F7Cam_Driver.c ****   {
 184              		.loc 1 632 32 view .LVU47
 185 002a 236C     		ldr	r3, [r4, #64]
 632:Cam/Src/F7Cam_Driver.c ****   {
 186              		.loc 1 632 6 view .LVU48
 187 002c 9A42     		cmp	r2, r3
 188 002e 39D0     		beq	.L18
 648:Cam/Src/F7Cam_Driver.c ****     DCMIDataReadyEventData *full_data_ready_payload = malloc(sizeof(DCMIDataReadyEventData));
 189              		.loc 1 648 10 is_stmt 1 view .LVU49
 648:Cam/Src/F7Cam_Driver.c ****     DCMIDataReadyEventData *full_data_ready_payload = malloc(sizeof(DCMIDataReadyEventData));
 190              		.loc 1 648 13 is_stmt 0 view .LVU50
 191 0030 1BB1     		cbz	r3, .L13
 648:Cam/Src/F7Cam_Driver.c ****     DCMIDataReadyEventData *full_data_ready_payload = malloc(sizeof(DCMIDataReadyEventData));
 192              		.loc 1 648 53 discriminator 1 view .LVU51
 193 0032 A26B     		ldr	r2, [r4, #56]
 648:Cam/Src/F7Cam_Driver.c ****     DCMIDataReadyEventData *full_data_ready_payload = malloc(sizeof(DCMIDataReadyEventData));
ARM GAS  /var/folders/fz/x0kldt2j7vs_j4slv3pyc44m0000gp/T//ccIn6myf.s 			page 20


 194              		.loc 1 648 45 discriminator 1 view .LVU52
 195 0034 B2EB530F 		cmp	r2, r3, lsr #1
 196 0038 46D0     		beq	.L19
 197              	.L13:
 663:Cam/Src/F7Cam_Driver.c ****   {
 198              		.loc 1 663 3 is_stmt 1 view .LVU53
 663:Cam/Src/F7Cam_Driver.c ****   {
 199              		.loc 1 663 13 is_stmt 0 view .LVU54
 200 003a 2368     		ldr	r3, [r4]
 663:Cam/Src/F7Cam_Driver.c ****   {
 201              		.loc 1 663 23 view .LVU55
 202 003c 1B68     		ldr	r3, [r3]
 663:Cam/Src/F7Cam_Driver.c ****   {
 203              		.loc 1 663 6 view .LVU56
 204 003e 13F0020F 		tst	r3, #2
 205 0042 02D0     		beq	.L7
 665:Cam/Src/F7Cam_Driver.c ****   }
 206              		.loc 1 665 5 is_stmt 1 view .LVU57
 665:Cam/Src/F7Cam_Driver.c ****   }
 207              		.loc 1 665 18 is_stmt 0 view .LVU58
 208 0044 0123     		movs	r3, #1
 209 0046 84F83530 		strb	r3, [r4, #53]
 210              	.L7:
 667:Cam/Src/F7Cam_Driver.c **** 
 211              		.loc 1 667 1 view .LVU59
 212 004a 03B0     		add	sp, sp, #12
 213              		.cfi_remember_state
 214              		.cfi_def_cfa_offset 12
 215              		@ sp needed
 216 004c 30BD     		pop	{r4, r5, pc}
 217              	.LVL12:
 218              	.L16:
 219              		.cfi_restore_state
 603:Cam/Src/F7Cam_Driver.c ****       HAL_DMAEx_ChangeMemory(hdcmi->DMA_Handle, (tmp + (8 * hdcmi->XferSize)), MEMORY0);
 220              		.loc 1 603 7 is_stmt 1 view .LVU60
 603:Cam/Src/F7Cam_Driver.c ****       HAL_DMAEx_ChangeMemory(hdcmi->DMA_Handle, (tmp + (8 * hdcmi->XferSize)), MEMORY0);
 221              		.loc 1 603 11 is_stmt 0 view .LVU61
 222 004e D368     		ldr	r3, [r2, #12]
 223              	.LVL13:
 604:Cam/Src/F7Cam_Driver.c ****       hdcmi->XferCount--;
 224              		.loc 1 604 7 is_stmt 1 view .LVU62
 604:Cam/Src/F7Cam_Driver.c ****       hdcmi->XferCount--;
 225              		.loc 1 604 66 is_stmt 0 view .LVU63
 226 0050 E16B     		ldr	r1, [r4, #60]
 604:Cam/Src/F7Cam_Driver.c ****       hdcmi->XferCount--;
 227              		.loc 1 604 7 view .LVU64
 228 0052 0022     		movs	r2, #0
 229 0054 03EBC101 		add	r1, r3, r1, lsl #3
 230 0058 FFF7FEFF 		bl	HAL_DMAEx_ChangeMemory
 231              	.LVL14:
 605:Cam/Src/F7Cam_Driver.c ****     }
 232              		.loc 1 605 7 is_stmt 1 view .LVU65
 605:Cam/Src/F7Cam_Driver.c ****     }
 233              		.loc 1 605 12 is_stmt 0 view .LVU66
 234 005c A36B     		ldr	r3, [r4, #56]
 605:Cam/Src/F7Cam_Driver.c ****     }
 235              		.loc 1 605 23 view .LVU67
ARM GAS  /var/folders/fz/x0kldt2j7vs_j4slv3pyc44m0000gp/T//ccIn6myf.s 			page 21


 236 005e 013B     		subs	r3, r3, #1
 237 0060 A363     		str	r3, [r4, #56]
 238 0062 E1E7     		b	.L10
 239              	.L17:
 610:Cam/Src/F7Cam_Driver.c ****       HAL_DMAEx_ChangeMemory(hdcmi->DMA_Handle, (tmp + (8 * hdcmi->XferSize)), MEMORY1);
 240              		.loc 1 610 7 is_stmt 1 view .LVU68
 610:Cam/Src/F7Cam_Driver.c ****       HAL_DMAEx_ChangeMemory(hdcmi->DMA_Handle, (tmp + (8 * hdcmi->XferSize)), MEMORY1);
 241              		.loc 1 610 11 is_stmt 0 view .LVU69
 242 0064 1369     		ldr	r3, [r2, #16]
 243              	.LVL15:
 611:Cam/Src/F7Cam_Driver.c ****       hdcmi->XferCount--;
 244              		.loc 1 611 7 is_stmt 1 view .LVU70
 611:Cam/Src/F7Cam_Driver.c ****       hdcmi->XferCount--;
 245              		.loc 1 611 66 is_stmt 0 view .LVU71
 246 0066 E16B     		ldr	r1, [r4, #60]
 611:Cam/Src/F7Cam_Driver.c ****       hdcmi->XferCount--;
 247              		.loc 1 611 7 view .LVU72
 248 0068 0122     		movs	r2, #1
 249 006a 03EBC101 		add	r1, r3, r1, lsl #3
 250 006e FFF7FEFF 		bl	HAL_DMAEx_ChangeMemory
 251              	.LVL16:
 612:Cam/Src/F7Cam_Driver.c ****     }
 252              		.loc 1 612 7 is_stmt 1 view .LVU73
 612:Cam/Src/F7Cam_Driver.c ****     }
 253              		.loc 1 612 12 is_stmt 0 view .LVU74
 254 0072 A36B     		ldr	r3, [r4, #56]
 612:Cam/Src/F7Cam_Driver.c ****     }
 255              		.loc 1 612 23 view .LVU75
 256 0074 013B     		subs	r3, r3, #1
 257 0076 A363     		str	r3, [r4, #56]
 258 0078 D6E7     		b	.L10
 259              	.LVL17:
 260              	.L8:
 616:Cam/Src/F7Cam_Driver.c ****   {
 261              		.loc 1 616 8 is_stmt 1 view .LVU76
 616:Cam/Src/F7Cam_Driver.c ****   {
 262              		.loc 1 616 18 is_stmt 0 view .LVU77
 263 007a A36C     		ldr	r3, [r4, #72]
 616:Cam/Src/F7Cam_Driver.c ****   {
 264              		.loc 1 616 30 view .LVU78
 265 007c 1B68     		ldr	r3, [r3]
 616:Cam/Src/F7Cam_Driver.c ****   {
 266              		.loc 1 616 40 view .LVU79
 267 007e 1A68     		ldr	r2, [r3]
 616:Cam/Src/F7Cam_Driver.c ****   {
 268              		.loc 1 616 11 view .LVU80
 269 0080 12F4002F 		tst	r2, #524288
 270 0084 02D0     		beq	.L11
 618:Cam/Src/F7Cam_Driver.c ****   }
 271              		.loc 1 618 5 is_stmt 1 view .LVU81
 618:Cam/Src/F7Cam_Driver.c ****   }
 272              		.loc 1 618 46 is_stmt 0 view .LVU82
 273 0086 626C     		ldr	r2, [r4, #68]
 618:Cam/Src/F7Cam_Driver.c ****   }
 274              		.loc 1 618 39 view .LVU83
 275 0088 DA60     		str	r2, [r3, #12]
 276 008a CDE7     		b	.L10
ARM GAS  /var/folders/fz/x0kldt2j7vs_j4slv3pyc44m0000gp/T//ccIn6myf.s 			page 22


 277              	.L11:
 621:Cam/Src/F7Cam_Driver.c ****   {
 278              		.loc 1 621 8 is_stmt 1 view .LVU84
 621:Cam/Src/F7Cam_Driver.c ****   {
 279              		.loc 1 621 40 is_stmt 0 view .LVU85
 280 008c 1A68     		ldr	r2, [r3]
 621:Cam/Src/F7Cam_Driver.c ****   {
 281              		.loc 1 621 11 view .LVU86
 282 008e 12F4002F 		tst	r2, #524288
 283 0092 C9D1     		bne	.L10
 623:Cam/Src/F7Cam_Driver.c ****     hdcmi->DMA_Handle->Instance->M1AR = (tmp + (4 * hdcmi->XferSize));
 284              		.loc 1 623 5 is_stmt 1 view .LVU87
 623:Cam/Src/F7Cam_Driver.c ****     hdcmi->DMA_Handle->Instance->M1AR = (tmp + (4 * hdcmi->XferSize));
 285              		.loc 1 623 9 is_stmt 0 view .LVU88
 286 0094 626C     		ldr	r2, [r4, #68]
 287              	.LVL18:
 624:Cam/Src/F7Cam_Driver.c ****     hdcmi->XferCount = hdcmi->XferTransferNumber;
 288              		.loc 1 624 5 is_stmt 1 view .LVU89
 624:Cam/Src/F7Cam_Driver.c ****     hdcmi->XferCount = hdcmi->XferTransferNumber;
 289              		.loc 1 624 58 is_stmt 0 view .LVU90
 290 0096 E16B     		ldr	r1, [r4, #60]
 624:Cam/Src/F7Cam_Driver.c ****     hdcmi->XferCount = hdcmi->XferTransferNumber;
 291              		.loc 1 624 46 view .LVU91
 292 0098 02EB8102 		add	r2, r2, r1, lsl #2
 293              	.LVL19:
 624:Cam/Src/F7Cam_Driver.c ****     hdcmi->XferCount = hdcmi->XferTransferNumber;
 294              		.loc 1 624 39 view .LVU92
 295 009c 1A61     		str	r2, [r3, #16]
 296              	.LVL20:
 625:Cam/Src/F7Cam_Driver.c ****   }
 297              		.loc 1 625 5 is_stmt 1 view .LVU93
 625:Cam/Src/F7Cam_Driver.c ****   }
 298              		.loc 1 625 29 is_stmt 0 view .LVU94
 299 009e 236C     		ldr	r3, [r4, #64]
 625:Cam/Src/F7Cam_Driver.c ****   }
 300              		.loc 1 625 22 view .LVU95
 301 00a0 A363     		str	r3, [r4, #56]
 302 00a2 C1E7     		b	.L10
 303              	.LVL21:
 304              	.L18:
 305              	.LBB2:
 634:Cam/Src/F7Cam_Driver.c **** 
 306              		.loc 1 634 5 is_stmt 1 view .LVU96
 307 00a4 2268     		ldr	r2, [r4]
 308 00a6 D368     		ldr	r3, [r2, #12]
 309 00a8 43F00103 		orr	r3, r3, #1
 310 00ac D360     		str	r3, [r2, #12]
 636:Cam/Src/F7Cam_Driver.c ****     full_data_ready_payload->data = cam_fb + (CAM_FB_SIZE / 2) + 10;
 311              		.loc 1 636 5 view .LVU97
 636:Cam/Src/F7Cam_Driver.c ****     full_data_ready_payload->data = cam_fb + (CAM_FB_SIZE / 2) + 10;
 312              		.loc 1 636 55 is_stmt 0 view .LVU98
 313 00ae 0820     		movs	r0, #8
 314 00b0 FFF7FEFF 		bl	malloc
 315              	.LVL22:
 637:Cam/Src/F7Cam_Driver.c ****     full_data_ready_payload->size = (CAM_FB_SIZE / 2) - 2;
 316              		.loc 1 637 5 is_stmt 1 view .LVU99
 637:Cam/Src/F7Cam_Driver.c ****     full_data_ready_payload->size = (CAM_FB_SIZE / 2) - 2;
ARM GAS  /var/folders/fz/x0kldt2j7vs_j4slv3pyc44m0000gp/T//ccIn6myf.s 			page 23


 317              		.loc 1 637 35 is_stmt 0 view .LVU100
 318 00b4 0D4B     		ldr	r3, .L20
 319 00b6 0360     		str	r3, [r0]
 638:Cam/Src/F7Cam_Driver.c **** 
 320              		.loc 1 638 5 is_stmt 1 view .LVU101
 638:Cam/Src/F7Cam_Driver.c **** 
 321              		.loc 1 638 35 is_stmt 0 view .LVU102
 322 00b8 4CF2FE73 		movw	r3, #51198
 323 00bc 4360     		str	r3, [r0, #4]
 640:Cam/Src/F7Cam_Driver.c ****       DCMIDataReady,
 324              		.loc 1 640 5 is_stmt 1 view .LVU103
 640:Cam/Src/F7Cam_Driver.c ****       DCMIDataReady,
 325              		.loc 1 640 11 is_stmt 0 view .LVU104
 326 00be 0123     		movs	r3, #1
 327 00c0 8DF80030 		strb	r3, [sp]
 328 00c4 0190     		str	r0, [sp, #4]
 329              	.LBE2:
 330 00c6 B8E7     		b	.L13
 331              	.LVL23:
 332              	.L19:
 333              	.LBB3:
 649:Cam/Src/F7Cam_Driver.c ****     full_data_ready_payload->data = cam_fb;
 334              		.loc 1 649 5 is_stmt 1 view .LVU105
 649:Cam/Src/F7Cam_Driver.c ****     full_data_ready_payload->data = cam_fb;
 335              		.loc 1 649 55 is_stmt 0 view .LVU106
 336 00c8 0820     		movs	r0, #8
 337 00ca FFF7FEFF 		bl	malloc
 338              	.LVL24:
 339 00ce 0546     		mov	r5, r0
 340              	.LVL25:
 650:Cam/Src/F7Cam_Driver.c ****     full_data_ready_payload->size = (CAM_FB_SIZE / 2) -2;
 341              		.loc 1 650 5 is_stmt 1 view .LVU107
 650:Cam/Src/F7Cam_Driver.c ****     full_data_ready_payload->size = (CAM_FB_SIZE / 2) -2;
 342              		.loc 1 650 35 is_stmt 0 view .LVU108
 343 00d0 074B     		ldr	r3, .L20+4
 344 00d2 0360     		str	r3, [r0]
 651:Cam/Src/F7Cam_Driver.c ****     printf("/nELSE IF/n");
 345              		.loc 1 651 5 is_stmt 1 view .LVU109
 651:Cam/Src/F7Cam_Driver.c ****     printf("/nELSE IF/n");
 346              		.loc 1 651 35 is_stmt 0 view .LVU110
 347 00d4 4CF2FE73 		movw	r3, #51198
 348 00d8 4360     		str	r3, [r0, #4]
 652:Cam/Src/F7Cam_Driver.c **** 
 349              		.loc 1 652 5 is_stmt 1 view .LVU111
 350 00da 0648     		ldr	r0, .L20+8
 351              	.LVL26:
 652:Cam/Src/F7Cam_Driver.c **** 
 352              		.loc 1 652 5 is_stmt 0 view .LVU112
 353 00dc FFF7FEFF 		bl	printf
 354              	.LVL27:
 654:Cam/Src/F7Cam_Driver.c ****       DCMIDataReady,
 355              		.loc 1 654 5 is_stmt 1 view .LVU113
 654:Cam/Src/F7Cam_Driver.c ****       DCMIDataReady,
 356              		.loc 1 654 11 is_stmt 0 view .LVU114
 357 00e0 0123     		movs	r3, #1
 358 00e2 8DF80030 		strb	r3, [sp]
 359 00e6 0195     		str	r5, [sp, #4]
ARM GAS  /var/folders/fz/x0kldt2j7vs_j4slv3pyc44m0000gp/T//ccIn6myf.s 			page 24


 360 00e8 A7E7     		b	.L13
 361              	.L21:
 362 00ea 00BF     		.align	2
 363              	.L20:
 364 00ec 0AC80000 		.word	cam_fb+51210
 365 00f0 00000000 		.word	cam_fb
 366 00f4 00000000 		.word	.LC0
 367              	.LBE3:
 368              		.cfi_endproc
 369              	.LFE163:
 371              		.section	.text.BSP_CAMERA_Suspend,"ax",%progbits
 372              		.align	1
 373              		.global	BSP_CAMERA_Suspend
 374              		.syntax unified
 375              		.thumb
 376              		.thumb_func
 378              	BSP_CAMERA_Suspend:
 379              	.LFB147:
 180:Cam/Src/F7Cam_Driver.c ****   /* Suspend the Camera Capture */
 380              		.loc 1 180 1 is_stmt 1 view -0
 381              		.cfi_startproc
 382              		@ args = 0, pretend = 0, frame = 0
 383              		@ frame_needed = 0, uses_anonymous_args = 0
 384 0000 08B5     		push	{r3, lr}
 385              		.cfi_def_cfa_offset 8
 386              		.cfi_offset 3, -8
 387              		.cfi_offset 14, -4
 182:Cam/Src/F7Cam_Driver.c **** }
 388              		.loc 1 182 3 view .LVU116
 389 0002 0248     		ldr	r0, .L24
 390 0004 FFF7FEFF 		bl	HAL_DCMI_Suspend
 391              	.LVL28:
 183:Cam/Src/F7Cam_Driver.c **** 
 392              		.loc 1 183 1 is_stmt 0 view .LVU117
 393 0008 08BD     		pop	{r3, pc}
 394              	.L25:
 395 000a 00BF     		.align	2
 396              	.L24:
 397 000c 00000000 		.word	hDcmiHandler
 398              		.cfi_endproc
 399              	.LFE147:
 401              		.section	.text.BSP_CAMERA_Resume,"ax",%progbits
 402              		.align	1
 403              		.global	BSP_CAMERA_Resume
 404              		.syntax unified
 405              		.thumb
 406              		.thumb_func
 408              	BSP_CAMERA_Resume:
 409              	.LFB148:
 187:Cam/Src/F7Cam_Driver.c ****   /* Start the Camera Capture */
 410              		.loc 1 187 1 is_stmt 1 view -0
 411              		.cfi_startproc
 412              		@ args = 0, pretend = 0, frame = 0
 413              		@ frame_needed = 0, uses_anonymous_args = 0
 414 0000 08B5     		push	{r3, lr}
 415              		.cfi_def_cfa_offset 8
 416              		.cfi_offset 3, -8
ARM GAS  /var/folders/fz/x0kldt2j7vs_j4slv3pyc44m0000gp/T//ccIn6myf.s 			page 25


 417              		.cfi_offset 14, -4
 189:Cam/Src/F7Cam_Driver.c **** }
 418              		.loc 1 189 3 view .LVU119
 419 0002 0248     		ldr	r0, .L28
 420 0004 FFF7FEFF 		bl	HAL_DCMI_Resume
 421              	.LVL29:
 190:Cam/Src/F7Cam_Driver.c **** 
 422              		.loc 1 190 1 is_stmt 0 view .LVU120
 423 0008 08BD     		pop	{r3, pc}
 424              	.L29:
 425 000a 00BF     		.align	2
 426              	.L28:
 427 000c 00000000 		.word	hDcmiHandler
 428              		.cfi_endproc
 429              	.LFE148:
 431              		.section	.text.BSP_CAMERA_PwrUp,"ax",%progbits
 432              		.align	1
 433              		.global	BSP_CAMERA_PwrUp
 434              		.syntax unified
 435              		.thumb
 436              		.thumb_func
 438              	BSP_CAMERA_PwrUp:
 439              	.LFB150:
 210:Cam/Src/F7Cam_Driver.c ****   GPIO_InitTypeDef gpio_init_structure;
 440              		.loc 1 210 1 is_stmt 1 view -0
 441              		.cfi_startproc
 442              		@ args = 0, pretend = 0, frame = 24
 443              		@ frame_needed = 0, uses_anonymous_args = 0
 444 0000 F0B5     		push	{r4, r5, r6, r7, lr}
 445              		.cfi_def_cfa_offset 20
 446              		.cfi_offset 4, -20
 447              		.cfi_offset 5, -16
 448              		.cfi_offset 6, -12
 449              		.cfi_offset 7, -8
 450              		.cfi_offset 14, -4
 451 0002 87B0     		sub	sp, sp, #28
 452              		.cfi_def_cfa_offset 48
 211:Cam/Src/F7Cam_Driver.c **** 
 453              		.loc 1 211 3 view .LVU122
 214:Cam/Src/F7Cam_Driver.c **** 
 454              		.loc 1 214 3 view .LVU123
 455              	.LBB4:
 214:Cam/Src/F7Cam_Driver.c **** 
 456              		.loc 1 214 3 view .LVU124
 214:Cam/Src/F7Cam_Driver.c **** 
 457              		.loc 1 214 3 view .LVU125
 458 0004 104B     		ldr	r3, .L32
 459 0006 1A6B     		ldr	r2, [r3, #48]
 460 0008 42F08002 		orr	r2, r2, #128
 461 000c 1A63     		str	r2, [r3, #48]
 214:Cam/Src/F7Cam_Driver.c **** 
 462              		.loc 1 214 3 view .LVU126
 463 000e 1B6B     		ldr	r3, [r3, #48]
 464 0010 03F08003 		and	r3, r3, #128
 465 0014 0093     		str	r3, [sp]
 214:Cam/Src/F7Cam_Driver.c **** 
 466              		.loc 1 214 3 view .LVU127
ARM GAS  /var/folders/fz/x0kldt2j7vs_j4slv3pyc44m0000gp/T//ccIn6myf.s 			page 26


 467 0016 009B     		ldr	r3, [sp]
 468              	.LBE4:
 214:Cam/Src/F7Cam_Driver.c **** 
 469              		.loc 1 214 3 view .LVU128
 218:Cam/Src/F7Cam_Driver.c ****   gpio_init_structure.Mode      = GPIO_MODE_OUTPUT_PP;
 470              		.loc 1 218 3 view .LVU129
 218:Cam/Src/F7Cam_Driver.c ****   gpio_init_structure.Mode      = GPIO_MODE_OUTPUT_PP;
 471              		.loc 1 218 33 is_stmt 0 view .LVU130
 472 0018 4FF40056 		mov	r6, #8192
 473 001c 0196     		str	r6, [sp, #4]
 219:Cam/Src/F7Cam_Driver.c ****   gpio_init_structure.Pull      = GPIO_NOPULL;
 474              		.loc 1 219 3 is_stmt 1 view .LVU131
 219:Cam/Src/F7Cam_Driver.c ****   gpio_init_structure.Pull      = GPIO_NOPULL;
 475              		.loc 1 219 33 is_stmt 0 view .LVU132
 476 001e 0123     		movs	r3, #1
 477 0020 0293     		str	r3, [sp, #8]
 220:Cam/Src/F7Cam_Driver.c ****   gpio_init_structure.Speed     = GPIO_SPEED_HIGH;
 478              		.loc 1 220 3 is_stmt 1 view .LVU133
 220:Cam/Src/F7Cam_Driver.c ****   gpio_init_structure.Speed     = GPIO_SPEED_HIGH;
 479              		.loc 1 220 33 is_stmt 0 view .LVU134
 480 0022 0027     		movs	r7, #0
 481 0024 0397     		str	r7, [sp, #12]
 221:Cam/Src/F7Cam_Driver.c ****   HAL_GPIO_Init(GPIOH, &gpio_init_structure);
 482              		.loc 1 221 3 is_stmt 1 view .LVU135
 221:Cam/Src/F7Cam_Driver.c ****   HAL_GPIO_Init(GPIOH, &gpio_init_structure);
 483              		.loc 1 221 33 is_stmt 0 view .LVU136
 484 0026 0324     		movs	r4, #3
 485 0028 0494     		str	r4, [sp, #16]
 222:Cam/Src/F7Cam_Driver.c **** 
 486              		.loc 1 222 3 is_stmt 1 view .LVU137
 487 002a 084D     		ldr	r5, .L32+4
 488 002c 01A9     		add	r1, sp, #4
 489 002e 2846     		mov	r0, r5
 490 0030 FFF7FEFF 		bl	HAL_GPIO_Init
 491              	.LVL30:
 225:Cam/Src/F7Cam_Driver.c **** 
 492              		.loc 1 225 3 view .LVU138
 493 0034 3A46     		mov	r2, r7
 494 0036 3146     		mov	r1, r6
 495 0038 2846     		mov	r0, r5
 496 003a FFF7FEFF 		bl	HAL_GPIO_WritePin
 497              	.LVL31:
 227:Cam/Src/F7Cam_Driver.c **** }
 498              		.loc 1 227 3 view .LVU139
 499 003e 2046     		mov	r0, r4
 500 0040 FFF7FEFF 		bl	HAL_Delay
 501              	.LVL32:
 228:Cam/Src/F7Cam_Driver.c **** 
 502              		.loc 1 228 1 is_stmt 0 view .LVU140
 503 0044 07B0     		add	sp, sp, #28
 504              		.cfi_def_cfa_offset 20
 505              		@ sp needed
 506 0046 F0BD     		pop	{r4, r5, r6, r7, pc}
 507              	.L33:
 508              		.align	2
 509              	.L32:
 510 0048 00380240 		.word	1073887232
ARM GAS  /var/folders/fz/x0kldt2j7vs_j4slv3pyc44m0000gp/T//ccIn6myf.s 			page 27


 511 004c 001C0240 		.word	1073880064
 512              		.cfi_endproc
 513              	.LFE150:
 515              		.section	.text.BSP_CAMERA_PwrDown,"ax",%progbits
 516              		.align	1
 517              		.global	BSP_CAMERA_PwrDown
 518              		.syntax unified
 519              		.thumb
 520              		.thumb_func
 522              	BSP_CAMERA_PwrDown:
 523              	.LFB151:
 232:Cam/Src/F7Cam_Driver.c ****   GPIO_InitTypeDef gpio_init_structure;
 524              		.loc 1 232 1 is_stmt 1 view -0
 525              		.cfi_startproc
 526              		@ args = 0, pretend = 0, frame = 24
 527              		@ frame_needed = 0, uses_anonymous_args = 0
 528 0000 70B5     		push	{r4, r5, r6, lr}
 529              		.cfi_def_cfa_offset 16
 530              		.cfi_offset 4, -16
 531              		.cfi_offset 5, -12
 532              		.cfi_offset 6, -8
 533              		.cfi_offset 14, -4
 534 0002 86B0     		sub	sp, sp, #24
 535              		.cfi_def_cfa_offset 40
 233:Cam/Src/F7Cam_Driver.c **** 
 536              		.loc 1 233 3 view .LVU142
 236:Cam/Src/F7Cam_Driver.c **** 
 537              		.loc 1 236 3 view .LVU143
 538              	.LBB5:
 236:Cam/Src/F7Cam_Driver.c **** 
 539              		.loc 1 236 3 view .LVU144
 236:Cam/Src/F7Cam_Driver.c **** 
 540              		.loc 1 236 3 view .LVU145
 541 0004 0F4B     		ldr	r3, .L36
 542 0006 1A6B     		ldr	r2, [r3, #48]
 543 0008 42F08002 		orr	r2, r2, #128
 544 000c 1A63     		str	r2, [r3, #48]
 236:Cam/Src/F7Cam_Driver.c **** 
 545              		.loc 1 236 3 view .LVU146
 546 000e 1B6B     		ldr	r3, [r3, #48]
 547 0010 03F08003 		and	r3, r3, #128
 548 0014 0093     		str	r3, [sp]
 236:Cam/Src/F7Cam_Driver.c **** 
 549              		.loc 1 236 3 view .LVU147
 550 0016 009B     		ldr	r3, [sp]
 551              	.LBE5:
 236:Cam/Src/F7Cam_Driver.c **** 
 552              		.loc 1 236 3 view .LVU148
 240:Cam/Src/F7Cam_Driver.c ****   gpio_init_structure.Mode      = GPIO_MODE_OUTPUT_PP;
 553              		.loc 1 240 3 view .LVU149
 240:Cam/Src/F7Cam_Driver.c ****   gpio_init_structure.Mode      = GPIO_MODE_OUTPUT_PP;
 554              		.loc 1 240 33 is_stmt 0 view .LVU150
 555 0018 4FF40055 		mov	r5, #8192
 556 001c 0195     		str	r5, [sp, #4]
 241:Cam/Src/F7Cam_Driver.c ****   gpio_init_structure.Pull      = GPIO_NOPULL;
 557              		.loc 1 241 3 is_stmt 1 view .LVU151
 241:Cam/Src/F7Cam_Driver.c ****   gpio_init_structure.Pull      = GPIO_NOPULL;
ARM GAS  /var/folders/fz/x0kldt2j7vs_j4slv3pyc44m0000gp/T//ccIn6myf.s 			page 28


 558              		.loc 1 241 33 is_stmt 0 view .LVU152
 559 001e 0126     		movs	r6, #1
 560 0020 0296     		str	r6, [sp, #8]
 242:Cam/Src/F7Cam_Driver.c ****   gpio_init_structure.Speed     = GPIO_SPEED_HIGH;
 561              		.loc 1 242 3 is_stmt 1 view .LVU153
 242:Cam/Src/F7Cam_Driver.c ****   gpio_init_structure.Speed     = GPIO_SPEED_HIGH;
 562              		.loc 1 242 33 is_stmt 0 view .LVU154
 563 0022 0023     		movs	r3, #0
 564 0024 0393     		str	r3, [sp, #12]
 243:Cam/Src/F7Cam_Driver.c ****   HAL_GPIO_Init(GPIOH, &gpio_init_structure);
 565              		.loc 1 243 3 is_stmt 1 view .LVU155
 243:Cam/Src/F7Cam_Driver.c ****   HAL_GPIO_Init(GPIOH, &gpio_init_structure);
 566              		.loc 1 243 33 is_stmt 0 view .LVU156
 567 0026 0323     		movs	r3, #3
 568 0028 0493     		str	r3, [sp, #16]
 244:Cam/Src/F7Cam_Driver.c **** 
 569              		.loc 1 244 3 is_stmt 1 view .LVU157
 570 002a 074C     		ldr	r4, .L36+4
 571 002c 01A9     		add	r1, sp, #4
 572 002e 2046     		mov	r0, r4
 573 0030 FFF7FEFF 		bl	HAL_GPIO_Init
 574              	.LVL33:
 247:Cam/Src/F7Cam_Driver.c **** 
 575              		.loc 1 247 3 view .LVU158
 576 0034 3246     		mov	r2, r6
 577 0036 2946     		mov	r1, r5
 578 0038 2046     		mov	r0, r4
 579 003a FFF7FEFF 		bl	HAL_GPIO_WritePin
 580              	.LVL34:
 249:Cam/Src/F7Cam_Driver.c **** 
 581              		.loc 1 249 1 is_stmt 0 view .LVU159
 582 003e 06B0     		add	sp, sp, #24
 583              		.cfi_def_cfa_offset 16
 584              		@ sp needed
 585 0040 70BD     		pop	{r4, r5, r6, pc}
 586              	.L37:
 587 0042 00BF     		.align	2
 588              	.L36:
 589 0044 00380240 		.word	1073887232
 590 0048 001C0240 		.word	1073880064
 591              		.cfi_endproc
 592              	.LFE151:
 594              		.section	.text.BSP_CAMERA_Stop,"ax",%progbits
 595              		.align	1
 596              		.global	BSP_CAMERA_Stop
 597              		.syntax unified
 598              		.thumb
 599              		.thumb_func
 601              	BSP_CAMERA_Stop:
 602              	.LFB149:
 194:Cam/Src/F7Cam_Driver.c ****   uint8_t status = CAMERA_ERROR;
 603              		.loc 1 194 1 is_stmt 1 view -0
 604              		.cfi_startproc
 605              		@ args = 0, pretend = 0, frame = 0
 606              		@ frame_needed = 0, uses_anonymous_args = 0
 607 0000 10B5     		push	{r4, lr}
 608              		.cfi_def_cfa_offset 8
ARM GAS  /var/folders/fz/x0kldt2j7vs_j4slv3pyc44m0000gp/T//ccIn6myf.s 			page 29


 609              		.cfi_offset 4, -8
 610              		.cfi_offset 14, -4
 195:Cam/Src/F7Cam_Driver.c **** 
 611              		.loc 1 195 3 view .LVU161
 612              	.LVL35:
 197:Cam/Src/F7Cam_Driver.c ****   {
 613              		.loc 1 197 3 view .LVU162
 197:Cam/Src/F7Cam_Driver.c ****   {
 614              		.loc 1 197 6 is_stmt 0 view .LVU163
 615 0002 0548     		ldr	r0, .L41
 616 0004 FFF7FEFF 		bl	HAL_DCMI_Stop
 617              	.LVL36:
 197:Cam/Src/F7Cam_Driver.c ****   {
 618              		.loc 1 197 5 view .LVU164
 619 0008 0446     		mov	r4, r0
 620 000a 00B1     		cbz	r0, .L39
 195:Cam/Src/F7Cam_Driver.c **** 
 621              		.loc 1 195 11 view .LVU165
 622 000c 0124     		movs	r4, #1
 623              	.L39:
 624              	.LVL37:
 203:Cam/Src/F7Cam_Driver.c **** 
 625              		.loc 1 203 3 is_stmt 1 view .LVU166
 626 000e FFF7FEFF 		bl	BSP_CAMERA_PwrDown
 627              	.LVL38:
 205:Cam/Src/F7Cam_Driver.c **** }
 628              		.loc 1 205 3 view .LVU167
 206:Cam/Src/F7Cam_Driver.c **** 
 629              		.loc 1 206 1 is_stmt 0 view .LVU168
 630 0012 2046     		mov	r0, r4
 631 0014 10BD     		pop	{r4, pc}
 632              	.LVL39:
 633              	.L42:
 206:Cam/Src/F7Cam_Driver.c **** 
 634              		.loc 1 206 1 view .LVU169
 635 0016 00BF     		.align	2
 636              	.L41:
 637 0018 00000000 		.word	hDcmiHandler
 638              		.cfi_endproc
 639              	.LFE149:
 641              		.section	.text.BSP_CAMERA_MspInit,"ax",%progbits
 642              		.align	1
 643              		.weak	BSP_CAMERA_MspInit
 644              		.syntax unified
 645              		.thumb
 646              		.thumb_func
 648              	BSP_CAMERA_MspInit:
 649              	.LVL40:
 650              	.LFB152:
 253:Cam/Src/F7Cam_Driver.c ****   static DMA_HandleTypeDef hdma_handler;
 651              		.loc 1 253 1 is_stmt 1 view -0
 652              		.cfi_startproc
 653              		@ args = 0, pretend = 0, frame = 48
 654              		@ frame_needed = 0, uses_anonymous_args = 0
 253:Cam/Src/F7Cam_Driver.c ****   static DMA_HandleTypeDef hdma_handler;
 655              		.loc 1 253 1 is_stmt 0 view .LVU171
 656 0000 2DE9F041 		push	{r4, r5, r6, r7, r8, lr}
ARM GAS  /var/folders/fz/x0kldt2j7vs_j4slv3pyc44m0000gp/T//ccIn6myf.s 			page 30


 657              		.cfi_def_cfa_offset 24
 658              		.cfi_offset 4, -24
 659              		.cfi_offset 5, -20
 660              		.cfi_offset 6, -16
 661              		.cfi_offset 7, -12
 662              		.cfi_offset 8, -8
 663              		.cfi_offset 14, -4
 664 0004 8CB0     		sub	sp, sp, #48
 665              		.cfi_def_cfa_offset 72
 666 0006 0546     		mov	r5, r0
 254:Cam/Src/F7Cam_Driver.c ****   GPIO_InitTypeDef gpio_init_structure;
 667              		.loc 1 254 3 is_stmt 1 view .LVU172
 255:Cam/Src/F7Cam_Driver.c ****   
 668              		.loc 1 255 3 view .LVU173
 259:Cam/Src/F7Cam_Driver.c **** 
 669              		.loc 1 259 3 view .LVU174
 670              	.LBB6:
 259:Cam/Src/F7Cam_Driver.c **** 
 671              		.loc 1 259 3 view .LVU175
 259:Cam/Src/F7Cam_Driver.c **** 
 672              		.loc 1 259 3 view .LVU176
 673 0008 5A4B     		ldr	r3, .L45
 674 000a 5A6B     		ldr	r2, [r3, #52]
 675 000c 42F00102 		orr	r2, r2, #1
 676 0010 5A63     		str	r2, [r3, #52]
 259:Cam/Src/F7Cam_Driver.c **** 
 677              		.loc 1 259 3 view .LVU177
 678 0012 5A6B     		ldr	r2, [r3, #52]
 679 0014 02F00102 		and	r2, r2, #1
 680 0018 0092     		str	r2, [sp]
 259:Cam/Src/F7Cam_Driver.c **** 
 681              		.loc 1 259 3 view .LVU178
 682 001a 009A     		ldr	r2, [sp]
 683              	.LBE6:
 259:Cam/Src/F7Cam_Driver.c **** 
 684              		.loc 1 259 3 view .LVU179
 262:Cam/Src/F7Cam_Driver.c ****   
 685              		.loc 1 262 3 view .LVU180
 686              	.LBB7:
 262:Cam/Src/F7Cam_Driver.c ****   
 687              		.loc 1 262 3 view .LVU181
 262:Cam/Src/F7Cam_Driver.c ****   
 688              		.loc 1 262 3 view .LVU182
 689 001c 1A6B     		ldr	r2, [r3, #48]
 690 001e 42F48002 		orr	r2, r2, #4194304
 691 0022 1A63     		str	r2, [r3, #48]
 262:Cam/Src/F7Cam_Driver.c ****   
 692              		.loc 1 262 3 view .LVU183
 693 0024 1A6B     		ldr	r2, [r3, #48]
 694 0026 02F48002 		and	r2, r2, #4194304
 695 002a 0192     		str	r2, [sp, #4]
 262:Cam/Src/F7Cam_Driver.c ****   
 696              		.loc 1 262 3 view .LVU184
 697 002c 019A     		ldr	r2, [sp, #4]
 698              	.LBE7:
 262:Cam/Src/F7Cam_Driver.c ****   
 699              		.loc 1 262 3 view .LVU185
ARM GAS  /var/folders/fz/x0kldt2j7vs_j4slv3pyc44m0000gp/T//ccIn6myf.s 			page 31


 265:Cam/Src/F7Cam_Driver.c ****   __HAL_RCC_GPIOD_CLK_ENABLE();
 700              		.loc 1 265 3 view .LVU186
 701              	.LBB8:
 265:Cam/Src/F7Cam_Driver.c ****   __HAL_RCC_GPIOD_CLK_ENABLE();
 702              		.loc 1 265 3 view .LVU187
 265:Cam/Src/F7Cam_Driver.c ****   __HAL_RCC_GPIOD_CLK_ENABLE();
 703              		.loc 1 265 3 view .LVU188
 704 002e 1A6B     		ldr	r2, [r3, #48]
 705 0030 42F00102 		orr	r2, r2, #1
 706 0034 1A63     		str	r2, [r3, #48]
 265:Cam/Src/F7Cam_Driver.c ****   __HAL_RCC_GPIOD_CLK_ENABLE();
 707              		.loc 1 265 3 view .LVU189
 708 0036 1A6B     		ldr	r2, [r3, #48]
 709 0038 02F00102 		and	r2, r2, #1
 710 003c 0292     		str	r2, [sp, #8]
 265:Cam/Src/F7Cam_Driver.c ****   __HAL_RCC_GPIOD_CLK_ENABLE();
 711              		.loc 1 265 3 view .LVU190
 712 003e 029A     		ldr	r2, [sp, #8]
 713              	.LBE8:
 265:Cam/Src/F7Cam_Driver.c ****   __HAL_RCC_GPIOD_CLK_ENABLE();
 714              		.loc 1 265 3 view .LVU191
 266:Cam/Src/F7Cam_Driver.c ****   __HAL_RCC_GPIOE_CLK_ENABLE();
 715              		.loc 1 266 3 view .LVU192
 716              	.LBB9:
 266:Cam/Src/F7Cam_Driver.c ****   __HAL_RCC_GPIOE_CLK_ENABLE();
 717              		.loc 1 266 3 view .LVU193
 266:Cam/Src/F7Cam_Driver.c ****   __HAL_RCC_GPIOE_CLK_ENABLE();
 718              		.loc 1 266 3 view .LVU194
 719 0040 1A6B     		ldr	r2, [r3, #48]
 720 0042 42F00802 		orr	r2, r2, #8
 721 0046 1A63     		str	r2, [r3, #48]
 266:Cam/Src/F7Cam_Driver.c ****   __HAL_RCC_GPIOE_CLK_ENABLE();
 722              		.loc 1 266 3 view .LVU195
 723 0048 1A6B     		ldr	r2, [r3, #48]
 724 004a 02F00802 		and	r2, r2, #8
 725 004e 0392     		str	r2, [sp, #12]
 266:Cam/Src/F7Cam_Driver.c ****   __HAL_RCC_GPIOE_CLK_ENABLE();
 726              		.loc 1 266 3 view .LVU196
 727 0050 039A     		ldr	r2, [sp, #12]
 728              	.LBE9:
 266:Cam/Src/F7Cam_Driver.c ****   __HAL_RCC_GPIOE_CLK_ENABLE();
 729              		.loc 1 266 3 view .LVU197
 267:Cam/Src/F7Cam_Driver.c ****   __HAL_RCC_GPIOG_CLK_ENABLE();
 730              		.loc 1 267 3 view .LVU198
 731              	.LBB10:
 267:Cam/Src/F7Cam_Driver.c ****   __HAL_RCC_GPIOG_CLK_ENABLE();
 732              		.loc 1 267 3 view .LVU199
 267:Cam/Src/F7Cam_Driver.c ****   __HAL_RCC_GPIOG_CLK_ENABLE();
 733              		.loc 1 267 3 view .LVU200
 734 0052 1A6B     		ldr	r2, [r3, #48]
 735 0054 42F01002 		orr	r2, r2, #16
 736 0058 1A63     		str	r2, [r3, #48]
 267:Cam/Src/F7Cam_Driver.c ****   __HAL_RCC_GPIOG_CLK_ENABLE();
 737              		.loc 1 267 3 view .LVU201
 738 005a 1A6B     		ldr	r2, [r3, #48]
 739 005c 02F01002 		and	r2, r2, #16
 740 0060 0492     		str	r2, [sp, #16]
ARM GAS  /var/folders/fz/x0kldt2j7vs_j4slv3pyc44m0000gp/T//ccIn6myf.s 			page 32


 267:Cam/Src/F7Cam_Driver.c ****   __HAL_RCC_GPIOG_CLK_ENABLE();
 741              		.loc 1 267 3 view .LVU202
 742 0062 049A     		ldr	r2, [sp, #16]
 743              	.LBE10:
 267:Cam/Src/F7Cam_Driver.c ****   __HAL_RCC_GPIOG_CLK_ENABLE();
 744              		.loc 1 267 3 view .LVU203
 268:Cam/Src/F7Cam_Driver.c ****   __HAL_RCC_GPIOH_CLK_ENABLE();
 745              		.loc 1 268 3 view .LVU204
 746              	.LBB11:
 268:Cam/Src/F7Cam_Driver.c ****   __HAL_RCC_GPIOH_CLK_ENABLE();
 747              		.loc 1 268 3 view .LVU205
 268:Cam/Src/F7Cam_Driver.c ****   __HAL_RCC_GPIOH_CLK_ENABLE();
 748              		.loc 1 268 3 view .LVU206
 749 0064 1A6B     		ldr	r2, [r3, #48]
 750 0066 42F04002 		orr	r2, r2, #64
 751 006a 1A63     		str	r2, [r3, #48]
 268:Cam/Src/F7Cam_Driver.c ****   __HAL_RCC_GPIOH_CLK_ENABLE();
 752              		.loc 1 268 3 view .LVU207
 753 006c 1A6B     		ldr	r2, [r3, #48]
 754 006e 02F04002 		and	r2, r2, #64
 755 0072 0592     		str	r2, [sp, #20]
 268:Cam/Src/F7Cam_Driver.c ****   __HAL_RCC_GPIOH_CLK_ENABLE();
 756              		.loc 1 268 3 view .LVU208
 757 0074 059A     		ldr	r2, [sp, #20]
 758              	.LBE11:
 268:Cam/Src/F7Cam_Driver.c ****   __HAL_RCC_GPIOH_CLK_ENABLE();
 759              		.loc 1 268 3 view .LVU209
 269:Cam/Src/F7Cam_Driver.c **** 
 760              		.loc 1 269 3 view .LVU210
 761              	.LBB12:
 269:Cam/Src/F7Cam_Driver.c **** 
 762              		.loc 1 269 3 view .LVU211
 269:Cam/Src/F7Cam_Driver.c **** 
 763              		.loc 1 269 3 view .LVU212
 764 0076 1A6B     		ldr	r2, [r3, #48]
 765 0078 42F08002 		orr	r2, r2, #128
 766 007c 1A63     		str	r2, [r3, #48]
 269:Cam/Src/F7Cam_Driver.c **** 
 767              		.loc 1 269 3 view .LVU213
 768 007e 1B6B     		ldr	r3, [r3, #48]
 769 0080 03F08003 		and	r3, r3, #128
 770 0084 0693     		str	r3, [sp, #24]
 269:Cam/Src/F7Cam_Driver.c **** 
 771              		.loc 1 269 3 view .LVU214
 772 0086 069B     		ldr	r3, [sp, #24]
 773              	.LBE12:
 269:Cam/Src/F7Cam_Driver.c **** 
 774              		.loc 1 269 3 view .LVU215
 273:Cam/Src/F7Cam_Driver.c ****   gpio_init_structure.Mode      = GPIO_MODE_AF_PP;
 775              		.loc 1 273 3 view .LVU216
 273:Cam/Src/F7Cam_Driver.c ****   gpio_init_structure.Mode      = GPIO_MODE_AF_PP;
 776              		.loc 1 273 33 is_stmt 0 view .LVU217
 777 0088 5023     		movs	r3, #80
 778 008a 0793     		str	r3, [sp, #28]
 274:Cam/Src/F7Cam_Driver.c ****   gpio_init_structure.Pull      = GPIO_PULLUP;
 779              		.loc 1 274 3 is_stmt 1 view .LVU218
 274:Cam/Src/F7Cam_Driver.c ****   gpio_init_structure.Pull      = GPIO_PULLUP;
ARM GAS  /var/folders/fz/x0kldt2j7vs_j4slv3pyc44m0000gp/T//ccIn6myf.s 			page 33


 780              		.loc 1 274 33 is_stmt 0 view .LVU219
 781 008c 4FF00208 		mov	r8, #2
 782 0090 CDF82080 		str	r8, [sp, #32]
 275:Cam/Src/F7Cam_Driver.c ****   gpio_init_structure.Speed     = GPIO_SPEED_HIGH;
 783              		.loc 1 275 3 is_stmt 1 view .LVU220
 275:Cam/Src/F7Cam_Driver.c ****   gpio_init_structure.Speed     = GPIO_SPEED_HIGH;
 784              		.loc 1 275 33 is_stmt 0 view .LVU221
 785 0094 0127     		movs	r7, #1
 786 0096 0997     		str	r7, [sp, #36]
 276:Cam/Src/F7Cam_Driver.c ****   gpio_init_structure.Alternate = GPIO_AF13_DCMI;
 787              		.loc 1 276 3 is_stmt 1 view .LVU222
 276:Cam/Src/F7Cam_Driver.c ****   gpio_init_structure.Alternate = GPIO_AF13_DCMI;
 788              		.loc 1 276 33 is_stmt 0 view .LVU223
 789 0098 0324     		movs	r4, #3
 790 009a 0A94     		str	r4, [sp, #40]
 277:Cam/Src/F7Cam_Driver.c ****   HAL_GPIO_Init(GPIOA, &gpio_init_structure);
 791              		.loc 1 277 3 is_stmt 1 view .LVU224
 277:Cam/Src/F7Cam_Driver.c ****   HAL_GPIO_Init(GPIOA, &gpio_init_structure);
 792              		.loc 1 277 33 is_stmt 0 view .LVU225
 793 009c 0D26     		movs	r6, #13
 794 009e 0B96     		str	r6, [sp, #44]
 278:Cam/Src/F7Cam_Driver.c **** 
 795              		.loc 1 278 3 is_stmt 1 view .LVU226
 796 00a0 07A9     		add	r1, sp, #28
 797              	.LVL41:
 278:Cam/Src/F7Cam_Driver.c **** 
 798              		.loc 1 278 3 is_stmt 0 view .LVU227
 799 00a2 3548     		ldr	r0, .L45+4
 800              	.LVL42:
 278:Cam/Src/F7Cam_Driver.c **** 
 801              		.loc 1 278 3 view .LVU228
 802 00a4 FFF7FEFF 		bl	HAL_GPIO_Init
 803              	.LVL43:
 280:Cam/Src/F7Cam_Driver.c ****   gpio_init_structure.Mode      = GPIO_MODE_AF_PP;
 804              		.loc 1 280 3 is_stmt 1 view .LVU229
 280:Cam/Src/F7Cam_Driver.c ****   gpio_init_structure.Mode      = GPIO_MODE_AF_PP;
 805              		.loc 1 280 33 is_stmt 0 view .LVU230
 806 00a8 0823     		movs	r3, #8
 807 00aa 0793     		str	r3, [sp, #28]
 281:Cam/Src/F7Cam_Driver.c ****   gpio_init_structure.Pull      = GPIO_PULLUP;
 808              		.loc 1 281 3 is_stmt 1 view .LVU231
 281:Cam/Src/F7Cam_Driver.c ****   gpio_init_structure.Pull      = GPIO_PULLUP;
 809              		.loc 1 281 33 is_stmt 0 view .LVU232
 810 00ac CDF82080 		str	r8, [sp, #32]
 282:Cam/Src/F7Cam_Driver.c ****   gpio_init_structure.Speed     = GPIO_SPEED_HIGH;
 811              		.loc 1 282 3 is_stmt 1 view .LVU233
 282:Cam/Src/F7Cam_Driver.c ****   gpio_init_structure.Speed     = GPIO_SPEED_HIGH;
 812              		.loc 1 282 33 is_stmt 0 view .LVU234
 813 00b0 0997     		str	r7, [sp, #36]
 283:Cam/Src/F7Cam_Driver.c ****   gpio_init_structure.Alternate = GPIO_AF13_DCMI;
 814              		.loc 1 283 3 is_stmt 1 view .LVU235
 283:Cam/Src/F7Cam_Driver.c ****   gpio_init_structure.Alternate = GPIO_AF13_DCMI;
 815              		.loc 1 283 33 is_stmt 0 view .LVU236
 816 00b2 0A94     		str	r4, [sp, #40]
 284:Cam/Src/F7Cam_Driver.c ****   HAL_GPIO_Init(GPIOD, &gpio_init_structure);
 817              		.loc 1 284 3 is_stmt 1 view .LVU237
 284:Cam/Src/F7Cam_Driver.c ****   HAL_GPIO_Init(GPIOD, &gpio_init_structure);
ARM GAS  /var/folders/fz/x0kldt2j7vs_j4slv3pyc44m0000gp/T//ccIn6myf.s 			page 34


 818              		.loc 1 284 33 is_stmt 0 view .LVU238
 819 00b4 0B96     		str	r6, [sp, #44]
 285:Cam/Src/F7Cam_Driver.c **** 
 820              		.loc 1 285 3 is_stmt 1 view .LVU239
 821 00b6 07A9     		add	r1, sp, #28
 822 00b8 3048     		ldr	r0, .L45+8
 823 00ba FFF7FEFF 		bl	HAL_GPIO_Init
 824              	.LVL44:
 287:Cam/Src/F7Cam_Driver.c ****   gpio_init_structure.Mode      = GPIO_MODE_AF_PP;
 825              		.loc 1 287 3 view .LVU240
 287:Cam/Src/F7Cam_Driver.c ****   gpio_init_structure.Mode      = GPIO_MODE_AF_PP;
 826              		.loc 1 287 33 is_stmt 0 view .LVU241
 827 00be 6023     		movs	r3, #96
 828 00c0 0793     		str	r3, [sp, #28]
 288:Cam/Src/F7Cam_Driver.c ****   gpio_init_structure.Pull      = GPIO_PULLUP;
 829              		.loc 1 288 3 is_stmt 1 view .LVU242
 288:Cam/Src/F7Cam_Driver.c ****   gpio_init_structure.Pull      = GPIO_PULLUP;
 830              		.loc 1 288 33 is_stmt 0 view .LVU243
 831 00c2 CDF82080 		str	r8, [sp, #32]
 289:Cam/Src/F7Cam_Driver.c ****   gpio_init_structure.Speed     = GPIO_SPEED_HIGH;
 832              		.loc 1 289 3 is_stmt 1 view .LVU244
 289:Cam/Src/F7Cam_Driver.c ****   gpio_init_structure.Speed     = GPIO_SPEED_HIGH;
 833              		.loc 1 289 33 is_stmt 0 view .LVU245
 834 00c6 0997     		str	r7, [sp, #36]
 290:Cam/Src/F7Cam_Driver.c ****   gpio_init_structure.Alternate = GPIO_AF13_DCMI;
 835              		.loc 1 290 3 is_stmt 1 view .LVU246
 290:Cam/Src/F7Cam_Driver.c ****   gpio_init_structure.Alternate = GPIO_AF13_DCMI;
 836              		.loc 1 290 33 is_stmt 0 view .LVU247
 837 00c8 0A94     		str	r4, [sp, #40]
 291:Cam/Src/F7Cam_Driver.c ****   HAL_GPIO_Init(GPIOE, &gpio_init_structure);
 838              		.loc 1 291 3 is_stmt 1 view .LVU248
 291:Cam/Src/F7Cam_Driver.c ****   HAL_GPIO_Init(GPIOE, &gpio_init_structure);
 839              		.loc 1 291 33 is_stmt 0 view .LVU249
 840 00ca 0B96     		str	r6, [sp, #44]
 292:Cam/Src/F7Cam_Driver.c **** 
 841              		.loc 1 292 3 is_stmt 1 view .LVU250
 842 00cc 07A9     		add	r1, sp, #28
 843 00ce 2C48     		ldr	r0, .L45+12
 844 00d0 FFF7FEFF 		bl	HAL_GPIO_Init
 845              	.LVL45:
 294:Cam/Src/F7Cam_Driver.c ****   gpio_init_structure.Mode      = GPIO_MODE_AF_PP;
 846              		.loc 1 294 3 view .LVU251
 294:Cam/Src/F7Cam_Driver.c ****   gpio_init_structure.Mode      = GPIO_MODE_AF_PP;
 847              		.loc 1 294 33 is_stmt 0 view .LVU252
 848 00d4 4FF40073 		mov	r3, #512
 849 00d8 0793     		str	r3, [sp, #28]
 295:Cam/Src/F7Cam_Driver.c ****   gpio_init_structure.Pull      = GPIO_PULLUP;
 850              		.loc 1 295 3 is_stmt 1 view .LVU253
 295:Cam/Src/F7Cam_Driver.c ****   gpio_init_structure.Pull      = GPIO_PULLUP;
 851              		.loc 1 295 33 is_stmt 0 view .LVU254
 852 00da CDF82080 		str	r8, [sp, #32]
 296:Cam/Src/F7Cam_Driver.c ****   gpio_init_structure.Speed     = GPIO_SPEED_HIGH;
 853              		.loc 1 296 3 is_stmt 1 view .LVU255
 296:Cam/Src/F7Cam_Driver.c ****   gpio_init_structure.Speed     = GPIO_SPEED_HIGH;
 854              		.loc 1 296 33 is_stmt 0 view .LVU256
 855 00de 0997     		str	r7, [sp, #36]
 297:Cam/Src/F7Cam_Driver.c ****   gpio_init_structure.Alternate = GPIO_AF13_DCMI;
ARM GAS  /var/folders/fz/x0kldt2j7vs_j4slv3pyc44m0000gp/T//ccIn6myf.s 			page 35


 856              		.loc 1 297 3 is_stmt 1 view .LVU257
 297:Cam/Src/F7Cam_Driver.c ****   gpio_init_structure.Alternate = GPIO_AF13_DCMI;
 857              		.loc 1 297 33 is_stmt 0 view .LVU258
 858 00e0 0A94     		str	r4, [sp, #40]
 298:Cam/Src/F7Cam_Driver.c ****   HAL_GPIO_Init(GPIOG, &gpio_init_structure);
 859              		.loc 1 298 3 is_stmt 1 view .LVU259
 298:Cam/Src/F7Cam_Driver.c ****   HAL_GPIO_Init(GPIOG, &gpio_init_structure);
 860              		.loc 1 298 33 is_stmt 0 view .LVU260
 861 00e2 0B96     		str	r6, [sp, #44]
 299:Cam/Src/F7Cam_Driver.c **** 
 862              		.loc 1 299 3 is_stmt 1 view .LVU261
 863 00e4 07A9     		add	r1, sp, #28
 864 00e6 2748     		ldr	r0, .L45+16
 865 00e8 FFF7FEFF 		bl	HAL_GPIO_Init
 866              	.LVL46:
 301:Cam/Src/F7Cam_Driver.c ****                                   GPIO_PIN_12 | GPIO_PIN_14;
 867              		.loc 1 301 3 view .LVU262
 301:Cam/Src/F7Cam_Driver.c ****                                   GPIO_PIN_12 | GPIO_PIN_14;
 868              		.loc 1 301 33 is_stmt 0 view .LVU263
 869 00ec 4FF4BC43 		mov	r3, #24064
 870 00f0 0793     		str	r3, [sp, #28]
 303:Cam/Src/F7Cam_Driver.c ****   gpio_init_structure.Pull      = GPIO_PULLUP;
 871              		.loc 1 303 3 is_stmt 1 view .LVU264
 303:Cam/Src/F7Cam_Driver.c ****   gpio_init_structure.Pull      = GPIO_PULLUP;
 872              		.loc 1 303 33 is_stmt 0 view .LVU265
 873 00f2 CDF82080 		str	r8, [sp, #32]
 304:Cam/Src/F7Cam_Driver.c ****   gpio_init_structure.Speed     = GPIO_SPEED_HIGH;
 874              		.loc 1 304 3 is_stmt 1 view .LVU266
 304:Cam/Src/F7Cam_Driver.c ****   gpio_init_structure.Speed     = GPIO_SPEED_HIGH;
 875              		.loc 1 304 33 is_stmt 0 view .LVU267
 876 00f6 0997     		str	r7, [sp, #36]
 305:Cam/Src/F7Cam_Driver.c ****   gpio_init_structure.Alternate = GPIO_AF13_DCMI;
 877              		.loc 1 305 3 is_stmt 1 view .LVU268
 305:Cam/Src/F7Cam_Driver.c ****   gpio_init_structure.Alternate = GPIO_AF13_DCMI;
 878              		.loc 1 305 33 is_stmt 0 view .LVU269
 879 00f8 0A94     		str	r4, [sp, #40]
 306:Cam/Src/F7Cam_Driver.c ****   HAL_GPIO_Init(GPIOH, &gpio_init_structure);
 880              		.loc 1 306 3 is_stmt 1 view .LVU270
 306:Cam/Src/F7Cam_Driver.c ****   HAL_GPIO_Init(GPIOH, &gpio_init_structure);
 881              		.loc 1 306 33 is_stmt 0 view .LVU271
 882 00fa 0B96     		str	r6, [sp, #44]
 307:Cam/Src/F7Cam_Driver.c **** 
 883              		.loc 1 307 3 is_stmt 1 view .LVU272
 884 00fc 07A9     		add	r1, sp, #28
 885 00fe 2248     		ldr	r0, .L45+20
 886 0100 FFF7FEFF 		bl	HAL_GPIO_Init
 887              	.LVL47:
 311:Cam/Src/F7Cam_Driver.c ****   hdma_handler.Init.Direction           = DMA_PERIPH_TO_MEMORY;
 888              		.loc 1 311 3 view .LVU273
 311:Cam/Src/F7Cam_Driver.c ****   hdma_handler.Init.Direction           = DMA_PERIPH_TO_MEMORY;
 889              		.loc 1 311 41 is_stmt 0 view .LVU274
 890 0104 214B     		ldr	r3, .L45+24
 891 0106 4FF00072 		mov	r2, #33554432
 892 010a 5A60     		str	r2, [r3, #4]
 312:Cam/Src/F7Cam_Driver.c ****   hdma_handler.Init.PeriphInc           = DMA_PINC_DISABLE;
 893              		.loc 1 312 3 is_stmt 1 view .LVU275
 312:Cam/Src/F7Cam_Driver.c ****   hdma_handler.Init.PeriphInc           = DMA_PINC_DISABLE;
ARM GAS  /var/folders/fz/x0kldt2j7vs_j4slv3pyc44m0000gp/T//ccIn6myf.s 			page 36


 894              		.loc 1 312 41 is_stmt 0 view .LVU276
 895 010c 0026     		movs	r6, #0
 896 010e 9E60     		str	r6, [r3, #8]
 313:Cam/Src/F7Cam_Driver.c ****   hdma_handler.Init.MemInc              = DMA_MINC_ENABLE;
 897              		.loc 1 313 3 is_stmt 1 view .LVU277
 313:Cam/Src/F7Cam_Driver.c ****   hdma_handler.Init.MemInc              = DMA_MINC_ENABLE;
 898              		.loc 1 313 41 is_stmt 0 view .LVU278
 899 0110 DE60     		str	r6, [r3, #12]
 314:Cam/Src/F7Cam_Driver.c ****   hdma_handler.Init.PeriphDataAlignment = DMA_PDATAALIGN_WORD;
 900              		.loc 1 314 3 is_stmt 1 view .LVU279
 314:Cam/Src/F7Cam_Driver.c ****   hdma_handler.Init.PeriphDataAlignment = DMA_PDATAALIGN_WORD;
 901              		.loc 1 314 41 is_stmt 0 view .LVU280
 902 0112 4FF48062 		mov	r2, #1024
 903 0116 1A61     		str	r2, [r3, #16]
 315:Cam/Src/F7Cam_Driver.c ****   hdma_handler.Init.MemDataAlignment    = DMA_MDATAALIGN_WORD;
 904              		.loc 1 315 3 is_stmt 1 view .LVU281
 315:Cam/Src/F7Cam_Driver.c ****   hdma_handler.Init.MemDataAlignment    = DMA_MDATAALIGN_WORD;
 905              		.loc 1 315 41 is_stmt 0 view .LVU282
 906 0118 4FF48052 		mov	r2, #4096
 907 011c 5A61     		str	r2, [r3, #20]
 316:Cam/Src/F7Cam_Driver.c ****   hdma_handler.Init.Mode                = DMA_CIRCULAR; //DMA_NORMAL
 908              		.loc 1 316 3 is_stmt 1 view .LVU283
 316:Cam/Src/F7Cam_Driver.c ****   hdma_handler.Init.Mode                = DMA_CIRCULAR; //DMA_NORMAL
 909              		.loc 1 316 41 is_stmt 0 view .LVU284
 910 011e 4FF48042 		mov	r2, #16384
 911 0122 9A61     		str	r2, [r3, #24]
 317:Cam/Src/F7Cam_Driver.c ****   //hdma_handler.Init.Mode                = DMA_NORMAL; 
 912              		.loc 1 317 3 is_stmt 1 view .LVU285
 317:Cam/Src/F7Cam_Driver.c ****   //hdma_handler.Init.Mode                = DMA_NORMAL; 
 913              		.loc 1 317 41 is_stmt 0 view .LVU286
 914 0124 4FF48072 		mov	r2, #256
 915 0128 DA61     		str	r2, [r3, #28]
 320:Cam/Src/F7Cam_Driver.c ****   hdma_handler.Init.FIFOMode            = DMA_FIFOMODE_ENABLE; //was disable
 916              		.loc 1 320 3 is_stmt 1 view .LVU287
 320:Cam/Src/F7Cam_Driver.c ****   hdma_handler.Init.FIFOMode            = DMA_FIFOMODE_ENABLE; //was disable
 917              		.loc 1 320 41 is_stmt 0 view .LVU288
 918 012a 4FF40032 		mov	r2, #131072
 919 012e 1A62     		str	r2, [r3, #32]
 321:Cam/Src/F7Cam_Driver.c ****   hdma_handler.Init.FIFOThreshold       = DMA_FIFO_THRESHOLD_FULL;
 920              		.loc 1 321 3 is_stmt 1 view .LVU289
 321:Cam/Src/F7Cam_Driver.c ****   hdma_handler.Init.FIFOThreshold       = DMA_FIFO_THRESHOLD_FULL;
 921              		.loc 1 321 41 is_stmt 0 view .LVU290
 922 0130 0422     		movs	r2, #4
 923 0132 5A62     		str	r2, [r3, #36]
 322:Cam/Src/F7Cam_Driver.c ****   hdma_handler.Init.MemBurst            = DMA_MBURST_SINGLE;
 924              		.loc 1 322 3 is_stmt 1 view .LVU291
 322:Cam/Src/F7Cam_Driver.c ****   hdma_handler.Init.MemBurst            = DMA_MBURST_SINGLE;
 925              		.loc 1 322 41 is_stmt 0 view .LVU292
 926 0134 9C62     		str	r4, [r3, #40]
 323:Cam/Src/F7Cam_Driver.c ****   hdma_handler.Init.PeriphBurst         = DMA_PBURST_INC4; //wasDMA_PBURST_SINGLE
 927              		.loc 1 323 3 is_stmt 1 view .LVU293
 323:Cam/Src/F7Cam_Driver.c ****   hdma_handler.Init.PeriphBurst         = DMA_PBURST_INC4; //wasDMA_PBURST_SINGLE
 928              		.loc 1 323 41 is_stmt 0 view .LVU294
 929 0136 DE62     		str	r6, [r3, #44]
 324:Cam/Src/F7Cam_Driver.c **** 
 930              		.loc 1 324 3 is_stmt 1 view .LVU295
 324:Cam/Src/F7Cam_Driver.c **** 
ARM GAS  /var/folders/fz/x0kldt2j7vs_j4slv3pyc44m0000gp/T//ccIn6myf.s 			page 37


 931              		.loc 1 324 41 is_stmt 0 view .LVU296
 932 0138 4FF40012 		mov	r2, #2097152
 933 013c 1A63     		str	r2, [r3, #48]
 326:Cam/Src/F7Cam_Driver.c **** 
 934              		.loc 1 326 3 is_stmt 1 view .LVU297
 326:Cam/Src/F7Cam_Driver.c **** 
 935              		.loc 1 326 25 is_stmt 0 view .LVU298
 936 013e 144A     		ldr	r2, .L45+28
 937 0140 1A60     		str	r2, [r3]
 329:Cam/Src/F7Cam_Driver.c ****   
 938              		.loc 1 329 3 is_stmt 1 view .LVU299
 329:Cam/Src/F7Cam_Driver.c ****   
 939              		.loc 1 329 3 view .LVU300
 940 0142 AB64     		str	r3, [r5, #72]
 329:Cam/Src/F7Cam_Driver.c ****   
 941              		.loc 1 329 3 view .LVU301
 942 0144 9D63     		str	r5, [r3, #56]
 329:Cam/Src/F7Cam_Driver.c ****   
 943              		.loc 1 329 3 view .LVU302
 333:Cam/Src/F7Cam_Driver.c ****   HAL_NVIC_EnableIRQ(DCMI_IRQn);  
 944              		.loc 1 333 3 view .LVU303
 945 0146 3246     		mov	r2, r6
 946 0148 0F21     		movs	r1, #15
 947 014a 4E20     		movs	r0, #78
 948 014c FFF7FEFF 		bl	HAL_NVIC_SetPriority
 949              	.LVL48:
 334:Cam/Src/F7Cam_Driver.c ****   
 950              		.loc 1 334 3 view .LVU304
 951 0150 4E20     		movs	r0, #78
 952 0152 FFF7FEFF 		bl	HAL_NVIC_EnableIRQ
 953              	.LVL49:
 337:Cam/Src/F7Cam_Driver.c ****   HAL_NVIC_EnableIRQ(DMA2_Stream1_IRQn);
 954              		.loc 1 337 3 view .LVU305
 955 0156 3246     		mov	r2, r6
 956 0158 0F21     		movs	r1, #15
 957 015a 3920     		movs	r0, #57
 958 015c FFF7FEFF 		bl	HAL_NVIC_SetPriority
 959              	.LVL50:
 338:Cam/Src/F7Cam_Driver.c ****   
 960              		.loc 1 338 3 view .LVU306
 961 0160 3920     		movs	r0, #57
 962 0162 FFF7FEFF 		bl	HAL_NVIC_EnableIRQ
 963              	.LVL51:
 341:Cam/Src/F7Cam_Driver.c **** }
 964              		.loc 1 341 3 view .LVU307
 965 0166 A86C     		ldr	r0, [r5, #72]
 966 0168 FFF7FEFF 		bl	HAL_DMA_Init
 967              	.LVL52:
 342:Cam/Src/F7Cam_Driver.c **** 
 968              		.loc 1 342 1 is_stmt 0 view .LVU308
 969 016c 0CB0     		add	sp, sp, #48
 970              		.cfi_def_cfa_offset 24
 971              		@ sp needed
 972 016e BDE8F081 		pop	{r4, r5, r6, r7, r8, pc}
 973              	.LVL53:
 974              	.L46:
 342:Cam/Src/F7Cam_Driver.c **** 
ARM GAS  /var/folders/fz/x0kldt2j7vs_j4slv3pyc44m0000gp/T//ccIn6myf.s 			page 38


 975              		.loc 1 342 1 view .LVU309
 976 0172 00BF     		.align	2
 977              	.L45:
 978 0174 00380240 		.word	1073887232
 979 0178 00000240 		.word	1073872896
 980 017c 000C0240 		.word	1073875968
 981 0180 00100240 		.word	1073876992
 982 0184 00180240 		.word	1073879040
 983 0188 001C0240 		.word	1073880064
 984 018c 00000000 		.word	hdma_handler.0
 985 0190 28640240 		.word	1073898536
 986              		.cfi_endproc
 987              	.LFE152:
 989              		.section	.rodata.CAM_Init.str1.4,"aMS",%progbits,1
 990              		.align	2
 991              	.LC1:
 992 0000 0A726561 		.ascii	"\012read ID incorrect\000"
 992      64204944 
 992      20696E63 
 992      6F727265 
 992      637400
 993              		.section	.text.CAM_Init,"ax",%progbits
 994              		.align	1
 995              		.global	CAM_Init
 996              		.syntax unified
 997              		.thumb
 998              		.thumb_func
 1000              	CAM_Init:
 1001              	.LVL54:
 1002              	.LFB144:
  58:Cam/Src/F7Cam_Driver.c ****   DCMI_HandleTypeDef *phdcmi;
 1003              		.loc 1 58 1 is_stmt 1 view -0
 1004              		.cfi_startproc
 1005              		@ args = 16, pretend = 0, frame = 0
 1006              		@ frame_needed = 0, uses_anonymous_args = 0
  58:Cam/Src/F7Cam_Driver.c ****   DCMI_HandleTypeDef *phdcmi;
 1007              		.loc 1 58 1 is_stmt 0 view .LVU311
 1008 0000 2DE9F041 		push	{r4, r5, r6, r7, r8, lr}
 1009              		.cfi_def_cfa_offset 24
 1010              		.cfi_offset 4, -24
 1011              		.cfi_offset 5, -20
 1012              		.cfi_offset 6, -16
 1013              		.cfi_offset 7, -12
 1014              		.cfi_offset 8, -8
 1015              		.cfi_offset 14, -4
 1016 0004 82B0     		sub	sp, sp, #8
 1017              		.cfi_def_cfa_offset 32
 1018 0006 0D46     		mov	r5, r1
 1019 0008 1646     		mov	r6, r2
 1020 000a BDF82470 		ldrh	r7, [sp, #36]
 1021 000e 9DF82880 		ldrb	r8, [sp, #40]	@ zero_extendqisi2
  59:Cam/Src/F7Cam_Driver.c ****   uint8_t status = CAMERA_ERROR;
 1022              		.loc 1 59 3 is_stmt 1 view .LVU312
  60:Cam/Src/F7Cam_Driver.c **** 
 1023              		.loc 1 60 3 view .LVU313
 1024              	.LVL55:
  63:Cam/Src/F7Cam_Driver.c **** 
ARM GAS  /var/folders/fz/x0kldt2j7vs_j4slv3pyc44m0000gp/T//ccIn6myf.s 			page 39


 1025              		.loc 1 63 3 view .LVU314
  67:Cam/Src/F7Cam_Driver.c ****   phdcmi->Init.HSPolarity       = DCMI_HSPOLARITY_HIGH;
 1026              		.loc 1 67 3 view .LVU315
  67:Cam/Src/F7Cam_Driver.c ****   phdcmi->Init.HSPolarity       = DCMI_HSPOLARITY_HIGH;
 1027              		.loc 1 67 33 is_stmt 0 view .LVU316
 1028 0012 294B     		ldr	r3, .L55
 1029              	.LVL56:
  67:Cam/Src/F7Cam_Driver.c ****   phdcmi->Init.HSPolarity       = DCMI_HSPOLARITY_HIGH;
 1030              		.loc 1 67 33 view .LVU317
 1031 0014 0024     		movs	r4, #0
 1032 0016 5C61     		str	r4, [r3, #20]
  68:Cam/Src/F7Cam_Driver.c ****   phdcmi->Init.SynchroMode      = DCMI_SYNCHRO_HARDWARE;
 1033              		.loc 1 68 3 is_stmt 1 view .LVU318
  68:Cam/Src/F7Cam_Driver.c ****   phdcmi->Init.SynchroMode      = DCMI_SYNCHRO_HARDWARE;
 1034              		.loc 1 68 33 is_stmt 0 view .LVU319
 1035 0018 4022     		movs	r2, #64
 1036              	.LVL57:
  68:Cam/Src/F7Cam_Driver.c ****   phdcmi->Init.SynchroMode      = DCMI_SYNCHRO_HARDWARE;
 1037              		.loc 1 68 33 view .LVU320
 1038 001a 1A61     		str	r2, [r3, #16]
  69:Cam/Src/F7Cam_Driver.c ****   phdcmi->Init.VSPolarity       = DCMI_VSPOLARITY_HIGH;
 1039              		.loc 1 69 3 is_stmt 1 view .LVU321
  69:Cam/Src/F7Cam_Driver.c ****   phdcmi->Init.VSPolarity       = DCMI_VSPOLARITY_HIGH;
 1040              		.loc 1 69 33 is_stmt 0 view .LVU322
 1041 001c 5C60     		str	r4, [r3, #4]
  70:Cam/Src/F7Cam_Driver.c ****   phdcmi->Init.ExtendedDataMode = DCMI_EXTEND_DATA_8B;
 1042              		.loc 1 70 3 is_stmt 1 view .LVU323
  70:Cam/Src/F7Cam_Driver.c ****   phdcmi->Init.ExtendedDataMode = DCMI_EXTEND_DATA_8B;
 1043              		.loc 1 70 33 is_stmt 0 view .LVU324
 1044 001e 8022     		movs	r2, #128
 1045 0020 DA60     		str	r2, [r3, #12]
  71:Cam/Src/F7Cam_Driver.c ****   phdcmi->Init.PCKPolarity      = DCMI_PCKPOLARITY_RISING;
 1046              		.loc 1 71 3 is_stmt 1 view .LVU325
  71:Cam/Src/F7Cam_Driver.c ****   phdcmi->Init.PCKPolarity      = DCMI_PCKPOLARITY_RISING;
 1047              		.loc 1 71 33 is_stmt 0 view .LVU326
 1048 0022 9C61     		str	r4, [r3, #24]
  72:Cam/Src/F7Cam_Driver.c ****    if (format == FMT_JPEG) {
 1049              		.loc 1 72 3 is_stmt 1 view .LVU327
  72:Cam/Src/F7Cam_Driver.c ****    if (format == FMT_JPEG) {
 1050              		.loc 1 72 33 is_stmt 0 view .LVU328
 1051 0024 2022     		movs	r2, #32
 1052 0026 9A60     		str	r2, [r3, #8]
  73:Cam/Src/F7Cam_Driver.c **** 	   phdcmi->Init.JPEGMode 		  = DCMI_JPEG_ENABLE;
 1053              		.loc 1 73 4 is_stmt 1 view .LVU329
  73:Cam/Src/F7Cam_Driver.c **** 	   phdcmi->Init.JPEGMode 		  = DCMI_JPEG_ENABLE;
 1054              		.loc 1 73 7 is_stmt 0 view .LVU330
 1055 0028 0446     		mov	r4, r0
 1056 002a 08B9     		cbnz	r0, .L48
  74:Cam/Src/F7Cam_Driver.c ****    }
 1057              		.loc 1 74 5 is_stmt 1 view .LVU331
  74:Cam/Src/F7Cam_Driver.c ****    }
 1058              		.loc 1 74 31 is_stmt 0 view .LVU332
 1059 002c 0822     		movs	r2, #8
 1060 002e 1A62     		str	r2, [r3, #32]
 1061              	.L48:
  76:Cam/Src/F7Cam_Driver.c ****   status = CAMERA_ERROR;
 1062              		.loc 1 76 3 is_stmt 1 view .LVU333
ARM GAS  /var/folders/fz/x0kldt2j7vs_j4slv3pyc44m0000gp/T//ccIn6myf.s 			page 40


  76:Cam/Src/F7Cam_Driver.c ****   status = CAMERA_ERROR;
 1063              		.loc 1 76 33 is_stmt 0 view .LVU334
 1064 0030 214B     		ldr	r3, .L55
 1065 0032 224A     		ldr	r2, .L55+4
 1066 0034 1A60     		str	r2, [r3]
  77:Cam/Src/F7Cam_Driver.c **** 
 1067              		.loc 1 77 3 is_stmt 1 view .LVU335
  79:Cam/Src/F7Cam_Driver.c ****   BSP_CAMERA_PwrUp();
 1068              		.loc 1 79 2 view .LVU336
 1069 0036 FFF7FEFF 		bl	BSP_CAMERA_PwrDown
 1070              	.LVL58:
  80:Cam/Src/F7Cam_Driver.c **** 	HAL_Delay(1000);
 1071              		.loc 1 80 3 view .LVU337
 1072 003a FFF7FEFF 		bl	BSP_CAMERA_PwrUp
 1073              	.LVL59:
  81:Cam/Src/F7Cam_Driver.c ****   /* Read ID of Camera module via I2C */
 1074              		.loc 1 81 2 view .LVU338
 1075 003e 4FF47A70 		mov	r0, #1000
 1076 0042 FFF7FEFF 		bl	HAL_Delay
 1077              	.LVL60:
  83:Cam/Src/F7Cam_Driver.c ****   {
 1078              		.loc 1 83 3 view .LVU339
  83:Cam/Src/F7Cam_Driver.c ****   {
 1079              		.loc 1 83 6 is_stmt 0 view .LVU340
 1080 0046 7820     		movs	r0, #120
 1081 0048 FFF7FEFF 		bl	ov5640_ReadID
 1082              	.LVL61:
  83:Cam/Src/F7Cam_Driver.c ****   {
 1083              		.loc 1 83 5 view .LVU341
 1084 004c 45F24063 		movw	r3, #22080
 1085 0050 9842     		cmp	r0, r3
 1086 0052 2BD1     		bne	.L49
  88:Cam/Src/F7Cam_Driver.c ****     PACKET_COUNT = packet_count;
 1087              		.loc 1 88 5 is_stmt 1 view .LVU342
  88:Cam/Src/F7Cam_Driver.c ****     PACKET_COUNT = packet_count;
 1088              		.loc 1 88 15 is_stmt 0 view .LVU343
 1089 0054 1A4B     		ldr	r3, .L55+8
 1090 0056 1F80     		strh	r7, [r3]	@ movhi
  89:Cam/Src/F7Cam_Driver.c ****     total_buffer_fragments = CAM_FB_SIZE / FIFO_width;
 1091              		.loc 1 89 5 is_stmt 1 view .LVU344
  89:Cam/Src/F7Cam_Driver.c ****     total_buffer_fragments = CAM_FB_SIZE / FIFO_width;
 1092              		.loc 1 89 18 is_stmt 0 view .LVU345
 1093 0058 1A4B     		ldr	r3, .L55+12
 1094 005a 83F80080 		strb	r8, [r3]
  90:Cam/Src/F7Cam_Driver.c ****   
 1095              		.loc 1 90 5 is_stmt 1 view .LVU346
  90:Cam/Src/F7Cam_Driver.c ****   
 1096              		.loc 1 90 42 is_stmt 0 view .LVU347
 1097 005e 4FF4C833 		mov	r3, #102400
 1098 0062 93FBF7F3 		sdiv	r3, r3, r7
  90:Cam/Src/F7Cam_Driver.c ****   
 1099              		.loc 1 90 28 view .LVU348
 1100 0066 184A     		ldr	r2, .L55+16
 1101 0068 1370     		strb	r3, [r2]
  92:Cam/Src/F7Cam_Driver.c **** 	        {
 1102              		.loc 1 92 6 is_stmt 1 view .LVU349
 1103 006a 84B1     		cbz	r4, .L50
ARM GAS  /var/folders/fz/x0kldt2j7vs_j4slv3pyc44m0000gp/T//ccIn6myf.s 			page 41


 1104 006c 012C     		cmp	r4, #1
 1105 006e 18D0     		beq	.L51
 1106              	.L52:
 119:Cam/Src/F7Cam_Driver.c **** 
 1107              		.loc 1 119 5 view .LVU350
 1108 0070 114C     		ldr	r4, .L55
 1109 0072 0021     		movs	r1, #0
 1110 0074 2046     		mov	r0, r4
 1111 0076 FFF7FEFF 		bl	BSP_CAMERA_MspInit
 1112              	.LVL62:
 123:Cam/Src/F7Cam_Driver.c ****     HAL_DCMI_DisableCROP(phdcmi);
 1113              		.loc 1 123 5 view .LVU351
 1114 007a 2046     		mov	r0, r4
 1115 007c FFF7FEFF 		bl	HAL_DCMI_Init
 1116              	.LVL63:
 124:Cam/Src/F7Cam_Driver.c ****   
 1117              		.loc 1 124 5 view .LVU352
 1118 0080 2046     		mov	r0, r4
 1119 0082 FFF7FEFF 		bl	HAL_DCMI_DisableCrop
 1120              	.LVL64:
 126:Cam/Src/F7Cam_Driver.c ****   }
 1121              		.loc 1 126 5 view .LVU353
 126:Cam/Src/F7Cam_Driver.c ****   }
 1122              		.loc 1 126 12 is_stmt 0 view .LVU354
 1123 0086 0020     		movs	r0, #0
 1124              	.LVL65:
 1125              	.L53:
 135:Cam/Src/F7Cam_Driver.c **** }
 1126              		.loc 1 135 3 is_stmt 1 view .LVU355
 136:Cam/Src/F7Cam_Driver.c **** #endif
 1127              		.loc 1 136 1 is_stmt 0 view .LVU356
 1128 0088 02B0     		add	sp, sp, #8
 1129              		.cfi_remember_state
 1130              		.cfi_def_cfa_offset 24
 1131              		@ sp needed
 1132 008a BDE8F081 		pop	{r4, r5, r6, r7, r8, pc}
 1133              	.LVL66:
 1134              	.L50:
 1135              		.cfi_restore_state
  98:Cam/Src/F7Cam_Driver.c ****             // if (FPS != 9) {
 1136              		.loc 1 98 9 is_stmt 1 view .LVU357
 1137 008e 9DF82C30 		ldrb	r3, [sp, #44]	@ zero_extendqisi2
 1138 0092 0093     		str	r3, [sp]
 1139 0094 4346     		mov	r3, r8
 1140 0096 3A46     		mov	r2, r7
 1141 0098 3146     		mov	r1, r6
 1142 009a 2846     		mov	r0, r5
 1143 009c FFF7FEFF 		bl	ov5640_Init_JPEG
 1144              	.LVL67:
 104:Cam/Src/F7Cam_Driver.c **** 	    		}
 1145              		.loc 1 104 9 view .LVU358
 1146 00a0 E6E7     		b	.L52
 1147              	.L51:
 109:Cam/Src/F7Cam_Driver.c **** 	    			break;
 1148              		.loc 1 109 9 view .LVU359
 1149 00a2 3146     		mov	r1, r6
 1150 00a4 2846     		mov	r0, r5
ARM GAS  /var/folders/fz/x0kldt2j7vs_j4slv3pyc44m0000gp/T//ccIn6myf.s 			page 42


 1151 00a6 FFF7FEFF 		bl	ov5640_Init_RGB565
 1152              	.LVL68:
 110:Cam/Src/F7Cam_Driver.c **** 	    		}
 1153              		.loc 1 110 9 view .LVU360
 1154 00aa E1E7     		b	.L52
 1155              	.L49:
 131:Cam/Src/F7Cam_Driver.c ****     printf("\nread ID incorrect\n");
 1156              		.loc 1 131 5 view .LVU361
 1157              	.LVL69:
 132:Cam/Src/F7Cam_Driver.c ****   }
 1158              		.loc 1 132 5 view .LVU362
 1159 00ac 0748     		ldr	r0, .L55+20
 1160 00ae FFF7FEFF 		bl	puts
 1161              	.LVL70:
 131:Cam/Src/F7Cam_Driver.c ****     printf("\nread ID incorrect\n");
 1162              		.loc 1 131 12 is_stmt 0 view .LVU363
 1163 00b2 0420     		movs	r0, #4
 1164 00b4 E8E7     		b	.L53
 1165              	.L56:
 1166 00b6 00BF     		.align	2
 1167              	.L55:
 1168 00b8 00000000 		.word	hDcmiHandler
 1169 00bc 00000550 		.word	1342504960
 1170 00c0 00000000 		.word	FIFO_SIZE
 1171 00c4 00000000 		.word	PACKET_COUNT
 1172 00c8 00000000 		.word	total_buffer_fragments
 1173 00cc 00000000 		.word	.LC1
 1174              		.cfi_endproc
 1175              	.LFE144:
 1177              		.section	.text.BSP_CAMERA_MspDeInit,"ax",%progbits
 1178              		.align	1
 1179              		.weak	BSP_CAMERA_MspDeInit
 1180              		.syntax unified
 1181              		.thumb
 1182              		.thumb_func
 1184              	BSP_CAMERA_MspDeInit:
 1185              	.LVL71:
 1186              	.LFB153:
 352:Cam/Src/F7Cam_Driver.c ****   /* Disable NVIC  for DCMI transfer complete interrupt */
 1187              		.loc 1 352 1 is_stmt 1 view -0
 1188              		.cfi_startproc
 1189              		@ args = 0, pretend = 0, frame = 0
 1190              		@ frame_needed = 0, uses_anonymous_args = 0
 352:Cam/Src/F7Cam_Driver.c ****   /* Disable NVIC  for DCMI transfer complete interrupt */
 1191              		.loc 1 352 1 is_stmt 0 view .LVU365
 1192 0000 10B5     		push	{r4, lr}
 1193              		.cfi_def_cfa_offset 8
 1194              		.cfi_offset 4, -8
 1195              		.cfi_offset 14, -4
 1196 0002 0446     		mov	r4, r0
 354:Cam/Src/F7Cam_Driver.c ****   
 1197              		.loc 1 354 3 is_stmt 1 view .LVU366
 1198 0004 4E20     		movs	r0, #78
 1199              	.LVL72:
 354:Cam/Src/F7Cam_Driver.c ****   
 1200              		.loc 1 354 3 is_stmt 0 view .LVU367
 1201 0006 FFF7FEFF 		bl	HAL_NVIC_DisableIRQ
ARM GAS  /var/folders/fz/x0kldt2j7vs_j4slv3pyc44m0000gp/T//ccIn6myf.s 			page 43


 1202              	.LVL73:
 357:Cam/Src/F7Cam_Driver.c ****   
 1203              		.loc 1 357 3 is_stmt 1 view .LVU368
 1204 000a 3920     		movs	r0, #57
 1205 000c FFF7FEFF 		bl	HAL_NVIC_DisableIRQ
 1206              	.LVL74:
 360:Cam/Src/F7Cam_Driver.c **** 
 1207              		.loc 1 360 3 view .LVU369
 1208 0010 A06C     		ldr	r0, [r4, #72]
 1209 0012 FFF7FEFF 		bl	HAL_DMA_DeInit
 1210              	.LVL75:
 363:Cam/Src/F7Cam_Driver.c **** 
 1211              		.loc 1 363 3 view .LVU370
 1212 0016 034A     		ldr	r2, .L59
 1213 0018 536B     		ldr	r3, [r2, #52]
 1214 001a 23F00103 		bic	r3, r3, #1
 1215 001e 5363     		str	r3, [r2, #52]
 367:Cam/Src/F7Cam_Driver.c **** 
 1216              		.loc 1 367 1 is_stmt 0 view .LVU371
 1217 0020 10BD     		pop	{r4, pc}
 1218              	.LVL76:
 1219              	.L60:
 367:Cam/Src/F7Cam_Driver.c **** 
 1220              		.loc 1 367 1 view .LVU372
 1221 0022 00BF     		.align	2
 1222              	.L59:
 1223 0024 00380240 		.word	1073887232
 1224              		.cfi_endproc
 1225              	.LFE153:
 1227              		.section	.text.BSP_CAMERA_DeInit,"ax",%progbits
 1228              		.align	1
 1229              		.global	BSP_CAMERA_DeInit
 1230              		.syntax unified
 1231              		.thumb
 1232              		.thumb_func
 1234              	BSP_CAMERA_DeInit:
 1235              	.LFB145:
 141:Cam/Src/F7Cam_Driver.c ****   hDcmiHandler.Instance              = DCMI;
 1236              		.loc 1 141 1 is_stmt 1 view -0
 1237              		.cfi_startproc
 1238              		@ args = 0, pretend = 0, frame = 0
 1239              		@ frame_needed = 0, uses_anonymous_args = 0
 1240 0000 10B5     		push	{r4, lr}
 1241              		.cfi_def_cfa_offset 8
 1242              		.cfi_offset 4, -8
 1243              		.cfi_offset 14, -4
 142:Cam/Src/F7Cam_Driver.c **** 
 1244              		.loc 1 142 3 view .LVU374
 142:Cam/Src/F7Cam_Driver.c **** 
 1245              		.loc 1 142 38 is_stmt 0 view .LVU375
 1246 0002 064C     		ldr	r4, .L63
 1247 0004 064B     		ldr	r3, .L63+4
 1248 0006 2360     		str	r3, [r4]
 144:Cam/Src/F7Cam_Driver.c ****   BSP_CAMERA_MspDeInit(&hDcmiHandler, NULL);
 1249              		.loc 1 144 3 is_stmt 1 view .LVU376
 1250 0008 2046     		mov	r0, r4
 1251 000a FFF7FEFF 		bl	HAL_DCMI_DeInit
ARM GAS  /var/folders/fz/x0kldt2j7vs_j4slv3pyc44m0000gp/T//ccIn6myf.s 			page 44


 1252              	.LVL77:
 145:Cam/Src/F7Cam_Driver.c ****   return CAMERA_OK;
 1253              		.loc 1 145 3 view .LVU377
 1254 000e 0021     		movs	r1, #0
 1255 0010 2046     		mov	r0, r4
 1256 0012 FFF7FEFF 		bl	BSP_CAMERA_MspDeInit
 1257              	.LVL78:
 146:Cam/Src/F7Cam_Driver.c **** }
 1258              		.loc 1 146 3 view .LVU378
 147:Cam/Src/F7Cam_Driver.c **** 
 1259              		.loc 1 147 1 is_stmt 0 view .LVU379
 1260 0016 0020     		movs	r0, #0
 1261 0018 10BD     		pop	{r4, pc}
 1262              	.L64:
 1263 001a 00BF     		.align	2
 1264              	.L63:
 1265 001c 00000000 		.word	hDcmiHandler
 1266 0020 00000550 		.word	1342504960
 1267              		.cfi_endproc
 1268              	.LFE145:
 1270              		.section	.text.BSP_CAMERA_LineEventCallback,"ax",%progbits
 1271              		.align	1
 1272              		.weak	BSP_CAMERA_LineEventCallback
 1273              		.syntax unified
 1274              		.thumb
 1275              		.thumb_func
 1277              	BSP_CAMERA_LineEventCallback:
 1278              	.LFB155:
 397:Cam/Src/F7Cam_Driver.c ****   /* NOTE : This function Should not be modified, when the callback is needed,
 1279              		.loc 1 397 1 is_stmt 1 view -0
 1280              		.cfi_startproc
 1281              		@ args = 0, pretend = 0, frame = 0
 1282              		@ frame_needed = 0, uses_anonymous_args = 0
 1283              		@ link register save eliminated.
 401:Cam/Src/F7Cam_Driver.c **** 
 1284              		.loc 1 401 1 view .LVU381
 1285 0000 7047     		bx	lr
 1286              		.cfi_endproc
 1287              	.LFE155:
 1289              		.section	.text.HAL_DCMI_LineEventCallback,"ax",%progbits
 1290              		.align	1
 1291              		.global	HAL_DCMI_LineEventCallback
 1292              		.syntax unified
 1293              		.thumb
 1294              		.thumb_func
 1296              	HAL_DCMI_LineEventCallback:
 1297              	.LVL79:
 1298              	.LFB154:
 375:Cam/Src/F7Cam_Driver.c ****   if (!capture_data) {
 1299              		.loc 1 375 1 view -0
 1300              		.cfi_startproc
 1301              		@ args = 0, pretend = 0, frame = 0
 1302              		@ frame_needed = 0, uses_anonymous_args = 0
 375:Cam/Src/F7Cam_Driver.c ****   if (!capture_data) {
 1303              		.loc 1 375 1 is_stmt 0 view .LVU383
 1304 0000 08B5     		push	{r3, lr}
 1305              		.cfi_def_cfa_offset 8
ARM GAS  /var/folders/fz/x0kldt2j7vs_j4slv3pyc44m0000gp/T//ccIn6myf.s 			page 45


 1306              		.cfi_offset 3, -8
 1307              		.cfi_offset 14, -4
 376:Cam/Src/F7Cam_Driver.c ****     return;
 1308              		.loc 1 376 3 is_stmt 1 view .LVU384
 376:Cam/Src/F7Cam_Driver.c ****     return;
 1309              		.loc 1 376 7 is_stmt 0 view .LVU385
 1310 0002 0B4B     		ldr	r3, .L71
 1311 0004 1B78     		ldrb	r3, [r3]	@ zero_extendqisi2
 376:Cam/Src/F7Cam_Driver.c ****     return;
 1312              		.loc 1 376 6 view .LVU386
 1313 0006 03B9     		cbnz	r3, .L70
 1314              	.LVL80:
 1315              	.L66:
 389:Cam/Src/F7Cam_Driver.c **** 
 1316              		.loc 1 389 1 view .LVU387
 1317 0008 08BD     		pop	{r3, pc}
 1318              	.LVL81:
 1319              	.L70:
 380:Cam/Src/F7Cam_Driver.c ****   //packetCounter++;
 1320              		.loc 1 380 3 is_stmt 1 view .LVU388
 1321 000a FFF7FEFF 		bl	BSP_CAMERA_LineEventCallback
 1322              	.LVL82:
 382:Cam/Src/F7Cam_Driver.c ****     buffer_position = 0;
 1323              		.loc 1 382 3 view .LVU389
 382:Cam/Src/F7Cam_Driver.c ****     buffer_position = 0;
 1324              		.loc 1 382 23 is_stmt 0 view .LVU390
 1325 000e 094B     		ldr	r3, .L71+4
 1326 0010 93F90030 		ldrsb	r3, [r3]
 1327 0014 591C     		adds	r1, r3, #1
 382:Cam/Src/F7Cam_Driver.c ****     buffer_position = 0;
 1328              		.loc 1 382 27 view .LVU391
 1329 0016 084A     		ldr	r2, .L71+8
 1330 0018 1278     		ldrb	r2, [r2]	@ zero_extendqisi2
 382:Cam/Src/F7Cam_Driver.c ****     buffer_position = 0;
 1331              		.loc 1 382 6 view .LVU392
 1332 001a 9142     		cmp	r1, r2
 1333 001c 03DB     		blt	.L68
 383:Cam/Src/F7Cam_Driver.c ****   } else {  
 1334              		.loc 1 383 5 is_stmt 1 view .LVU393
 383:Cam/Src/F7Cam_Driver.c ****   } else {  
 1335              		.loc 1 383 21 is_stmt 0 view .LVU394
 1336 001e 054B     		ldr	r3, .L71+4
 1337 0020 0022     		movs	r2, #0
 1338 0022 1A70     		strb	r2, [r3]
 1339 0024 F0E7     		b	.L66
 1340              	.L68:
 385:Cam/Src/F7Cam_Driver.c ****   }
 1341              		.loc 1 385 5 is_stmt 1 view .LVU395
 385:Cam/Src/F7Cam_Driver.c ****   }
 1342              		.loc 1 385 20 is_stmt 0 view .LVU396
 1343 0026 0133     		adds	r3, r3, #1
 1344 0028 024A     		ldr	r2, .L71+4
 1345 002a 1370     		strb	r3, [r2]
 1346 002c ECE7     		b	.L66
 1347              	.L72:
 1348 002e 00BF     		.align	2
 1349              	.L71:
ARM GAS  /var/folders/fz/x0kldt2j7vs_j4slv3pyc44m0000gp/T//ccIn6myf.s 			page 46


 1350 0030 00000000 		.word	capture_data
 1351 0034 00000000 		.word	buffer_position
 1352 0038 00000000 		.word	total_buffer_fragments
 1353              		.cfi_endproc
 1354              	.LFE154:
 1356              		.section	.text.BSP_CAMERA_VsyncEventCallback,"ax",%progbits
 1357              		.align	1
 1358              		.weak	BSP_CAMERA_VsyncEventCallback
 1359              		.syntax unified
 1360              		.thumb
 1361              		.thumb_func
 1363              	BSP_CAMERA_VsyncEventCallback:
 1364              	.LFB157:
 531:Cam/Src/F7Cam_Driver.c ****   /* NOTE : This function Should not be modified, when the callback is needed,
 1365              		.loc 1 531 1 is_stmt 1 view -0
 1366              		.cfi_startproc
 1367              		@ args = 0, pretend = 0, frame = 0
 1368              		@ frame_needed = 0, uses_anonymous_args = 0
 1369              		@ link register save eliminated.
 535:Cam/Src/F7Cam_Driver.c **** 
 1370              		.loc 1 535 1 view .LVU398
 1371 0000 7047     		bx	lr
 1372              		.cfi_endproc
 1373              	.LFE157:
 1375              		.section	.rodata.HAL_DCMI_VsyncEventCallback.str1.4,"aMS",%progbits,1
 1376              		.align	2
 1377              	.LC2:
 1378 0000 252E3258 		.ascii	"%.2X%.2X \000"
 1378      252E3258 
 1378      2000
 1379 000a 0000     		.align	2
 1380              	.LC3:
 1381 000c 09777261 		.ascii	"\011wrapped frame\012\000"
 1381      70706564 
 1381      20667261 
 1381      6D650A00 
 1382              		.section	.text.HAL_DCMI_VsyncEventCallback,"ax",%progbits
 1383              		.align	1
 1384              		.global	HAL_DCMI_VsyncEventCallback
 1385              		.syntax unified
 1386              		.thumb
 1387              		.thumb_func
 1389              	HAL_DCMI_VsyncEventCallback:
 1390              	.LVL83:
 1391              	.LFB156:
 409:Cam/Src/F7Cam_Driver.c ****   if (!capture_data) {
 1392              		.loc 1 409 1 view -0
 1393              		.cfi_startproc
 1394              		@ args = 0, pretend = 0, frame = 24
 1395              		@ frame_needed = 0, uses_anonymous_args = 0
 410:Cam/Src/F7Cam_Driver.c ****     return;
 1396              		.loc 1 410 3 view .LVU400
 410:Cam/Src/F7Cam_Driver.c ****     return;
 1397              		.loc 1 410 7 is_stmt 0 view .LVU401
 1398 0000 544B     		ldr	r3, .L90
 1399 0002 1B78     		ldrb	r3, [r3]	@ zero_extendqisi2
 410:Cam/Src/F7Cam_Driver.c ****     return;
ARM GAS  /var/folders/fz/x0kldt2j7vs_j4slv3pyc44m0000gp/T//ccIn6myf.s 			page 47


 1400              		.loc 1 410 6 view .LVU402
 1401 0004 03B9     		cbnz	r3, .L88
 1402 0006 7047     		bx	lr
 1403              	.L88:
 409:Cam/Src/F7Cam_Driver.c ****   if (!capture_data) {
 1404              		.loc 1 409 1 view .LVU403
 1405 0008 2DE9F043 		push	{r4, r5, r6, r7, r8, r9, lr}
 1406              		.cfi_def_cfa_offset 28
 1407              		.cfi_offset 4, -28
 1408              		.cfi_offset 5, -24
 1409              		.cfi_offset 6, -20
 1410              		.cfi_offset 7, -16
 1411              		.cfi_offset 8, -12
 1412              		.cfi_offset 9, -8
 1413              		.cfi_offset 14, -4
 1414 000c 87B0     		sub	sp, sp, #28
 1415              		.cfi_def_cfa_offset 56
 414:Cam/Src/F7Cam_Driver.c ****   frameCounter++;
 1416              		.loc 1 414 3 is_stmt 1 view .LVU404
 1417 000e FFF7FEFF 		bl	BSP_CAMERA_VsyncEventCallback
 1418              	.LVL84:
 415:Cam/Src/F7Cam_Driver.c ****   loadingCounter++;
 1419              		.loc 1 415 3 view .LVU405
 415:Cam/Src/F7Cam_Driver.c ****   loadingCounter++;
 1420              		.loc 1 415 15 is_stmt 0 view .LVU406
 1421 0012 514A     		ldr	r2, .L90+4
 1422 0014 1378     		ldrb	r3, [r2]	@ zero_extendqisi2
 1423 0016 0133     		adds	r3, r3, #1
 1424 0018 1370     		strb	r3, [r2]
 416:Cam/Src/F7Cam_Driver.c ****   uint8_t current_frame_end_pos = buffer_position;
 1425              		.loc 1 416 3 is_stmt 1 view .LVU407
 416:Cam/Src/F7Cam_Driver.c ****   uint8_t current_frame_end_pos = buffer_position;
 1426              		.loc 1 416 17 is_stmt 0 view .LVU408
 1427 001a 504A     		ldr	r2, .L90+8
 1428 001c 1378     		ldrb	r3, [r2]	@ zero_extendqisi2
 1429 001e 0133     		adds	r3, r3, #1
 1430 0020 DBB2     		uxtb	r3, r3
 1431 0022 1370     		strb	r3, [r2]
 417:Cam/Src/F7Cam_Driver.c **** 
 1432              		.loc 1 417 3 is_stmt 1 view .LVU409
 417:Cam/Src/F7Cam_Driver.c **** 
 1433              		.loc 1 417 11 is_stmt 0 view .LVU410
 1434 0024 4E4A     		ldr	r2, .L90+12
 1435 0026 1578     		ldrb	r5, [r2]	@ zero_extendqisi2
 1436              	.LVL85:
 419:Cam/Src/F7Cam_Driver.c ****     BSP_CAMERA_Stop();
 1437              		.loc 1 419 3 is_stmt 1 view .LVU411
 419:Cam/Src/F7Cam_Driver.c ****     BSP_CAMERA_Stop();
 1438              		.loc 1 419 6 is_stmt 0 view .LVU412
 1439 0028 0A2B     		cmp	r3, #10
 1440 002a 60D8     		bhi	.L89
 1441              	.L77:
 427:Cam/Src/F7Cam_Driver.c ****     //frame has wrapped around buffer
 1442              		.loc 1 427 3 is_stmt 1 view .LVU413
 427:Cam/Src/F7Cam_Driver.c ****     //frame has wrapped around buffer
 1443              		.loc 1 427 29 is_stmt 0 view .LVU414
 1444 002c 4D4B     		ldr	r3, .L90+16
ARM GAS  /var/folders/fz/x0kldt2j7vs_j4slv3pyc44m0000gp/T//ccIn6myf.s 			page 48


 1445 002e 1C78     		ldrb	r4, [r3]	@ zero_extendqisi2
 427:Cam/Src/F7Cam_Driver.c ****     //frame has wrapped around buffer
 1446              		.loc 1 427 6 view .LVU415
 1447 0030 AC42     		cmp	r4, r5
 1448 0032 72D9     		bls	.L80
 1449              	.LBB13:
 430:Cam/Src/F7Cam_Driver.c **** 
 1450              		.loc 1 430 5 is_stmt 1 view .LVU416
 1451 0034 4C48     		ldr	r0, .L90+20
 1452 0036 FFF7FEFF 		bl	puts
 1453              	.LVL86:
 433:Cam/Src/F7Cam_Driver.c ****     //printf("pos1:%i\n", current_frame_start_pos);
 1454              		.loc 1 433 5 view .LVU417
 433:Cam/Src/F7Cam_Driver.c ****     //printf("pos1:%i\n", current_frame_start_pos);
 1455              		.loc 1 433 56 is_stmt 0 view .LVU418
 1456 003a 4A4B     		ldr	r3, .L90+16
 1457 003c 93F80090 		ldrb	r9, [r3]	@ zero_extendqisi2
 1458 0040 4A4B     		ldr	r3, .L90+24
 1459 0042 1C78     		ldrb	r4, [r3]	@ zero_extendqisi2
 1460 0044 A4EB0904 		sub	r4, r4, r9
 433:Cam/Src/F7Cam_Driver.c ****     //printf("pos1:%i\n", current_frame_start_pos);
 1461              		.loc 1 433 14 view .LVU419
 1462 0048 DFF83481 		ldr	r8, .L90+44
 1463 004c B8F80060 		ldrh	r6, [r8]
 1464 0050 14FB06F4 		smulbb	r4, r4, r6
 1465 0054 A4B2     		uxth	r4, r4
 1466              	.LVL87:
 438:Cam/Src/F7Cam_Driver.c ****     partial_1_data_ready_payload->data = cam_fb + (current_frame_start_pos * FIFO_SIZE);
 1467              		.loc 1 438 5 is_stmt 1 view .LVU420
 438:Cam/Src/F7Cam_Driver.c ****     partial_1_data_ready_payload->data = cam_fb + (current_frame_start_pos * FIFO_SIZE);
 1468              		.loc 1 438 60 is_stmt 0 view .LVU421
 1469 0056 0820     		movs	r0, #8
 1470 0058 FFF7FEFF 		bl	malloc
 1471              	.LVL88:
 439:Cam/Src/F7Cam_Driver.c ****     partial_1_data_ready_payload->size = bufferEndSize;
 1472              		.loc 1 439 5 is_stmt 1 view .LVU422
 439:Cam/Src/F7Cam_Driver.c ****     partial_1_data_ready_payload->size = bufferEndSize;
 1473              		.loc 1 439 49 is_stmt 0 view .LVU423
 1474 005c 444F     		ldr	r7, .L90+28
 1475 005e 09FB0676 		mla	r6, r9, r6, r7
 439:Cam/Src/F7Cam_Driver.c ****     partial_1_data_ready_payload->size = bufferEndSize;
 1476              		.loc 1 439 40 view .LVU424
 1477 0062 0660     		str	r6, [r0]
 440:Cam/Src/F7Cam_Driver.c ****     //printf("/nELSE IF/n");
 1478              		.loc 1 440 5 is_stmt 1 view .LVU425
 440:Cam/Src/F7Cam_Driver.c ****     //printf("/nELSE IF/n");
 1479              		.loc 1 440 40 is_stmt 0 view .LVU426
 1480 0064 4460     		str	r4, [r0, #4]
 443:Cam/Src/F7Cam_Driver.c ****       DCMIDataReady,
 1481              		.loc 1 443 5 is_stmt 1 view .LVU427
 443:Cam/Src/F7Cam_Driver.c ****       DCMIDataReady,
 1482              		.loc 1 443 11 is_stmt 0 view .LVU428
 1483 0066 0126     		movs	r6, #1
 1484 0068 8DF80060 		strb	r6, [sp]
 1485 006c 0190     		str	r0, [sp, #4]
 449:Cam/Src/F7Cam_Driver.c ****       //}
 1486              		.loc 1 449 9 is_stmt 1 view .LVU429
ARM GAS  /var/folders/fz/x0kldt2j7vs_j4slv3pyc44m0000gp/T//ccIn6myf.s 			page 49


 1487 006e 6B46     		mov	r3, sp
 1488 0070 93E80300 		ldm	r3, {r0, r1}
 1489              	.LVL89:
 449:Cam/Src/F7Cam_Driver.c ****       //}
 1490              		.loc 1 449 9 is_stmt 0 view .LVU430
 1491 0074 FFF7FEFF 		bl	push_event_queue
 1492              	.LVL90:
 455:Cam/Src/F7Cam_Driver.c ****     //printf("bufferStartSize: %i\n\n", bufferStartSize / FIFO_SIZE);
 1493              		.loc 1 455 5 is_stmt 1 view .LVU431
 455:Cam/Src/F7Cam_Driver.c ****     //printf("bufferStartSize: %i\n\n", bufferStartSize / FIFO_SIZE);
 1494              		.loc 1 455 55 is_stmt 0 view .LVU432
 1495 0078 3544     		add	r5, r5, r6
 1496              	.LVL91:
 455:Cam/Src/F7Cam_Driver.c ****     //printf("bufferStartSize: %i\n\n", bufferStartSize / FIFO_SIZE);
 1497              		.loc 1 455 14 view .LVU433
 1498 007a B8F80080 		ldrh	r8, [r8]
 1499 007e 15FB08F5 		smulbb	r5, r5, r8
 1500              	.LVL92:
 455:Cam/Src/F7Cam_Driver.c ****     //printf("bufferStartSize: %i\n\n", bufferStartSize / FIFO_SIZE);
 1501              		.loc 1 455 14 view .LVU434
 1502 0082 ADB2     		uxth	r5, r5
 1503              	.LVL93:
 460:Cam/Src/F7Cam_Driver.c ****     partial_2_data_ready_payload->data = cam_fb;
 1504              		.loc 1 460 5 is_stmt 1 view .LVU435
 460:Cam/Src/F7Cam_Driver.c ****     partial_2_data_ready_payload->data = cam_fb;
 1505              		.loc 1 460 60 is_stmt 0 view .LVU436
 1506 0084 0820     		movs	r0, #8
 1507 0086 FFF7FEFF 		bl	malloc
 1508              	.LVL94:
 461:Cam/Src/F7Cam_Driver.c ****     partial_2_data_ready_payload->size = bufferStartSize * FIFO_SIZE;
 1509              		.loc 1 461 5 is_stmt 1 view .LVU437
 461:Cam/Src/F7Cam_Driver.c ****     partial_2_data_ready_payload->size = bufferStartSize * FIFO_SIZE;
 1510              		.loc 1 461 40 is_stmt 0 view .LVU438
 1511 008a 0760     		str	r7, [r0]
 462:Cam/Src/F7Cam_Driver.c **** 
 1512              		.loc 1 462 5 is_stmt 1 view .LVU439
 462:Cam/Src/F7Cam_Driver.c **** 
 1513              		.loc 1 462 58 is_stmt 0 view .LVU440
 1514 008c 08FB05F3 		mul	r3, r8, r5
 462:Cam/Src/F7Cam_Driver.c **** 
 1515              		.loc 1 462 40 view .LVU441
 1516 0090 4360     		str	r3, [r0, #4]
 464:Cam/Src/F7Cam_Driver.c ****       DCMIDataReady,
 1517              		.loc 1 464 5 is_stmt 1 view .LVU442
 464:Cam/Src/F7Cam_Driver.c ****       DCMIDataReady,
 1518              		.loc 1 464 11 is_stmt 0 view .LVU443
 1519 0092 8DF80860 		strb	r6, [sp, #8]
 1520 0096 0390     		str	r0, [sp, #12]
 470:Cam/Src/F7Cam_Driver.c **** 
 1521              		.loc 1 470 7 is_stmt 1 view .LVU444
 1522 0098 02AB     		add	r3, sp, #8
 1523 009a 93E80300 		ldm	r3, {r0, r1}
 1524              	.LVL95:
 470:Cam/Src/F7Cam_Driver.c **** 
 1525              		.loc 1 470 7 is_stmt 0 view .LVU445
 1526 009e FFF7FEFF 		bl	push_event_queue
 1527              	.LVL96:
ARM GAS  /var/folders/fz/x0kldt2j7vs_j4slv3pyc44m0000gp/T//ccIn6myf.s 			page 50


 472:Cam/Src/F7Cam_Driver.c **** 
 1528              		.loc 1 472 3 is_stmt 1 view .LVU446
 472:Cam/Src/F7Cam_Driver.c **** 
 1529              		.loc 1 472 29 is_stmt 0 view .LVU447
 1530 00a2 2C44     		add	r4, r4, r5
 1531              	.LVL97:
 472:Cam/Src/F7Cam_Driver.c **** 
 1532              		.loc 1 472 13 view .LVU448
 1533 00a4 334B     		ldr	r3, .L90+32
 1534 00a6 1C80     		strh	r4, [r3]	@ movhi
 1535              	.LVL98:
 1536              	.L81:
 472:Cam/Src/F7Cam_Driver.c **** 
 1537              		.loc 1 472 13 view .LVU449
 1538              	.LBE13:
 504:Cam/Src/F7Cam_Driver.c ****   
 1539              		.loc 1 504 3 is_stmt 1 view .LVU450
 504:Cam/Src/F7Cam_Driver.c ****   
 1540              		.loc 1 504 45 is_stmt 0 view .LVU451
 1541 00a8 2D4B     		ldr	r3, .L90+12
 1542 00aa 93F90030 		ldrsb	r3, [r3]
 504:Cam/Src/F7Cam_Driver.c ****   
 1543              		.loc 1 504 70 view .LVU452
 1544 00ae 2F4A     		ldr	r2, .L90+24
 1545 00b0 1278     		ldrb	r2, [r2]	@ zero_extendqisi2
 1546 00b2 013A     		subs	r2, r2, #1
 504:Cam/Src/F7Cam_Driver.c ****   
 1547              		.loc 1 504 27 view .LVU453
 1548 00b4 9342     		cmp	r3, r2
 1549 00b6 4ADA     		bge	.L83
 504:Cam/Src/F7Cam_Driver.c ****   
 1550              		.loc 1 504 92 discriminator 1 view .LVU454
 1551 00b8 DBB2     		uxtb	r3, r3
 504:Cam/Src/F7Cam_Driver.c ****   
 1552              		.loc 1 504 27 discriminator 1 view .LVU455
 1553 00ba 0133     		adds	r3, r3, #1
 1554 00bc DBB2     		uxtb	r3, r3
 1555              	.L82:
 504:Cam/Src/F7Cam_Driver.c ****   
 1556              		.loc 1 504 27 discriminator 4 view .LVU456
 1557 00be 294A     		ldr	r2, .L90+16
 1558 00c0 1370     		strb	r3, [r2]
 506:Cam/Src/F7Cam_Driver.c **** 
 1559              		.loc 1 506 3 is_stmt 1 discriminator 4 view .LVU457
 506:Cam/Src/F7Cam_Driver.c **** 
 1560              		.loc 1 506 14 is_stmt 0 discriminator 4 view .LVU458
 1561 00c2 2D4B     		ldr	r3, .L90+36
 1562 00c4 0122     		movs	r2, #1
 1563 00c6 1A70     		strb	r2, [r3]
 511:Cam/Src/F7Cam_Driver.c ****   frame_complete_payload->size = JPEG_Size; //FRAME_SIZE; //JPEG_Size;
 1564              		.loc 1 511 3 is_stmt 1 discriminator 4 view .LVU459
 511:Cam/Src/F7Cam_Driver.c ****   frame_complete_payload->size = JPEG_Size; //FRAME_SIZE; //JPEG_Size;
 1565              		.loc 1 511 56 is_stmt 0 discriminator 4 view .LVU460
 1566 00c8 0420     		movs	r0, #4
 1567 00ca FFF7FEFF 		bl	malloc
 1568              	.LVL99:
 512:Cam/Src/F7Cam_Driver.c **** 
ARM GAS  /var/folders/fz/x0kldt2j7vs_j4slv3pyc44m0000gp/T//ccIn6myf.s 			page 51


 1569              		.loc 1 512 3 is_stmt 1 discriminator 4 view .LVU461
 512:Cam/Src/F7Cam_Driver.c **** 
 1570              		.loc 1 512 32 is_stmt 0 discriminator 4 view .LVU462
 1571 00ce 294C     		ldr	r4, .L90+32
 1572 00d0 2388     		ldrh	r3, [r4]
 1573 00d2 0360     		str	r3, [r0]
 515:Cam/Src/F7Cam_Driver.c ****     DCMIFrameComplete,
 1574              		.loc 1 515 3 is_stmt 1 discriminator 4 view .LVU463
 515:Cam/Src/F7Cam_Driver.c ****     DCMIFrameComplete,
 1575              		.loc 1 515 9 is_stmt 0 discriminator 4 view .LVU464
 1576 00d4 0025     		movs	r5, #0
 1577 00d6 8DF81050 		strb	r5, [sp, #16]
 1578 00da 0590     		str	r0, [sp, #20]
 521:Cam/Src/F7Cam_Driver.c ****  
 1579              		.loc 1 521 3 is_stmt 1 discriminator 4 view .LVU465
 1580 00dc 06AB     		add	r3, sp, #24
 1581 00de 13E90300 		ldmdb	r3, {r0, r1}
 1582              	.LVL100:
 521:Cam/Src/F7Cam_Driver.c ****  
 1583              		.loc 1 521 3 is_stmt 0 discriminator 4 view .LVU466
 1584 00e2 FFF7FEFF 		bl	push_event_queue
 1585              	.LVL101:
 523:Cam/Src/F7Cam_Driver.c **** }
 1586              		.loc 1 523 3 is_stmt 1 discriminator 4 view .LVU467
 523:Cam/Src/F7Cam_Driver.c **** }
 1587              		.loc 1 523 13 is_stmt 0 discriminator 4 view .LVU468
 1588 00e6 2580     		strh	r5, [r4]	@ movhi
 524:Cam/Src/F7Cam_Driver.c **** 
 1589              		.loc 1 524 1 discriminator 4 view .LVU469
 1590 00e8 07B0     		add	sp, sp, #28
 1591              		.cfi_remember_state
 1592              		.cfi_def_cfa_offset 28
 1593              		@ sp needed
 1594 00ea BDE8F083 		pop	{r4, r5, r6, r7, r8, r9, pc}
 1595              	.LVL102:
 1596              	.L89:
 1597              		.cfi_restore_state
 420:Cam/Src/F7Cam_Driver.c ****     for(uint32_t i = 0; i < ((total_buffer_fragments/ 4) * FIFO_SIZE) ; i = i + 2) {
 1598              		.loc 1 420 5 is_stmt 1 view .LVU470
 1599 00ee FFF7FEFF 		bl	BSP_CAMERA_Stop
 1600              	.LVL103:
 421:Cam/Src/F7Cam_Driver.c ****       printf("%.2X%.2X ", cam_fb[i], cam_fb[i+ 1]);
 1601              		.loc 1 421 5 view .LVU471
 1602              	.LBB14:
 421:Cam/Src/F7Cam_Driver.c ****       printf("%.2X%.2X ", cam_fb[i], cam_fb[i+ 1]);
 1603              		.loc 1 421 9 view .LVU472
 421:Cam/Src/F7Cam_Driver.c ****       printf("%.2X%.2X ", cam_fb[i], cam_fb[i+ 1]);
 1604              		.loc 1 421 18 is_stmt 0 view .LVU473
 1605 00f2 0024     		movs	r4, #0
 421:Cam/Src/F7Cam_Driver.c ****       printf("%.2X%.2X ", cam_fb[i], cam_fb[i+ 1]);
 1606              		.loc 1 421 5 view .LVU474
 1607 00f4 07E0     		b	.L78
 1608              	.LVL104:
 1609              	.L79:
 422:Cam/Src/F7Cam_Driver.c ****     }
 1610              		.loc 1 422 7 is_stmt 1 discriminator 3 view .LVU475
 422:Cam/Src/F7Cam_Driver.c ****     }
ARM GAS  /var/folders/fz/x0kldt2j7vs_j4slv3pyc44m0000gp/T//ccIn6myf.s 			page 52


 1611              		.loc 1 422 33 is_stmt 0 discriminator 3 view .LVU476
 1612 00f6 1E4B     		ldr	r3, .L90+28
 422:Cam/Src/F7Cam_Driver.c ****     }
 1613              		.loc 1 422 46 discriminator 3 view .LVU477
 1614 00f8 621C     		adds	r2, r4, #1
 422:Cam/Src/F7Cam_Driver.c ****     }
 1615              		.loc 1 422 7 discriminator 3 view .LVU478
 1616 00fa 9A5C     		ldrb	r2, [r3, r2]	@ zero_extendqisi2
 1617 00fc 195D     		ldrb	r1, [r3, r4]	@ zero_extendqisi2
 1618 00fe 1F48     		ldr	r0, .L90+40
 1619 0100 FFF7FEFF 		bl	printf
 1620              	.LVL105:
 421:Cam/Src/F7Cam_Driver.c ****       printf("%.2X%.2X ", cam_fb[i], cam_fb[i+ 1]);
 1621              		.loc 1 421 75 is_stmt 1 discriminator 3 view .LVU479
 1622 0104 0234     		adds	r4, r4, #2
 1623              	.LVL106:
 1624              	.L78:
 421:Cam/Src/F7Cam_Driver.c ****       printf("%.2X%.2X ", cam_fb[i], cam_fb[i+ 1]);
 1625              		.loc 1 421 27 discriminator 1 view .LVU480
 421:Cam/Src/F7Cam_Driver.c ****       printf("%.2X%.2X ", cam_fb[i], cam_fb[i+ 1]);
 1626              		.loc 1 421 53 is_stmt 0 discriminator 1 view .LVU481
 1627 0106 194B     		ldr	r3, .L90+24
 1628 0108 1A78     		ldrb	r2, [r3]	@ zero_extendqisi2
 1629 010a 9208     		lsrs	r2, r2, #2
 421:Cam/Src/F7Cam_Driver.c ****       printf("%.2X%.2X ", cam_fb[i], cam_fb[i+ 1]);
 1630              		.loc 1 421 58 discriminator 1 view .LVU482
 1631 010c 1C4B     		ldr	r3, .L90+44
 1632 010e 1B88     		ldrh	r3, [r3]
 1633 0110 02FB03F3 		mul	r3, r2, r3
 421:Cam/Src/F7Cam_Driver.c ****       printf("%.2X%.2X ", cam_fb[i], cam_fb[i+ 1]);
 1634              		.loc 1 421 27 discriminator 1 view .LVU483
 1635 0114 A342     		cmp	r3, r4
 1636 0116 EED8     		bhi	.L79
 1637 0118 88E7     		b	.L77
 1638              	.LVL107:
 1639              	.L80:
 421:Cam/Src/F7Cam_Driver.c ****       printf("%.2X%.2X ", cam_fb[i], cam_fb[i+ 1]);
 1640              		.loc 1 421 27 discriminator 1 view .LVU484
 1641              	.LBE14:
 1642              	.LBB15:
 479:Cam/Src/F7Cam_Driver.c ****     // printf("wholeFrameSize: %i\n\n", wholeFrameSize / FIFO_SIZE);
 1643              		.loc 1 479 5 is_stmt 1 view .LVU485
 479:Cam/Src/F7Cam_Driver.c ****     // printf("wholeFrameSize: %i\n\n", wholeFrameSize / FIFO_SIZE);
 1644              		.loc 1 479 55 is_stmt 0 view .LVU486
 1645 011a 2D1B     		subs	r5, r5, r4
 1646              	.LVL108:
 479:Cam/Src/F7Cam_Driver.c ****     // printf("wholeFrameSize: %i\n\n", wholeFrameSize / FIFO_SIZE);
 1647              		.loc 1 479 14 view .LVU487
 1648 011c 184B     		ldr	r3, .L90+44
 1649 011e 1E88     		ldrh	r6, [r3]
 1650 0120 15FB06F5 		smulbb	r5, r5, r6
 1651 0124 ADB2     		uxth	r5, r5
 1652              	.LVL109:
 486:Cam/Src/F7Cam_Driver.c ****     full_data_ready_payload->data = cam_fb + ((current_frame_start_pos) * FIFO_SIZE);
 1653              		.loc 1 486 5 is_stmt 1 view .LVU488
 486:Cam/Src/F7Cam_Driver.c ****     full_data_ready_payload->data = cam_fb + ((current_frame_start_pos) * FIFO_SIZE);
 1654              		.loc 1 486 55 is_stmt 0 view .LVU489
ARM GAS  /var/folders/fz/x0kldt2j7vs_j4slv3pyc44m0000gp/T//ccIn6myf.s 			page 53


 1655 0126 0820     		movs	r0, #8
 1656 0128 FFF7FEFF 		bl	malloc
 1657              	.LVL110:
 487:Cam/Src/F7Cam_Driver.c ****     full_data_ready_payload->size = wholeFrameSize;
 1658              		.loc 1 487 5 is_stmt 1 view .LVU490
 487:Cam/Src/F7Cam_Driver.c ****     full_data_ready_payload->size = wholeFrameSize;
 1659              		.loc 1 487 44 is_stmt 0 view .LVU491
 1660 012c 104B     		ldr	r3, .L90+28
 1661 012e 04FB0633 		mla	r3, r4, r6, r3
 487:Cam/Src/F7Cam_Driver.c ****     full_data_ready_payload->size = wholeFrameSize;
 1662              		.loc 1 487 35 view .LVU492
 1663 0132 0360     		str	r3, [r0]
 488:Cam/Src/F7Cam_Driver.c **** 
 1664              		.loc 1 488 5 is_stmt 1 view .LVU493
 488:Cam/Src/F7Cam_Driver.c **** 
 1665              		.loc 1 488 35 is_stmt 0 view .LVU494
 1666 0134 4560     		str	r5, [r0, #4]
 490:Cam/Src/F7Cam_Driver.c ****       DCMIDataReady,
 1667              		.loc 1 490 5 is_stmt 1 view .LVU495
 490:Cam/Src/F7Cam_Driver.c ****       DCMIDataReady,
 1668              		.loc 1 490 11 is_stmt 0 view .LVU496
 1669 0136 0123     		movs	r3, #1
 1670 0138 8DF80830 		strb	r3, [sp, #8]
 1671 013c 0390     		str	r0, [sp, #12]
 496:Cam/Src/F7Cam_Driver.c ****     //}
 1672              		.loc 1 496 7 is_stmt 1 view .LVU497
 1673 013e 02AB     		add	r3, sp, #8
 1674 0140 93E80300 		ldm	r3, {r0, r1}
 1675              	.LVL111:
 496:Cam/Src/F7Cam_Driver.c ****     //}
 1676              		.loc 1 496 7 is_stmt 0 view .LVU498
 1677 0144 FFF7FEFF 		bl	push_event_queue
 1678              	.LVL112:
 499:Cam/Src/F7Cam_Driver.c **** 
 1679              		.loc 1 499 5 is_stmt 1 view .LVU499
 499:Cam/Src/F7Cam_Driver.c **** 
 1680              		.loc 1 499 15 is_stmt 0 view .LVU500
 1681 0148 0A4B     		ldr	r3, .L90+32
 1682 014a 1D80     		strh	r5, [r3]	@ movhi
 1683 014c ACE7     		b	.L81
 1684              	.LVL113:
 1685              	.L83:
 499:Cam/Src/F7Cam_Driver.c **** 
 1686              		.loc 1 499 15 view .LVU501
 1687              	.LBE15:
 504:Cam/Src/F7Cam_Driver.c ****   
 1688              		.loc 1 504 27 view .LVU502
 1689 014e 0023     		movs	r3, #0
 1690 0150 B5E7     		b	.L82
 1691              	.L91:
 1692 0152 00BF     		.align	2
 1693              	.L90:
 1694 0154 00000000 		.word	capture_data
 1695 0158 00000000 		.word	frameCounter
 1696 015c 00000000 		.word	loadingCounter
 1697 0160 00000000 		.word	buffer_position
 1698 0164 00000000 		.word	current_frame_start_pos
ARM GAS  /var/folders/fz/x0kldt2j7vs_j4slv3pyc44m0000gp/T//ccIn6myf.s 			page 54


 1699 0168 0C000000 		.word	.LC3
 1700 016c 00000000 		.word	total_buffer_fragments
 1701 0170 00000000 		.word	cam_fb
 1702 0174 00000000 		.word	JPEG_Size
 1703 0178 00000000 		.word	firstVsync
 1704 017c 00000000 		.word	.LC2
 1705 0180 00000000 		.word	FIFO_SIZE
 1706              		.cfi_endproc
 1707              	.LFE156:
 1709              		.section	.text.BSP_CAMERA_FrameEventCallback,"ax",%progbits
 1710              		.align	1
 1711              		.weak	BSP_CAMERA_FrameEventCallback
 1712              		.syntax unified
 1713              		.thumb
 1714              		.thumb_func
 1716              	BSP_CAMERA_FrameEventCallback:
 1717              	.LFB159:
 552:Cam/Src/F7Cam_Driver.c ****   /* NOTE : This function Should not be modified, when the callback is needed,
 1718              		.loc 1 552 1 is_stmt 1 view -0
 1719              		.cfi_startproc
 1720              		@ args = 0, pretend = 0, frame = 0
 1721              		@ frame_needed = 0, uses_anonymous_args = 0
 1722              		@ link register save eliminated.
 556:Cam/Src/F7Cam_Driver.c **** 
 1723              		.loc 1 556 1 view .LVU504
 1724 0000 7047     		bx	lr
 1725              		.cfi_endproc
 1726              	.LFE159:
 1728              		.section	.text.HAL_DCMI_FrameEventCallback,"ax",%progbits
 1729              		.align	1
 1730              		.global	HAL_DCMI_FrameEventCallback
 1731              		.syntax unified
 1732              		.thumb
 1733              		.thumb_func
 1735              	HAL_DCMI_FrameEventCallback:
 1736              	.LVL114:
 1737              	.LFB158:
 543:Cam/Src/F7Cam_Driver.c ****   BSP_CAMERA_FrameEventCallback();
 1738              		.loc 1 543 1 view -0
 1739              		.cfi_startproc
 1740              		@ args = 0, pretend = 0, frame = 0
 1741              		@ frame_needed = 0, uses_anonymous_args = 0
 543:Cam/Src/F7Cam_Driver.c ****   BSP_CAMERA_FrameEventCallback();
 1742              		.loc 1 543 1 is_stmt 0 view .LVU506
 1743 0000 08B5     		push	{r3, lr}
 1744              		.cfi_def_cfa_offset 8
 1745              		.cfi_offset 3, -8
 1746              		.cfi_offset 14, -4
 544:Cam/Src/F7Cam_Driver.c **** }
 1747              		.loc 1 544 3 is_stmt 1 view .LVU507
 1748 0002 FFF7FEFF 		bl	BSP_CAMERA_FrameEventCallback
 1749              	.LVL115:
 545:Cam/Src/F7Cam_Driver.c **** 
 1750              		.loc 1 545 1 is_stmt 0 view .LVU508
 1751 0006 08BD     		pop	{r3, pc}
 1752              		.cfi_endproc
 1753              	.LFE158:
ARM GAS  /var/folders/fz/x0kldt2j7vs_j4slv3pyc44m0000gp/T//ccIn6myf.s 			page 55


 1755              		.section	.text.BSP_CAMERA_ErrorCallback,"ax",%progbits
 1756              		.align	1
 1757              		.weak	BSP_CAMERA_ErrorCallback
 1758              		.syntax unified
 1759              		.thumb
 1760              		.thumb_func
 1762              	BSP_CAMERA_ErrorCallback:
 1763              	.LFB161:
 573:Cam/Src/F7Cam_Driver.c ****   /* NOTE : This function Should not be modified, when the callback is needed,
 1764              		.loc 1 573 1 is_stmt 1 view -0
 1765              		.cfi_startproc
 1766              		@ args = 0, pretend = 0, frame = 0
 1767              		@ frame_needed = 0, uses_anonymous_args = 0
 1768              		@ link register save eliminated.
 577:Cam/Src/F7Cam_Driver.c **** 
 1769              		.loc 1 577 1 view .LVU510
 1770 0000 7047     		bx	lr
 1771              		.cfi_endproc
 1772              	.LFE161:
 1774              		.section	.text.HAL_DCMI_ErrorCallback,"ax",%progbits
 1775              		.align	1
 1776              		.global	HAL_DCMI_ErrorCallback
 1777              		.syntax unified
 1778              		.thumb
 1779              		.thumb_func
 1781              	HAL_DCMI_ErrorCallback:
 1782              	.LVL116:
 1783              	.LFB160:
 564:Cam/Src/F7Cam_Driver.c ****   BSP_CAMERA_ErrorCallback();
 1784              		.loc 1 564 1 view -0
 1785              		.cfi_startproc
 1786              		@ args = 0, pretend = 0, frame = 0
 1787              		@ frame_needed = 0, uses_anonymous_args = 0
 564:Cam/Src/F7Cam_Driver.c ****   BSP_CAMERA_ErrorCallback();
 1788              		.loc 1 564 1 is_stmt 0 view .LVU512
 1789 0000 08B5     		push	{r3, lr}
 1790              		.cfi_def_cfa_offset 8
 1791              		.cfi_offset 3, -8
 1792              		.cfi_offset 14, -4
 565:Cam/Src/F7Cam_Driver.c **** }
 1793              		.loc 1 565 3 is_stmt 1 view .LVU513
 1794 0002 FFF7FEFF 		bl	BSP_CAMERA_ErrorCallback
 1795              	.LVL117:
 566:Cam/Src/F7Cam_Driver.c **** 
 1796              		.loc 1 566 1 is_stmt 0 view .LVU514
 1797 0006 08BD     		pop	{r3, pc}
 1798              		.cfi_endproc
 1799              	.LFE160:
 1801              		.section	.rodata.FPSCalculate.str1.4,"aMS",%progbits,1
 1802              		.align	2
 1803              	.LC4:
 1804 0000 0A465053 		.ascii	"\012FPS:%i\012\000"
 1804      3A25690A 
 1804      00
 1805              		.section	.text.FPSCalculate,"ax",%progbits
 1806              		.align	1
 1807              		.global	FPSCalculate
ARM GAS  /var/folders/fz/x0kldt2j7vs_j4slv3pyc44m0000gp/T//ccIn6myf.s 			page 56


 1808              		.syntax unified
 1809              		.thumb
 1810              		.thumb_func
 1812              	FPSCalculate:
 1813              	.LFB162:
 584:Cam/Src/F7Cam_Driver.c ****   printf("\nFPS:%i\n",frameCounter);
 1814              		.loc 1 584 25 is_stmt 1 view -0
 1815              		.cfi_startproc
 1816              		@ args = 0, pretend = 0, frame = 0
 1817              		@ frame_needed = 0, uses_anonymous_args = 0
 1818 0000 10B5     		push	{r4, lr}
 1819              		.cfi_def_cfa_offset 8
 1820              		.cfi_offset 4, -8
 1821              		.cfi_offset 14, -4
 585:Cam/Src/F7Cam_Driver.c **** 	frameCounter = 0;
 1822              		.loc 1 585 3 view .LVU516
 1823 0002 044C     		ldr	r4, .L100
 1824 0004 2178     		ldrb	r1, [r4]	@ zero_extendqisi2
 1825 0006 0448     		ldr	r0, .L100+4
 1826 0008 FFF7FEFF 		bl	printf
 1827              	.LVL118:
 586:Cam/Src/F7Cam_Driver.c **** }
 1828              		.loc 1 586 2 view .LVU517
 586:Cam/Src/F7Cam_Driver.c **** }
 1829              		.loc 1 586 15 is_stmt 0 view .LVU518
 1830 000c 0023     		movs	r3, #0
 1831 000e 2370     		strb	r3, [r4]
 587:Cam/Src/F7Cam_Driver.c **** 
 1832              		.loc 1 587 1 view .LVU519
 1833 0010 10BD     		pop	{r4, pc}
 1834              	.L101:
 1835 0012 00BF     		.align	2
 1836              	.L100:
 1837 0014 00000000 		.word	frameCounter
 1838 0018 00000000 		.word	.LC4
 1839              		.cfi_endproc
 1840              	.LFE162:
 1842              		.section	.rodata.JPEG_search_Full_Frame.str1.4,"aMS",%progbits,1
 1843              		.align	2
 1844              	.LC5:
 1845 0000 0A736561 		.ascii	"\012searching frame\000"
 1845      72636869 
 1845      6E672066 
 1845      72616D65 
 1845      00
 1846 0011 000000   		.align	2
 1847              	.LC6:
 1848 0014 0A666F75 		.ascii	"\012found header\000"
 1848      6E642068 
 1848      65616465 
 1848      7200
 1849 0022 0000     		.align	2
 1850              	.LC7:
 1851 0024 0A666F75 		.ascii	"\012found footer\000"
 1851      6E642066 
 1851      6F6F7465 
 1851      7200
ARM GAS  /var/folders/fz/x0kldt2j7vs_j4slv3pyc44m0000gp/T//ccIn6myf.s 			page 57


 1852 0032 0000     		.align	2
 1853              	.LC8:
 1854 0034 70616464 		.ascii	"padding :  %d \015\012\000"
 1854      696E6720 
 1854      3A202025 
 1854      64200D0A 
 1854      00
 1855              		.section	.text.JPEG_search_Full_Frame,"ax",%progbits
 1856              		.align	1
 1857              		.global	JPEG_search_Full_Frame
 1858              		.syntax unified
 1859              		.thumb
 1860              		.thumb_func
 1862              	JPEG_search_Full_Frame:
 1863              	.LFB165:
 691:Cam/Src/F7Cam_Driver.c **** 			printf("\nsearching frame\n");
 1864              		.loc 1 691 35 is_stmt 1 view -0
 1865              		.cfi_startproc
 1866              		@ args = 0, pretend = 0, frame = 0
 1867              		@ frame_needed = 0, uses_anonymous_args = 0
 1868 0000 2DE9F843 		push	{r3, r4, r5, r6, r7, r8, r9, lr}
 1869              		.cfi_def_cfa_offset 32
 1870              		.cfi_offset 3, -32
 1871              		.cfi_offset 4, -28
 1872              		.cfi_offset 5, -24
 1873              		.cfi_offset 6, -20
 1874              		.cfi_offset 7, -16
 1875              		.cfi_offset 8, -12
 1876              		.cfi_offset 9, -8
 1877              		.cfi_offset 14, -4
 692:Cam/Src/F7Cam_Driver.c **** 			//uint8_t *p;
 1878              		.loc 1 692 4 view .LVU521
 1879 0004 2C48     		ldr	r0, .L115
 1880 0006 FFF7FEFF 		bl	puts
 1881              	.LVL119:
 694:Cam/Src/F7Cam_Driver.c **** 	        uint8_t  head=0;
 1882              		.loc 1 694 10 view .LVU522
 695:Cam/Src/F7Cam_Driver.c **** 	        uint8_t found_jpeg_footer = 0;
 1883              		.loc 1 695 10 view .LVU523
 696:Cam/Src/F7Cam_Driver.c **** 	        uint8_t jpeg_frame_counter = 1;
 1884              		.loc 1 696 10 view .LVU524
 697:Cam/Src/F7Cam_Driver.c **** 
 1885              		.loc 1 697 10 view .LVU525
 699:Cam/Src/F7Cam_Driver.c **** 
 1886              		.loc 1 699 10 view .LVU526
 1887 000a 2C48     		ldr	r0, .L115+4
 1888 000c FFF7FEFF 		bl	HAL_DCMI_Stop
 1889              	.LVL120:
 703:Cam/Src/F7Cam_Driver.c **** 	        {
 1890              		.loc 1 703 10 view .LVU527
 697:Cam/Src/F7Cam_Driver.c **** 
 1891              		.loc 1 697 18 is_stmt 0 view .LVU528
 1892 0010 0126     		movs	r6, #1
 696:Cam/Src/F7Cam_Driver.c **** 	        uint8_t jpeg_frame_counter = 1;
 1893              		.loc 1 696 18 view .LVU529
 1894 0012 0022     		movs	r2, #0
 695:Cam/Src/F7Cam_Driver.c **** 	        uint8_t found_jpeg_footer = 0;
ARM GAS  /var/folders/fz/x0kldt2j7vs_j4slv3pyc44m0000gp/T//ccIn6myf.s 			page 58


 1895              		.loc 1 695 19 view .LVU530
 1896 0014 1746     		mov	r7, r2
 694:Cam/Src/F7Cam_Driver.c **** 	        uint8_t  head=0;
 1897              		.loc 1 694 44 view .LVU531
 1898 0016 1546     		mov	r5, r2
 694:Cam/Src/F7Cam_Driver.c **** 	        uint8_t  head=0;
 1899              		.loc 1 694 34 view .LVU532
 1900 0018 9046     		mov	r8, r2
 694:Cam/Src/F7Cam_Driver.c **** 	        uint8_t  head=0;
 1901              		.loc 1 694 23 view .LVU533
 1902 001a 9146     		mov	r9, r2
 703:Cam/Src/F7Cam_Driver.c **** 	        {
 1903              		.loc 1 703 15 view .LVU534
 1904 001c 1446     		mov	r4, r2
 703:Cam/Src/F7Cam_Driver.c **** 	        {
 1905              		.loc 1 703 10 view .LVU535
 1906 001e 24E0     		b	.L103
 1907              	.LVL121:
 1908              	.L112:
 705:Cam/Src/F7Cam_Driver.c **** 	                {
 1909              		.loc 1 705 49 discriminator 1 view .LVU536
 1910 0020 631C     		adds	r3, r4, #1
 705:Cam/Src/F7Cam_Driver.c **** 	                {
 1911              		.loc 1 705 47 discriminator 1 view .LVU537
 1912 0022 2749     		ldr	r1, .L115+8
 1913 0024 CB5C     		ldrb	r3, [r1, r3]	@ zero_extendqisi2
 705:Cam/Src/F7Cam_Driver.c **** 	                {
 1914              		.loc 1 705 38 discriminator 1 view .LVU538
 1915 0026 D82B     		cmp	r3, #216
 1916 0028 26D1     		bne	.L104
 707:Cam/Src/F7Cam_Driver.c **** 	                		//printf("%i, total size: %d \r\n", jpeg_frame_counter, (jpglen + padding_counte
 1917              		.loc 1 707 20 is_stmt 1 view .LVU539
 1918              	.LVL122:
 709:Cam/Src/F7Cam_Driver.c **** 	                		padding_counter = 0;
 1919              		.loc 1 709 20 view .LVU540
 709:Cam/Src/F7Cam_Driver.c **** 	                		padding_counter = 0;
 1920              		.loc 1 709 74 is_stmt 0 view .LVU541
 1921 002a 4544     		add	r5, r5, r8
 1922              	.LVL123:
 709:Cam/Src/F7Cam_Driver.c **** 	                		padding_counter = 0;
 1923              		.loc 1 709 74 view .LVU542
 1924 002c ADB2     		uxth	r5, r5
 709:Cam/Src/F7Cam_Driver.c **** 	                		padding_counter = 0;
 1925              		.loc 1 709 60 view .LVU543
 1926 002e 0136     		adds	r6, r6, #1
 1927              	.LVL124:
 709:Cam/Src/F7Cam_Driver.c **** 	                		padding_counter = 0;
 1928              		.loc 1 709 92 view .LVU544
 1929 0030 0135     		adds	r5, r5, #1
 709:Cam/Src/F7Cam_Driver.c **** 	                		padding_counter = 0;
 1930              		.loc 1 709 65 view .LVU545
 1931 0032 244B     		ldr	r3, .L115+12
 1932 0034 23F81650 		strh	r5, [r3, r6, lsl #1]	@ movhi
 710:Cam/Src/F7Cam_Driver.c **** 	                		jpeg_frame_counter++;
 1933              		.loc 1 710 20 is_stmt 1 view .LVU546
 1934              	.LVL125:
 711:Cam/Src/F7Cam_Driver.c **** 
ARM GAS  /var/folders/fz/x0kldt2j7vs_j4slv3pyc44m0000gp/T//ccIn6myf.s 			page 59


 1935              		.loc 1 711 20 view .LVU547
 711:Cam/Src/F7Cam_Driver.c **** 
 1936              		.loc 1 711 38 is_stmt 0 view .LVU548
 1937 0038 F6B2     		uxtb	r6, r6
 1938              	.LVL126:
 715:Cam/Src/F7Cam_Driver.c **** 	                        head=1;	// Already found  FF D8
 1939              		.loc 1 715 26 is_stmt 1 view .LVU549
 716:Cam/Src/F7Cam_Driver.c **** 	                        printf("\nfound header\n");
 1940              		.loc 1 716 26 view .LVU550
 717:Cam/Src/F7Cam_Driver.c **** 	                }
 1941              		.loc 1 717 26 view .LVU551
 1942 003a 2348     		ldr	r0, .L115+16
 1943 003c FFF7FEFF 		bl	puts
 1944              	.LVL127:
 715:Cam/Src/F7Cam_Driver.c **** 	                        head=1;	// Already found  FF D8
 1945              		.loc 1 715 34 is_stmt 0 view .LVU552
 1946 0040 A146     		mov	r9, r4
 707:Cam/Src/F7Cam_Driver.c **** 	                		//printf("%i, total size: %d \r\n", jpeg_frame_counter, (jpglen + padding_counte
 1947              		.loc 1 707 38 view .LVU553
 1948 0042 0022     		movs	r2, #0
 716:Cam/Src/F7Cam_Driver.c **** 	                        printf("\nfound header\n");
 1949              		.loc 1 716 30 view .LVU554
 1950 0044 0127     		movs	r7, #1
 710:Cam/Src/F7Cam_Driver.c **** 	                		jpeg_frame_counter++;
 1951              		.loc 1 710 36 view .LVU555
 1952 0046 1546     		mov	r5, r2
 1953 0048 16E0     		b	.L104
 1954              	.LVL128:
 1955              	.L113:
 719:Cam/Src/F7Cam_Driver.c **** 	                {
 1956              		.loc 1 719 49 discriminator 1 view .LVU556
 1957 004a 631C     		adds	r3, r4, #1
 719:Cam/Src/F7Cam_Driver.c **** 	                {
 1958              		.loc 1 719 47 discriminator 1 view .LVU557
 1959 004c 1C49     		ldr	r1, .L115+8
 1960 004e CB5C     		ldrb	r3, [r1, r3]	@ zero_extendqisi2
 719:Cam/Src/F7Cam_Driver.c **** 	                {
 1961              		.loc 1 719 38 discriminator 1 view .LVU558
 1962 0050 D92B     		cmp	r3, #217
 1963 0052 15D1     		bne	.L105
 719:Cam/Src/F7Cam_Driver.c **** 	                {
 1964              		.loc 1 719 59 discriminator 2 view .LVU559
 1965 0054 A7B1     		cbz	r7, .L105
 721:Cam/Src/F7Cam_Driver.c **** 	                        jpglen=i-jpgstart+2;
 1966              		.loc 1 721 26 is_stmt 1 view .LVU560
 1967 0056 1D48     		ldr	r0, .L115+20
 1968 0058 FFF7FEFF 		bl	puts
 1969              	.LVL129:
 722:Cam/Src/F7Cam_Driver.c **** 	                        found_jpeg_footer = 1;
 1970              		.loc 1 722 26 view .LVU561
 722:Cam/Src/F7Cam_Driver.c **** 	                        found_jpeg_footer = 1;
 1971              		.loc 1 722 34 is_stmt 0 view .LVU562
 1972 005c A4EB0908 		sub	r8, r4, r9
 1973              	.LVL130:
 722:Cam/Src/F7Cam_Driver.c **** 	                        found_jpeg_footer = 1;
 1974              		.loc 1 722 32 view .LVU563
 1975 0060 08F10208 		add	r8, r8, #2
ARM GAS  /var/folders/fz/x0kldt2j7vs_j4slv3pyc44m0000gp/T//ccIn6myf.s 			page 60


 1976              	.LVL131:
 723:Cam/Src/F7Cam_Driver.c **** 	                }
 1977              		.loc 1 723 26 is_stmt 1 view .LVU564
 725:Cam/Src/F7Cam_Driver.c **** 	                	padding_counter++;
 1978              		.loc 1 725 18 view .LVU565
 723:Cam/Src/F7Cam_Driver.c **** 	                }
 1979              		.loc 1 723 44 is_stmt 0 view .LVU566
 1980 0064 3A46     		mov	r2, r7
 1981 0066 0DE0     		b	.L106
 1982              	.LVL132:
 1983              	.L107:
 703:Cam/Src/F7Cam_Driver.c **** 	        {
 1984              		.loc 1 703 34 is_stmt 1 discriminator 2 view .LVU567
 1985 0068 0134     		adds	r4, r4, #1
 1986              	.LVL133:
 1987              	.L103:
 703:Cam/Src/F7Cam_Driver.c **** 	        {
 1988              		.loc 1 703 19 discriminator 1 view .LVU568
 1989 006a B4F5C83F 		cmp	r4, #102400
 1990 006e 18D2     		bcs	.L111
 705:Cam/Src/F7Cam_Driver.c **** 	                {
 1991              		.loc 1 705 18 view .LVU569
 705:Cam/Src/F7Cam_Driver.c **** 	                {
 1992              		.loc 1 705 28 is_stmt 0 view .LVU570
 1993 0070 134B     		ldr	r3, .L115+8
 1994 0072 1B5D     		ldrb	r3, [r3, r4]	@ zero_extendqisi2
 705:Cam/Src/F7Cam_Driver.c **** 	                {
 1995              		.loc 1 705 20 view .LVU571
 1996 0074 FF2B     		cmp	r3, #255
 1997 0076 D3D0     		beq	.L112
 1998              	.LVL134:
 1999              	.L104:
 719:Cam/Src/F7Cam_Driver.c **** 	                {
 2000              		.loc 1 719 18 is_stmt 1 view .LVU572
 719:Cam/Src/F7Cam_Driver.c **** 	                {
 2001              		.loc 1 719 28 is_stmt 0 view .LVU573
 2002 0078 114B     		ldr	r3, .L115+8
 2003 007a 1B5D     		ldrb	r3, [r3, r4]	@ zero_extendqisi2
 719:Cam/Src/F7Cam_Driver.c **** 	                {
 2004              		.loc 1 719 20 view .LVU574
 2005 007c FF2B     		cmp	r3, #255
 2006 007e E4D0     		beq	.L113
 2007              	.L105:
 725:Cam/Src/F7Cam_Driver.c **** 	                	padding_counter++;
 2008              		.loc 1 725 18 is_stmt 1 view .LVU575
 725:Cam/Src/F7Cam_Driver.c **** 	                	padding_counter++;
 2009              		.loc 1 725 20 is_stmt 0 view .LVU576
 2010 0080 012A     		cmp	r2, #1
 2011 0082 F1D1     		bne	.L107
 2012              	.LVL135:
 2013              	.L106:
 725:Cam/Src/F7Cam_Driver.c **** 	                	padding_counter++;
 2014              		.loc 1 725 57 discriminator 1 view .LVU577
 2015 0084 0E4B     		ldr	r3, .L115+8
 2016 0086 1B5D     		ldrb	r3, [r3, r4]	@ zero_extendqisi2
 725:Cam/Src/F7Cam_Driver.c **** 	                	padding_counter++;
 2017              		.loc 1 725 47 discriminator 1 view .LVU578
ARM GAS  /var/folders/fz/x0kldt2j7vs_j4slv3pyc44m0000gp/T//ccIn6myf.s 			page 61


 2018 0088 002B     		cmp	r3, #0
 2019 008a EDD1     		bne	.L107
 725:Cam/Src/F7Cam_Driver.c **** 	                	padding_counter++;
 2020              		.loc 1 725 83 discriminator 2 view .LVU579
 2021 008c 631C     		adds	r3, r4, #1
 725:Cam/Src/F7Cam_Driver.c **** 	                	padding_counter++;
 2022              		.loc 1 725 81 discriminator 2 view .LVU580
 2023 008e 0C49     		ldr	r1, .L115+8
 2024 0090 CB5C     		ldrb	r3, [r1, r3]	@ zero_extendqisi2
 725:Cam/Src/F7Cam_Driver.c **** 	                	padding_counter++;
 2025              		.loc 1 725 71 discriminator 2 view .LVU581
 2026 0092 FF2B     		cmp	r3, #255
 2027 0094 E8D0     		beq	.L107
 725:Cam/Src/F7Cam_Driver.c **** 	                	padding_counter++;
 2028              		.loc 1 725 104 discriminator 3 view .LVU582
 2029 0096 A31C     		adds	r3, r4, #2
 725:Cam/Src/F7Cam_Driver.c **** 	                	padding_counter++;
 2030              		.loc 1 725 102 discriminator 3 view .LVU583
 2031 0098 CB5C     		ldrb	r3, [r1, r3]	@ zero_extendqisi2
 725:Cam/Src/F7Cam_Driver.c **** 	                	padding_counter++;
 2032              		.loc 1 725 93 discriminator 3 view .LVU584
 2033 009a D82B     		cmp	r3, #216
 2034 009c E4D0     		beq	.L107
 726:Cam/Src/F7Cam_Driver.c **** 	                }
 2035              		.loc 1 726 19 is_stmt 1 view .LVU585
 726:Cam/Src/F7Cam_Driver.c **** 	                }
 2036              		.loc 1 726 34 is_stmt 0 view .LVU586
 2037 009e 0135     		adds	r5, r5, #1
 2038              	.LVL136:
 726:Cam/Src/F7Cam_Driver.c **** 	                }
 2039              		.loc 1 726 34 view .LVU587
 2040 00a0 E2E7     		b	.L107
 2041              	.LVL137:
 2042              	.L111:
 730:Cam/Src/F7Cam_Driver.c **** 	        {
 2043              		.loc 1 730 10 is_stmt 1 view .LVU588
 730:Cam/Src/F7Cam_Driver.c **** 	        {
 2044              		.loc 1 730 12 is_stmt 0 view .LVU589
 2045 00a2 B8F1000F 		cmp	r8, #0
 2046 00a6 01D1     		bne	.L114
 2047              	.LVL138:
 2048              	.L102:
 736:Cam/Src/F7Cam_Driver.c **** 
 2049              		.loc 1 736 1 view .LVU590
 2050 00a8 BDE8F883 		pop	{r3, r4, r5, r6, r7, r8, r9, pc}
 2051              	.LVL139:
 2052              	.L114:
 733:Cam/Src/F7Cam_Driver.c **** 	                //printf("jpgstart :  %d \r\n" , jpgstart);
 2053              		.loc 1 733 18 is_stmt 1 view .LVU591
 2054 00ac 2946     		mov	r1, r5
 2055 00ae 0848     		ldr	r0, .L115+24
 2056 00b0 FFF7FEFF 		bl	printf
 2057              	.LVL140:
 736:Cam/Src/F7Cam_Driver.c **** 
 2058              		.loc 1 736 1 is_stmt 0 view .LVU592
 2059 00b4 F8E7     		b	.L102
 2060              	.L116:
ARM GAS  /var/folders/fz/x0kldt2j7vs_j4slv3pyc44m0000gp/T//ccIn6myf.s 			page 62


 2061 00b6 00BF     		.align	2
 2062              	.L115:
 2063 00b8 00000000 		.word	.LC5
 2064 00bc 00000000 		.word	hDcmiHandler
 2065 00c0 00000000 		.word	cam_fb
 2066 00c4 00000000 		.word	JPEG_HEX_SIZE_BUFFER
 2067 00c8 14000000 		.word	.LC6
 2068 00cc 24000000 		.word	.LC7
 2069 00d0 34000000 		.word	.LC8
 2070              		.cfi_endproc
 2071              	.LFE165:
 2073              		.section	.rodata.HAL_DCMI_Start_DMA2.str1.4,"aMS",%progbits,1
 2074              		.align	2
 2075              	.LC9:
 2076 0000 0A535441 		.ascii	"\012STARTED DMA STREAM SMALL\000"
 2076      52544544 
 2076      20444D41 
 2076      20535452 
 2076      45414D20 
 2077              		.section	.text.HAL_DCMI_Start_DMA2,"ax",%progbits
 2078              		.align	1
 2079              		.global	HAL_DCMI_Start_DMA2
 2080              		.syntax unified
 2081              		.thumb
 2082              		.thumb_func
 2084              	HAL_DCMI_Start_DMA2:
 2085              	.LVL141:
 2086              	.LFB166:
 741:Cam/Src/F7Cam_Driver.c ****   // Convert Length to DMA data units
 2087              		.loc 1 741 1 is_stmt 1 view -0
 2088              		.cfi_startproc
 2089              		@ args = 0, pretend = 0, frame = 0
 2090              		@ frame_needed = 0, uses_anonymous_args = 0
 741:Cam/Src/F7Cam_Driver.c ****   // Convert Length to DMA data units
 2091              		.loc 1 741 1 is_stmt 0 view .LVU594
 2092 0000 70B5     		push	{r4, r5, r6, lr}
 2093              		.cfi_def_cfa_offset 16
 2094              		.cfi_offset 4, -16
 2095              		.cfi_offset 5, -12
 2096              		.cfi_offset 6, -8
 2097              		.cfi_offset 14, -4
 2098 0002 82B0     		sub	sp, sp, #8
 2099              		.cfi_def_cfa_offset 24
 2100 0004 0446     		mov	r4, r0
 2101 0006 1646     		mov	r6, r2
 2102 0008 1D46     		mov	r5, r3
 743:Cam/Src/F7Cam_Driver.c ****     case DMA_PDATAALIGN_BYTE:
 2103              		.loc 1 743 3 is_stmt 1 view .LVU595
 743:Cam/Src/F7Cam_Driver.c ****     case DMA_PDATAALIGN_BYTE:
 2104              		.loc 1 743 16 is_stmt 0 view .LVU596
 2105 000a 836C     		ldr	r3, [r0, #72]
 2106              	.LVL142:
 743:Cam/Src/F7Cam_Driver.c ****     case DMA_PDATAALIGN_BYTE:
 2107              		.loc 1 743 34 view .LVU597
 2108 000c 5B69     		ldr	r3, [r3, #20]
 743:Cam/Src/F7Cam_Driver.c ****     case DMA_PDATAALIGN_BYTE:
 2109              		.loc 1 743 3 view .LVU598
ARM GAS  /var/folders/fz/x0kldt2j7vs_j4slv3pyc44m0000gp/T//ccIn6myf.s 			page 63


 2110 000e B3F5006F 		cmp	r3, #2048
 2111 0012 32D0     		beq	.L118
 2112 0014 B3F5805F 		cmp	r3, #4096
 2113 0018 31D0     		beq	.L119
 2114              	.L120:
 758:Cam/Src/F7Cam_Driver.c **** 
 2115              		.loc 1 758 3 is_stmt 1 view .LVU599
 2116              	.LVL143:
 761:Cam/Src/F7Cam_Driver.c **** 
 2117              		.loc 1 761 3 view .LVU600
 764:Cam/Src/F7Cam_Driver.c **** 
 2118              		.loc 1 764 3 view .LVU601
 764:Cam/Src/F7Cam_Driver.c **** 
 2119              		.loc 1 764 3 view .LVU602
 2120 001a 94F83430 		ldrb	r3, [r4, #52]	@ zero_extendqisi2
 2121 001e 012B     		cmp	r3, #1
 2122 0020 64D0     		beq	.L126
 764:Cam/Src/F7Cam_Driver.c **** 
 2123              		.loc 1 764 3 discriminator 2 view .LVU603
 2124 0022 0123     		movs	r3, #1
 2125 0024 84F83430 		strb	r3, [r4, #52]
 764:Cam/Src/F7Cam_Driver.c **** 
 2126              		.loc 1 764 3 discriminator 2 view .LVU604
 767:Cam/Src/F7Cam_Driver.c **** 
 2127              		.loc 1 767 3 discriminator 2 view .LVU605
 767:Cam/Src/F7Cam_Driver.c **** 
 2128              		.loc 1 767 16 is_stmt 0 discriminator 2 view .LVU606
 2129 0028 0223     		movs	r3, #2
 2130 002a 84F83530 		strb	r3, [r4, #53]
 770:Cam/Src/F7Cam_Driver.c **** 
 2131              		.loc 1 770 3 is_stmt 1 discriminator 2 view .LVU607
 2132 002e 2268     		ldr	r2, [r4]
 2133              	.LVL144:
 770:Cam/Src/F7Cam_Driver.c **** 
 2134              		.loc 1 770 3 is_stmt 0 discriminator 2 view .LVU608
 2135 0030 1368     		ldr	r3, [r2]
 2136 0032 43F48043 		orr	r3, r3, #16384
 2137 0036 1360     		str	r3, [r2]
 773:Cam/Src/F7Cam_Driver.c ****   hdcmi->Instance->CR |= (uint32_t)(DCMI_Mode);
 2138              		.loc 1 773 3 is_stmt 1 discriminator 2 view .LVU609
 773:Cam/Src/F7Cam_Driver.c ****   hdcmi->Instance->CR |= (uint32_t)(DCMI_Mode);
 2139              		.loc 1 773 8 is_stmt 0 discriminator 2 view .LVU610
 2140 0038 2268     		ldr	r2, [r4]
 773:Cam/Src/F7Cam_Driver.c ****   hdcmi->Instance->CR |= (uint32_t)(DCMI_Mode);
 2141              		.loc 1 773 18 discriminator 2 view .LVU611
 2142 003a 1368     		ldr	r3, [r2]
 773:Cam/Src/F7Cam_Driver.c ****   hdcmi->Instance->CR |= (uint32_t)(DCMI_Mode);
 2143              		.loc 1 773 23 discriminator 2 view .LVU612
 2144 003c 23F00203 		bic	r3, r3, #2
 2145 0040 1360     		str	r3, [r2]
 774:Cam/Src/F7Cam_Driver.c **** 
 2146              		.loc 1 774 3 is_stmt 1 discriminator 2 view .LVU613
 774:Cam/Src/F7Cam_Driver.c **** 
 2147              		.loc 1 774 8 is_stmt 0 discriminator 2 view .LVU614
 2148 0042 2268     		ldr	r2, [r4]
 774:Cam/Src/F7Cam_Driver.c **** 
 2149              		.loc 1 774 18 discriminator 2 view .LVU615
ARM GAS  /var/folders/fz/x0kldt2j7vs_j4slv3pyc44m0000gp/T//ccIn6myf.s 			page 64


 2150 0044 1368     		ldr	r3, [r2]
 774:Cam/Src/F7Cam_Driver.c **** 
 2151              		.loc 1 774 23 discriminator 2 view .LVU616
 2152 0046 0B43     		orrs	r3, r3, r1
 2153 0048 1360     		str	r3, [r2]
 777:Cam/Src/F7Cam_Driver.c **** 
 2154              		.loc 1 777 3 is_stmt 1 discriminator 2 view .LVU617
 777:Cam/Src/F7Cam_Driver.c **** 
 2155              		.loc 1 777 8 is_stmt 0 discriminator 2 view .LVU618
 2156 004a A36C     		ldr	r3, [r4, #72]
 777:Cam/Src/F7Cam_Driver.c **** 
 2157              		.loc 1 777 39 discriminator 2 view .LVU619
 2158 004c 294A     		ldr	r2, .L131
 2159 004e DA63     		str	r2, [r3, #60]
 780:Cam/Src/F7Cam_Driver.c **** 
 2160              		.loc 1 780 3 is_stmt 1 discriminator 2 view .LVU620
 780:Cam/Src/F7Cam_Driver.c **** 
 2161              		.loc 1 780 8 is_stmt 0 discriminator 2 view .LVU621
 2162 0050 A36C     		ldr	r3, [r4, #72]
 780:Cam/Src/F7Cam_Driver.c **** 
 2163              		.loc 1 780 40 discriminator 2 view .LVU622
 2164 0052 294A     		ldr	r2, .L131+4
 2165 0054 DA64     		str	r2, [r3, #76]
 783:Cam/Src/F7Cam_Driver.c **** 
 2166              		.loc 1 783 3 is_stmt 1 discriminator 2 view .LVU623
 783:Cam/Src/F7Cam_Driver.c **** 
 2167              		.loc 1 783 8 is_stmt 0 discriminator 2 view .LVU624
 2168 0056 A26C     		ldr	r2, [r4, #72]
 783:Cam/Src/F7Cam_Driver.c **** 
 2169              		.loc 1 783 40 discriminator 2 view .LVU625
 2170 0058 0023     		movs	r3, #0
 2171 005a 1365     		str	r3, [r2, #80]
 786:Cam/Src/F7Cam_Driver.c ****   hdcmi->XferTransferNumber = 0;
 2172              		.loc 1 786 3 is_stmt 1 discriminator 2 view .LVU626
 786:Cam/Src/F7Cam_Driver.c ****   hdcmi->XferTransferNumber = 0;
 2173              		.loc 1 786 20 is_stmt 0 discriminator 2 view .LVU627
 2174 005c A363     		str	r3, [r4, #56]
 787:Cam/Src/F7Cam_Driver.c ****   hdcmi->XferSize = 0;
 2175              		.loc 1 787 3 is_stmt 1 discriminator 2 view .LVU628
 787:Cam/Src/F7Cam_Driver.c ****   hdcmi->XferSize = 0;
 2176              		.loc 1 787 29 is_stmt 0 discriminator 2 view .LVU629
 2177 005e 2364     		str	r3, [r4, #64]
 788:Cam/Src/F7Cam_Driver.c ****   hdcmi->pBuffPtr = 0;
 2178              		.loc 1 788 3 is_stmt 1 discriminator 2 view .LVU630
 788:Cam/Src/F7Cam_Driver.c ****   hdcmi->pBuffPtr = 0;
 2179              		.loc 1 788 19 is_stmt 0 discriminator 2 view .LVU631
 2180 0060 E363     		str	r3, [r4, #60]
 789:Cam/Src/F7Cam_Driver.c **** 
 2181              		.loc 1 789 3 is_stmt 1 discriminator 2 view .LVU632
 789:Cam/Src/F7Cam_Driver.c **** 
 2182              		.loc 1 789 19 is_stmt 0 discriminator 2 view .LVU633
 2183 0062 6364     		str	r3, [r4, #68]
 791:Cam/Src/F7Cam_Driver.c ****   {
 2184              		.loc 1 791 3 is_stmt 1 discriminator 2 view .LVU634
 791:Cam/Src/F7Cam_Driver.c ****   {
 2185              		.loc 1 791 6 is_stmt 0 discriminator 2 view .LVU635
 2186 0064 B5F5803F 		cmp	r5, #65536
ARM GAS  /var/folders/fz/x0kldt2j7vs_j4slv3pyc44m0000gp/T//ccIn6myf.s 			page 65


 2187 0068 0BD3     		bcc	.L130
 804:Cam/Src/F7Cam_Driver.c **** 
 2188              		.loc 1 804 5 is_stmt 1 view .LVU636
 804:Cam/Src/F7Cam_Driver.c **** 
 2189              		.loc 1 804 10 is_stmt 0 view .LVU637
 2190 006a A36C     		ldr	r3, [r4, #72]
 804:Cam/Src/F7Cam_Driver.c **** 
 2191              		.loc 1 804 43 view .LVU638
 2192 006c 214A     		ldr	r2, .L131
 2193 006e 5A64     		str	r2, [r3, #68]
 807:Cam/Src/F7Cam_Driver.c ****     hdcmi->XferSize = Length;
 2194              		.loc 1 807 5 is_stmt 1 view .LVU639
 807:Cam/Src/F7Cam_Driver.c ****     hdcmi->XferSize = Length;
 2195              		.loc 1 807 22 is_stmt 0 view .LVU640
 2196 0070 0123     		movs	r3, #1
 2197 0072 A363     		str	r3, [r4, #56]
 808:Cam/Src/F7Cam_Driver.c ****     hdcmi->pBuffPtr = pData;
 2198              		.loc 1 808 5 is_stmt 1 view .LVU641
 808:Cam/Src/F7Cam_Driver.c ****     hdcmi->pBuffPtr = pData;
 2199              		.loc 1 808 21 is_stmt 0 view .LVU642
 2200 0074 E563     		str	r5, [r4, #60]
 809:Cam/Src/F7Cam_Driver.c **** 
 2201              		.loc 1 809 5 is_stmt 1 view .LVU643
 809:Cam/Src/F7Cam_Driver.c **** 
 2202              		.loc 1 809 21 is_stmt 0 view .LVU644
 2203 0076 6664     		str	r6, [r4, #68]
 812:Cam/Src/F7Cam_Driver.c ****     {
 2204              		.loc 1 812 5 is_stmt 1 view .LVU645
 812:Cam/Src/F7Cam_Driver.c ****     {
 2205              		.loc 1 812 11 is_stmt 0 view .LVU646
 2206 0078 19E0     		b	.L124
 2207              	.LVL145:
 2208              	.L118:
 747:Cam/Src/F7Cam_Driver.c ****       break;
 2209              		.loc 1 747 7 is_stmt 1 view .LVU647
 747:Cam/Src/F7Cam_Driver.c ****       break;
 2210              		.loc 1 747 14 is_stmt 0 view .LVU648
 2211 007a 6D08     		lsrs	r5, r5, #1
 2212              	.LVL146:
 748:Cam/Src/F7Cam_Driver.c ****     case DMA_PDATAALIGN_WORD:
 2213              		.loc 1 748 7 is_stmt 1 view .LVU649
 2214 007c CDE7     		b	.L120
 2215              	.L119:
 750:Cam/Src/F7Cam_Driver.c ****       break;
 2216              		.loc 1 750 7 view .LVU650
 750:Cam/Src/F7Cam_Driver.c ****       break;
 2217              		.loc 1 750 14 is_stmt 0 view .LVU651
 2218 007e AD08     		lsrs	r5, r5, #2
 2219              	.LVL147:
 751:Cam/Src/F7Cam_Driver.c ****     default:
 2220              		.loc 1 751 7 is_stmt 1 view .LVU652
 2221 0080 CBE7     		b	.L120
 2222              	.LVL148:
 2223              	.L130:
 793:Cam/Src/F7Cam_Driver.c ****     /* Enable the DMA Stream */
 2224              		.loc 1 793 5 view .LVU653
 2225 0082 1E48     		ldr	r0, .L131+8
ARM GAS  /var/folders/fz/x0kldt2j7vs_j4slv3pyc44m0000gp/T//ccIn6myf.s 			page 66


 2226              	.LVL149:
 793:Cam/Src/F7Cam_Driver.c ****     /* Enable the DMA Stream */
 2227              		.loc 1 793 5 is_stmt 0 view .LVU654
 2228 0084 FFF7FEFF 		bl	puts
 2229              	.LVL150:
 795:Cam/Src/F7Cam_Driver.c ****     if (HAL_DMA_Start_IT(hdcmi->DMA_Handle, (uint32_t)&hdcmi->Instance->DR, (uint32_t)pData, Length
 2230              		.loc 1 795 5 is_stmt 1 view .LVU655
 795:Cam/Src/F7Cam_Driver.c ****     if (HAL_DMA_Start_IT(hdcmi->DMA_Handle, (uint32_t)&hdcmi->Instance->DR, (uint32_t)pData, Length
 2231              		.loc 1 795 10 is_stmt 0 view .LVU656
 2232 0088 A36C     		ldr	r3, [r4, #72]
 795:Cam/Src/F7Cam_Driver.c ****     if (HAL_DMA_Start_IT(hdcmi->DMA_Handle, (uint32_t)&hdcmi->Instance->DR, (uint32_t)pData, Length
 2233              		.loc 1 795 45 view .LVU657
 2234 008a 1D4A     		ldr	r2, .L131+12
 2235 008c 1A64     		str	r2, [r3, #64]
 796:Cam/Src/F7Cam_Driver.c ****     {
 2236              		.loc 1 796 5 is_stmt 1 view .LVU658
 796:Cam/Src/F7Cam_Driver.c ****     {
 2237              		.loc 1 796 61 is_stmt 0 view .LVU659
 2238 008e 2168     		ldr	r1, [r4]
 796:Cam/Src/F7Cam_Driver.c ****     {
 2239              		.loc 1 796 9 view .LVU660
 2240 0090 2B46     		mov	r3, r5
 2241 0092 3246     		mov	r2, r6
 2242 0094 2831     		adds	r1, r1, #40
 2243 0096 A06C     		ldr	r0, [r4, #72]
 2244 0098 FFF7FEFF 		bl	HAL_DMA_Start_IT
 2245              	.LVL151:
 796:Cam/Src/F7Cam_Driver.c ****     {
 2246              		.loc 1 796 8 view .LVU661
 2247 009c E0B1     		cbz	r0, .L123
 798:Cam/Src/F7Cam_Driver.c ****     }
 2248              		.loc 1 798 14 view .LVU662
 2249 009e 0120     		movs	r0, #1
 2250 00a0 22E0     		b	.L121
 2251              	.LVL152:
 2252              	.L125:
 814:Cam/Src/F7Cam_Driver.c ****       hdcmi->XferCount = hdcmi->XferCount * 2U;
 2253              		.loc 1 814 7 is_stmt 1 view .LVU663
 814:Cam/Src/F7Cam_Driver.c ****       hdcmi->XferCount = hdcmi->XferCount * 2U;
 2254              		.loc 1 814 31 is_stmt 0 view .LVU664
 2255 00a2 E36B     		ldr	r3, [r4, #60]
 814:Cam/Src/F7Cam_Driver.c ****       hdcmi->XferCount = hdcmi->XferCount * 2U;
 2256              		.loc 1 814 42 view .LVU665
 2257 00a4 5B08     		lsrs	r3, r3, #1
 814:Cam/Src/F7Cam_Driver.c ****       hdcmi->XferCount = hdcmi->XferCount * 2U;
 2258              		.loc 1 814 23 view .LVU666
 2259 00a6 E363     		str	r3, [r4, #60]
 815:Cam/Src/F7Cam_Driver.c ****     }
 2260              		.loc 1 815 7 is_stmt 1 view .LVU667
 815:Cam/Src/F7Cam_Driver.c ****     }
 2261              		.loc 1 815 31 is_stmt 0 view .LVU668
 2262 00a8 A36B     		ldr	r3, [r4, #56]
 815:Cam/Src/F7Cam_Driver.c ****     }
 2263              		.loc 1 815 43 view .LVU669
 2264 00aa 5B00     		lsls	r3, r3, #1
 815:Cam/Src/F7Cam_Driver.c ****     }
 2265              		.loc 1 815 24 view .LVU670
ARM GAS  /var/folders/fz/x0kldt2j7vs_j4slv3pyc44m0000gp/T//ccIn6myf.s 			page 67


 2266 00ac A363     		str	r3, [r4, #56]
 2267              	.L124:
 812:Cam/Src/F7Cam_Driver.c ****     {
 2268              		.loc 1 812 28 is_stmt 1 view .LVU671
 812:Cam/Src/F7Cam_Driver.c ****     {
 2269              		.loc 1 812 17 is_stmt 0 view .LVU672
 2270 00ae E36B     		ldr	r3, [r4, #60]
 812:Cam/Src/F7Cam_Driver.c ****     {
 2271              		.loc 1 812 28 view .LVU673
 2272 00b0 B3F5803F 		cmp	r3, #65536
 2273 00b4 F5D2     		bcs	.L125
 819:Cam/Src/F7Cam_Driver.c ****     hdcmi->XferTransferNumber = hdcmi->XferCount;
 2274              		.loc 1 819 5 is_stmt 1 view .LVU674
 819:Cam/Src/F7Cam_Driver.c ****     hdcmi->XferTransferNumber = hdcmi->XferCount;
 2275              		.loc 1 819 30 is_stmt 0 view .LVU675
 2276 00b6 A36B     		ldr	r3, [r4, #56]
 819:Cam/Src/F7Cam_Driver.c ****     hdcmi->XferTransferNumber = hdcmi->XferCount;
 2277              		.loc 1 819 42 view .LVU676
 2278 00b8 023B     		subs	r3, r3, #2
 819:Cam/Src/F7Cam_Driver.c ****     hdcmi->XferTransferNumber = hdcmi->XferCount;
 2279              		.loc 1 819 22 view .LVU677
 2280 00ba A363     		str	r3, [r4, #56]
 820:Cam/Src/F7Cam_Driver.c **** 
 2281              		.loc 1 820 5 is_stmt 1 view .LVU678
 820:Cam/Src/F7Cam_Driver.c **** 
 2282              		.loc 1 820 38 is_stmt 0 view .LVU679
 2283 00bc A36B     		ldr	r3, [r4, #56]
 820:Cam/Src/F7Cam_Driver.c **** 
 2284              		.loc 1 820 31 view .LVU680
 2285 00be 2364     		str	r3, [r4, #64]
 823:Cam/Src/F7Cam_Driver.c **** 
 2286              		.loc 1 823 5 is_stmt 1 view .LVU681
 823:Cam/Src/F7Cam_Driver.c **** 
 2287              		.loc 1 823 53 is_stmt 0 view .LVU682
 2288 00c0 E36B     		ldr	r3, [r4, #60]
 2289              	.LVL153:
 826:Cam/Src/F7Cam_Driver.c ****     {
 2290              		.loc 1 826 5 is_stmt 1 view .LVU683
 826:Cam/Src/F7Cam_Driver.c ****     {
 2291              		.loc 1 826 74 is_stmt 0 view .LVU684
 2292 00c2 2168     		ldr	r1, [r4]
 2293              	.LVL154:
 826:Cam/Src/F7Cam_Driver.c ****     {
 2294              		.loc 1 826 130 view .LVU685
 2295 00c4 E26B     		ldr	r2, [r4, #60]
 826:Cam/Src/F7Cam_Driver.c ****     {
 2296              		.loc 1 826 9 view .LVU686
 2297 00c6 0092     		str	r2, [sp]
 2298 00c8 06EB8303 		add	r3, r6, r3, lsl #2
 2299              	.LVL155:
 826:Cam/Src/F7Cam_Driver.c ****     {
 2300              		.loc 1 826 9 view .LVU687
 2301 00cc 3246     		mov	r2, r6
 2302 00ce 2831     		adds	r1, r1, #40
 2303 00d0 A06C     		ldr	r0, [r4, #72]
 2304              	.LVL156:
 826:Cam/Src/F7Cam_Driver.c ****     {
ARM GAS  /var/folders/fz/x0kldt2j7vs_j4slv3pyc44m0000gp/T//ccIn6myf.s 			page 68


 2305              		.loc 1 826 9 view .LVU688
 2306 00d2 FFF7FEFF 		bl	HAL_DMAEx_MultiBufferStart_IT
 2307              	.LVL157:
 826:Cam/Src/F7Cam_Driver.c ****     {
 2308              		.loc 1 826 8 view .LVU689
 2309 00d6 58B9     		cbnz	r0, .L128
 2310              	.LVL158:
 2311              	.L123:
 833:Cam/Src/F7Cam_Driver.c **** 
 2312              		.loc 1 833 3 is_stmt 1 view .LVU690
 833:Cam/Src/F7Cam_Driver.c **** 
 2313              		.loc 1 833 8 is_stmt 0 view .LVU691
 2314 00d8 2268     		ldr	r2, [r4]
 833:Cam/Src/F7Cam_Driver.c **** 
 2315              		.loc 1 833 18 view .LVU692
 2316 00da 1368     		ldr	r3, [r2]
 833:Cam/Src/F7Cam_Driver.c **** 
 2317              		.loc 1 833 23 view .LVU693
 2318 00dc 43F00103 		orr	r3, r3, #1
 2319 00e0 1360     		str	r3, [r2]
 836:Cam/Src/F7Cam_Driver.c **** 
 2320              		.loc 1 836 3 is_stmt 1 view .LVU694
 836:Cam/Src/F7Cam_Driver.c **** 
 2321              		.loc 1 836 3 view .LVU695
 2322 00e2 0020     		movs	r0, #0
 2323 00e4 84F83400 		strb	r0, [r4, #52]
 836:Cam/Src/F7Cam_Driver.c **** 
 2324              		.loc 1 836 3 view .LVU696
 839:Cam/Src/F7Cam_Driver.c **** }
 2325              		.loc 1 839 3 view .LVU697
 2326              	.L121:
 840:Cam/Src/F7Cam_Driver.c **** static void DCMI_DMAError(DMA_HandleTypeDef *hdma)
 2327              		.loc 1 840 1 is_stmt 0 view .LVU698
 2328 00e8 02B0     		add	sp, sp, #8
 2329              		.cfi_remember_state
 2330              		.cfi_def_cfa_offset 16
 2331              		@ sp needed
 2332 00ea 70BD     		pop	{r4, r5, r6, pc}
 2333              	.LVL159:
 2334              	.L126:
 2335              		.cfi_restore_state
 764:Cam/Src/F7Cam_Driver.c **** 
 2336              		.loc 1 764 3 view .LVU699
 2337 00ec 0220     		movs	r0, #2
 2338              	.LVL160:
 764:Cam/Src/F7Cam_Driver.c **** 
 2339              		.loc 1 764 3 view .LVU700
 2340 00ee FBE7     		b	.L121
 2341              	.LVL161:
 2342              	.L128:
 828:Cam/Src/F7Cam_Driver.c ****     }
 2343              		.loc 1 828 14 view .LVU701
 2344 00f0 0120     		movs	r0, #1
 2345 00f2 F9E7     		b	.L121
 2346              	.L132:
 2347              		.align	2
 2348              	.L131:
ARM GAS  /var/folders/fz/x0kldt2j7vs_j4slv3pyc44m0000gp/T//ccIn6myf.s 			page 69


 2349 00f4 00000000 		.word	DCMI_DMA_TRANSFER_COMPLETE
 2350 00f8 00000000 		.word	DCMI_DMAError
 2351 00fc 00000000 		.word	.LC9
 2352 0100 00000000 		.word	DCMI_DMA_TRANSFER_HALF_COMPLETE
 2353              		.cfi_endproc
 2354              	.LFE166:
 2356              		.section	.text.BSP_CAMERA_ContinuousStart,"ax",%progbits
 2357              		.align	1
 2358              		.global	BSP_CAMERA_ContinuousStart
 2359              		.syntax unified
 2360              		.thumb
 2361              		.thumb_func
 2363              	BSP_CAMERA_ContinuousStart:
 2364              	.LFB146:
 150:Cam/Src/F7Cam_Driver.c ****   // Wait for first x vsync VSYNC
 2365              		.loc 1 150 1 is_stmt 1 view -0
 2366              		.cfi_startproc
 2367              		@ args = 0, pretend = 0, frame = 0
 2368              		@ frame_needed = 0, uses_anonymous_args = 0
 2369 0000 08B5     		push	{r3, lr}
 2370              		.cfi_def_cfa_offset 8
 2371              		.cfi_offset 3, -8
 2372              		.cfi_offset 14, -4
 2373              	.L134:
 157:Cam/Src/F7Cam_Driver.c ****   // while (vsyncCounter < 20) {
 2374              		.loc 1 157 3 discriminator 1 view .LVU703
 156:Cam/Src/F7Cam_Driver.c ****   }
 2375              		.loc 1 156 10 discriminator 1 view .LVU704
 156:Cam/Src/F7Cam_Driver.c ****   }
 2376              		.loc 1 156 12 is_stmt 0 discriminator 1 view .LVU705
 2377 0002 4FF40071 		mov	r1, #512
 2378 0006 0848     		ldr	r0, .L136
 2379 0008 FFF7FEFF 		bl	HAL_GPIO_ReadPin
 2380              	.LVL162:
 156:Cam/Src/F7Cam_Driver.c ****   }
 2381              		.loc 1 156 10 discriminator 1 view .LVU706
 2382 000c 0028     		cmp	r0, #0
 2383 000e F8D0     		beq	.L134
 172:Cam/Src/F7Cam_Driver.c **** 
 2384              		.loc 1 172 3 is_stmt 1 view .LVU707
 172:Cam/Src/F7Cam_Driver.c **** 
 2385              		.loc 1 172 16 is_stmt 0 view .LVU708
 2386 0010 064B     		ldr	r3, .L136+4
 2387 0012 0122     		movs	r2, #1
 2388 0014 1A70     		strb	r2, [r3]
 175:Cam/Src/F7Cam_Driver.c **** }
 2389              		.loc 1 175 2 is_stmt 1 view .LVU709
 2390 0016 4FF4C833 		mov	r3, #102400
 2391 001a 054A     		ldr	r2, .L136+8
 2392 001c 0021     		movs	r1, #0
 2393 001e 0548     		ldr	r0, .L136+12
 2394 0020 FFF7FEFF 		bl	HAL_DCMI_Start_DMA2
 2395              	.LVL163:
 176:Cam/Src/F7Cam_Driver.c **** 
 2396              		.loc 1 176 1 is_stmt 0 view .LVU710
 2397 0024 08BD     		pop	{r3, pc}
 2398              	.L137:
ARM GAS  /var/folders/fz/x0kldt2j7vs_j4slv3pyc44m0000gp/T//ccIn6myf.s 			page 70


 2399 0026 00BF     		.align	2
 2400              	.L136:
 2401 0028 00180240 		.word	1073879040
 2402 002c 00000000 		.word	capture_data
 2403 0030 00000000 		.word	cam_fb
 2404 0034 00000000 		.word	hDcmiHandler
 2405              		.cfi_endproc
 2406              	.LFE146:
 2408              		.section	.bss.hdma_handler.0,"aw",%nobits
 2409              		.align	2
 2412              	hdma_handler.0:
 2413 0000 00000000 		.space	96
 2413      00000000 
 2413      00000000 
 2413      00000000 
 2413      00000000 
 2414              		.global	JPEG_PACKET_COUNT_BUFFER
 2415              		.section	.bss.JPEG_PACKET_COUNT_BUFFER,"aw",%nobits
 2416              		.align	2
 2419              	JPEG_PACKET_COUNT_BUFFER:
 2420 0000 00000000 		.space	40
 2420      00000000 
 2420      00000000 
 2420      00000000 
 2420      00000000 
 2421              		.global	JPEG_HEX_SIZE_BUFFER
 2422              		.section	.bss.JPEG_HEX_SIZE_BUFFER,"aw",%nobits
 2423              		.align	2
 2426              	JPEG_HEX_SIZE_BUFFER:
 2427 0000 00000000 		.space	40
 2427      00000000 
 2427      00000000 
 2427      00000000 
 2427      00000000 
 2428              		.global	JPEG_FIFO_SIZE_BUFFER
 2429              		.section	.bss.JPEG_FIFO_SIZE_BUFFER,"aw",%nobits
 2430              		.align	2
 2433              	JPEG_FIFO_SIZE_BUFFER:
 2434 0000 00000000 		.space	40
 2434      00000000 
 2434      00000000 
 2434      00000000 
 2434      00000000 
 2435              		.global	JPEG_Size
 2436              		.section	.bss.JPEG_Size,"aw",%nobits
 2437              		.align	1
 2440              	JPEG_Size:
 2441 0000 0000     		.space	2
 2442              		.global	PACKET_COUNT
 2443              		.section	.bss.PACKET_COUNT,"aw",%nobits
 2446              	PACKET_COUNT:
 2447 0000 00       		.space	1
 2448              		.global	FIFO_SIZE
 2449              		.section	.bss.FIFO_SIZE,"aw",%nobits
 2450              		.align	1
 2453              	FIFO_SIZE:
 2454 0000 0000     		.space	2
ARM GAS  /var/folders/fz/x0kldt2j7vs_j4slv3pyc44m0000gp/T//ccIn6myf.s 			page 71


 2455              		.global	bufferblockcounter
 2456              		.section	.bss.bufferblockcounter,"aw",%nobits
 2459              	bufferblockcounter:
 2460 0000 00       		.space	1
 2461              		.global	current_JPEG_size
 2462              		.section	.bss.current_JPEG_size,"aw",%nobits
 2463              		.align	2
 2466              	current_JPEG_size:
 2467 0000 00000000 		.space	4
 2468              		.global	printFrameCounter
 2469              		.section	.bss.printFrameCounter,"aw",%nobits
 2470              		.align	2
 2473              	printFrameCounter:
 2474 0000 00000000 		.space	4
 2475              		.global	JPEG_counter
 2476              		.section	.bss.JPEG_counter,"aw",%nobits
 2477              		.align	2
 2480              	JPEG_counter:
 2481 0000 00000000 		.space	4
 2482              		.global	hDcmiHandler
 2483              		.section	.bss.hDcmiHandler,"aw",%nobits
 2484              		.align	2
 2487              	hDcmiHandler:
 2488 0000 00000000 		.space	80
 2488      00000000 
 2488      00000000 
 2488      00000000 
 2488      00000000 
 2489              		.global	loadingCounter
 2490              		.section	.bss.loadingCounter,"aw",%nobits
 2493              	loadingCounter:
 2494 0000 00       		.space	1
 2495              		.global	firstVsync
 2496              		.section	.bss.firstVsync,"aw",%nobits
 2499              	firstVsync:
 2500 0000 00       		.space	1
 2501              		.global	LoadedFlag
 2502              		.section	.bss.LoadedFlag,"aw",%nobits
 2505              	LoadedFlag:
 2506 0000 00       		.space	1
 2507              		.global	capture_data
 2508              		.section	.bss.capture_data,"aw",%nobits
 2511              	capture_data:
 2512 0000 00       		.space	1
 2513              		.global	current_frame_start_pos
 2514              		.section	.bss.current_frame_start_pos,"aw",%nobits
 2517              	current_frame_start_pos:
 2518 0000 00       		.space	1
 2519              		.global	buffer_position
 2520              		.section	.data.buffer_position,"aw"
 2523              	buffer_position:
 2524 0000 FF       		.byte	-1
 2525              		.global	total_buffer_fragments
 2526              		.section	.bss.total_buffer_fragments,"aw",%nobits
 2529              	total_buffer_fragments:
 2530 0000 00       		.space	1
 2531              		.global	startOffset
ARM GAS  /var/folders/fz/x0kldt2j7vs_j4slv3pyc44m0000gp/T//ccIn6myf.s 			page 72


 2532              		.section	.data.startOffset,"aw"
 2535              	startOffset:
 2536 0000 02       		.byte	2
 2537              		.global	packetCounter
 2538              		.section	.bss.packetCounter,"aw",%nobits
 2541              	packetCounter:
 2542 0000 00       		.space	1
 2543              		.global	buffer_offset
 2544              		.section	.bss.buffer_offset,"aw",%nobits
 2547              	buffer_offset:
 2548 0000 00       		.space	1
 2549              		.global	frameCounter
 2550              		.section	.bss.frameCounter,"aw",%nobits
 2553              	frameCounter:
 2554 0000 00       		.space	1
 2555              		.global	cam_fb
 2556              		.section	.bss.cam_fb,"aw",%nobits
 2557              		.align	2
 2560              	cam_fb:
 2561 0000 00000000 		.space	102400
 2561      00000000 
 2561      00000000 
 2561      00000000 
 2561      00000000 
 2562              		.text
 2563              	.Letext0:
 2564              		.file 2 "/Users/sol/Library/Application Support/Code/User/globalStorage/bmd.stm32-for-vscode/@xpac
 2565              		.file 3 "/Users/sol/Library/Application Support/Code/User/globalStorage/bmd.stm32-for-vscode/@xpac
 2566              		.file 4 "/Users/sol/Library/Application Support/Code/User/globalStorage/bmd.stm32-for-vscode/@xpac
 2567              		.file 5 "Drivers/CMSIS/Device/ST/STM32F7xx/Include/stm32f746xx.h"
 2568              		.file 6 "Drivers/STM32F7xx_HAL_Driver/Inc/stm32f7xx_hal_def.h"
 2569              		.file 7 "Drivers/STM32F7xx_HAL_Driver/Inc/stm32f7xx_hal_gpio.h"
 2570              		.file 8 "Drivers/STM32F7xx_HAL_Driver/Inc/stm32f7xx_hal_dma.h"
 2571              		.file 9 "Drivers/STM32F7xx_HAL_Driver/Inc/stm32f7xx_hal_dma_ex.h"
 2572              		.file 10 "Drivers/STM32F7xx_HAL_Driver/Inc/stm32f7xx_hal_dcmi.h"
 2573              		.file 11 "Core/Inc/events.h"
 2574              		.file 12 "Cam/Inc/F7Cam_Driver.h"
 2575              		.file 13 "/Users/sol/Library/Application Support/Code/User/globalStorage/bmd.stm32-for-vscode/@xpa
 2576              		.file 14 "/Users/sol/Library/Application Support/Code/User/globalStorage/bmd.stm32-for-vscode/@xpa
 2577              		.file 15 "Drivers/STM32F7xx_HAL_Driver/Inc/stm32f7xx_hal_cortex.h"
 2578              		.file 16 "Cam/Inc/ov5640_driver.h"
 2579              		.file 17 "Drivers/STM32F7xx_HAL_Driver/Inc/stm32f7xx_hal.h"
 2580              		.file 18 "<built-in>"
ARM GAS  /var/folders/fz/x0kldt2j7vs_j4slv3pyc44m0000gp/T//ccIn6myf.s 			page 73

