ARM GAS  /var/folders/fz/x0kldt2j7vs_j4slv3pyc44m0000gp/T//ccJSrhYz.s 			page 1


   1              		.cpu cortex-m7
   2              		.arch armv7e-m
   3              		.fpu fpv5-sp-d16
   4              		.eabi_attribute 27, 1
   5              		.eabi_attribute 28, 1
   6              		.eabi_attribute 20, 1
   7              		.eabi_attribute 21, 1
   8              		.eabi_attribute 23, 3
   9              		.eabi_attribute 24, 1
  10              		.eabi_attribute 25, 1
  11              		.eabi_attribute 26, 1
  12              		.eabi_attribute 30, 1
  13              		.eabi_attribute 34, 1
  14              		.eabi_attribute 18, 4
  15              		.file	"main.c"
  16              		.text
  17              	.Ltext0:
  18              		.cfi_sections	.debug_frame
  19              		.file 1 "Core/Src/main.c"
  20              		.section	.text.MX_SDMMC1_SD_Init,"ax",%progbits
  21              		.align	1
  22              		.syntax unified
  23              		.thumb
  24              		.thumb_func
  26              	MX_SDMMC1_SD_Init:
  27              	.LFB149:
   1:Core/Src/main.c **** /* USER CODE BEGIN Header */
   2:Core/Src/main.c **** /**
   3:Core/Src/main.c ****   ******************************************************************************
   4:Core/Src/main.c ****   * @file           : main.c
   5:Core/Src/main.c ****   * @brief          : Main program body
   6:Core/Src/main.c ****   ******************************************************************************
   7:Core/Src/main.c ****   * @attention
   8:Core/Src/main.c ****   *
   9:Core/Src/main.c ****   * Copyright (c) 2023 STMicroelectronics.
  10:Core/Src/main.c ****   * All rights reserved.
  11:Core/Src/main.c ****   *
  12:Core/Src/main.c ****   * This software is licensed under terms that can be found in the LICENSE file
  13:Core/Src/main.c ****   * in the root directory of this software component.
  14:Core/Src/main.c ****   * If no LICENSE file comes with this software, it is provided AS-IS.
  15:Core/Src/main.c ****   *
  16:Core/Src/main.c ****   ******************************************************************************
  17:Core/Src/main.c ****   */
  18:Core/Src/main.c **** /* USER CODE END Header */
  19:Core/Src/main.c **** /* Includes ------------------------------------------------------------------*/
  20:Core/Src/main.c **** #include "main.h"
  21:Core/Src/main.c **** #include "fatfs.h"
  22:Core/Src/main.c **** 
  23:Core/Src/main.c **** /* Private includes ----------------------------------------------------------*/
  24:Core/Src/main.c **** /* USER CODE BEGIN Includes */
  25:Core/Src/main.c **** #include <stdbool.h>
  26:Core/Src/main.c **** 
  27:Core/Src/main.c **** #include "mutff.h"
  28:Core/Src/main.c **** #include "mutff_default.h"
  29:Core/Src/main.c **** 
  30:Core/Src/main.c **** #include "container.h"
  31:Core/Src/main.c **** #include "events.h"
ARM GAS  /var/folders/fz/x0kldt2j7vs_j4slv3pyc44m0000gp/T//ccJSrhYz.s 			page 2


  32:Core/Src/main.c **** #include "stm32f7xx_hal.h"
  33:Core/Src/main.c **** /* USER CODE END Includes */
  34:Core/Src/main.c **** 
  35:Core/Src/main.c **** /* Private typedef -----------------------------------------------------------*/
  36:Core/Src/main.c **** /* USER CODE BEGIN PTD */
  37:Core/Src/main.c **** /* USER CODE END PTD */
  38:Core/Src/main.c **** 
  39:Core/Src/main.c **** /* Private define ------------------------------------------------------------*/
  40:Core/Src/main.c **** /* USER CODE BEGIN PD */
  41:Core/Src/main.c **** /* USER CODE END PD */
  42:Core/Src/main.c **** 
  43:Core/Src/main.c **** /* Private macro -------------------------------------------------------------*/
  44:Core/Src/main.c **** /* USER CODE BEGIN PM */
  45:Core/Src/main.c **** 
  46:Core/Src/main.c **** /* USER CODE END PM */
  47:Core/Src/main.c **** 
  48:Core/Src/main.c **** /* Private variables ---------------------------------------------------------*/
  49:Core/Src/main.c **** 
  50:Core/Src/main.c **** DCMI_HandleTypeDef hdcmi;
  51:Core/Src/main.c **** DMA_HandleTypeDef hdma_dcmi;
  52:Core/Src/main.c **** 
  53:Core/Src/main.c **** I2C_HandleTypeDef hi2c1;
  54:Core/Src/main.c **** 
  55:Core/Src/main.c **** SD_HandleTypeDef hsd1;
  56:Core/Src/main.c **** DMA_HandleTypeDef hdma_sdmmc1;
  57:Core/Src/main.c **** 
  58:Core/Src/main.c **** TIM_HandleTypeDef htim3;
  59:Core/Src/main.c **** 
  60:Core/Src/main.c **** PCD_HandleTypeDef hpcd_USB_OTG_HS;
  61:Core/Src/main.c **** 
  62:Core/Src/main.c **** /* USER CODE BEGIN PV */
  63:Core/Src/main.c **** static FRESULT fatfs_err;
  64:Core/Src/main.c **** /* USER CODE END PV */
  65:Core/Src/main.c **** 
  66:Core/Src/main.c **** /* Private function prototypes -----------------------------------------------*/
  67:Core/Src/main.c **** void SystemClock_Config(void);
  68:Core/Src/main.c **** static void MX_GPIO_Init(void);
  69:Core/Src/main.c **** static void MX_DMA_Init(void);
  70:Core/Src/main.c **** static void MX_I2C1_Init(void);
  71:Core/Src/main.c **** static void MX_DCMI_Init(void);
  72:Core/Src/main.c **** static void MX_USB_OTG_HS_PCD_Init(void);
  73:Core/Src/main.c **** static void MX_SDMMC1_SD_Init(void);
  74:Core/Src/main.c **** static void MX_TIM3_Init(void);
  75:Core/Src/main.c **** /* USER CODE BEGIN PFP */
  76:Core/Src/main.c **** 
  77:Core/Src/main.c **** /// @brief Dispatches an event to the relevant handler
  78:Core/Src/main.c **** /// @param event The event to dispatch
  79:Core/Src/main.c **** void handle_event(Event event);
  80:Core/Src/main.c **** /* USER CODE END PFP */
  81:Core/Src/main.c **** 
  82:Core/Src/main.c **** /* Private user code ---------------------------------------------------------*/
  83:Core/Src/main.c **** /* USER CODE BEGIN 0 */
  84:Core/Src/main.c **** void handle_event(Event event) {
  85:Core/Src/main.c ****     switch (event.type) {
  86:Core/Src/main.c ****       case DCMIFrameComplete: {
  87:Core/Src/main.c ****           //printf("[%lu] Handling DCMIFrameComplete\n", HAL_GetTick());
  88:Core/Src/main.c ****           const DCMIFrameCompleteEventData event_data =
ARM GAS  /var/folders/fz/x0kldt2j7vs_j4slv3pyc44m0000gp/T//ccJSrhYz.s 			page 3


  89:Core/Src/main.c ****                   *((DCMIFrameCompleteEventData*) event.data);
  90:Core/Src/main.c ****           container_on_dcmi_frame_complete(event_data);
  91:Core/Src/main.c ****           free(event.data);
  92:Core/Src/main.c ****           //printf("[%lu] Done handling DCMIFrameComplete\n", HAL_GetTick());
  93:Core/Src/main.c ****           break;
  94:Core/Src/main.c ****       }
  95:Core/Src/main.c ****       case DCMIDataReady: {
  96:Core/Src/main.c ****           //printf("[%lu] Handling DCMIDataReady\n", HAL_GetTick());
  97:Core/Src/main.c ****           const DCMIDataReadyEventData event_data =
  98:Core/Src/main.c ****                   *((DCMIDataReadyEventData*) event.data);
  99:Core/Src/main.c ****           container_on_dcmi_data_ready(event_data);
 100:Core/Src/main.c ****           //printf("[%lu] Done handling DCMIDataReady\n", HAL_GetTick());
 101:Core/Src/main.c ****           free(event.data);
 102:Core/Src/main.c ****           break;
 103:Core/Src/main.c ****       }
 104:Core/Src/main.c ****       case DCMIVSync: {
 105:Core/Src/main.c ****           break;
 106:Core/Src/main.c ****       }
 107:Core/Src/main.c ****       case PowerOff: {
 108:Core/Src/main.c ****           break;
 109:Core/Src/main.c ****       }
 110:Core/Src/main.c ****       case USBPluggedIn: {
 111:Core/Src/main.c ****           break;
 112:Core/Src/main.c ****       }
 113:Core/Src/main.c ****       default:
 114:Core/Src/main.c ****           Error_Handler();
 115:Core/Src/main.c ****           break;
 116:Core/Src/main.c ****     }
 117:Core/Src/main.c **** }
 118:Core/Src/main.c **** 
 119:Core/Src/main.c **** struct Cam_config default_settings =  {
 120:Core/Src/main.c ****         .img_format = FMT_JPEG,
 121:Core/Src/main.c ****         .x_res = 320,
 122:Core/Src/main.c ****         .y_res = 240,
 123:Core/Src/main.c ****         .FPS = 5, //Can be 8, 15, 20, 23, 25, or 30. Setting to 9 == default PLL configuration (usu
 124:Core/Src/main.c ****         .FB_size =  1024 * 100,//320 * 240 * 2, --> needs to be set in the cam driver .h
 125:Core/Src/main.c ****         .FIFO_width = 1024, //Packet 
 126:Core/Src/main.c ****         .packet_count = 20, // must be a whole factor of x_res (or frame buffer??) --> needs to be 
 127:Core/Src/main.c ****         .jpeg_comp_ratio = 12 //check 
 128:Core/Src/main.c **** };
 129:Core/Src/main.c **** /* USER CODE END 0 */
 130:Core/Src/main.c **** 
 131:Core/Src/main.c **** /**
 132:Core/Src/main.c ****   * @brief  The application entry point.
 133:Core/Src/main.c ****   * @retval int
 134:Core/Src/main.c ****   */
 135:Core/Src/main.c **** int main(void)
 136:Core/Src/main.c **** {
 137:Core/Src/main.c ****   /* USER CODE BEGIN 1 */
 138:Core/Src/main.c ****   
 139:Core/Src/main.c ****   /* USER CODE END 1 */
 140:Core/Src/main.c **** 
 141:Core/Src/main.c ****   /* MCU Configuration--------------------------------------------------------*/
 142:Core/Src/main.c **** 
 143:Core/Src/main.c ****   /* Reset of all peripherals, Initializes the Flash interface and the Systick. */
 144:Core/Src/main.c ****   HAL_Init();
 145:Core/Src/main.c **** 
ARM GAS  /var/folders/fz/x0kldt2j7vs_j4slv3pyc44m0000gp/T//ccJSrhYz.s 			page 4


 146:Core/Src/main.c ****   /* USER CODE BEGIN Init */
 147:Core/Src/main.c **** 
 148:Core/Src/main.c ****   /* USER CODE END Init */
 149:Core/Src/main.c **** 
 150:Core/Src/main.c ****   /* Configure the system clock */
 151:Core/Src/main.c ****   SystemClock_Config();
 152:Core/Src/main.c **** 
 153:Core/Src/main.c ****   /* USER CODE BEGIN SysInit */
 154:Core/Src/main.c **** 
 155:Core/Src/main.c ****   /* USER CODE END SysInit */
 156:Core/Src/main.c **** 
 157:Core/Src/main.c ****   /* Initialize all configured peripherals */
 158:Core/Src/main.c ****   MX_GPIO_Init();
 159:Core/Src/main.c ****   MX_DMA_Init();
 160:Core/Src/main.c ****   MX_I2C1_Init();
 161:Core/Src/main.c ****   MX_DCMI_Init();
 162:Core/Src/main.c ****   MX_USB_OTG_HS_PCD_Init();
 163:Core/Src/main.c ****   MX_FATFS_Init();
 164:Core/Src/main.c ****   MX_SDMMC1_SD_Init();
 165:Core/Src/main.c ****   MX_TIM3_Init();
 166:Core/Src/main.c ****   /* USER CODE BEGIN 2 */
 167:Core/Src/main.c **** //start FPS counter
 168:Core/Src/main.c ****     if (HAL_TIM_Base_Start_IT(&htim3) != HAL_OK)
 169:Core/Src/main.c ****   {
 170:Core/Src/main.c ****     /* Starting Error */
 171:Core/Src/main.c ****     Error_Handler();
 172:Core/Src/main.c ****   }
 173:Core/Src/main.c ****   //Mount filesystem
 174:Core/Src/main.c ****   fatfs_err = f_mount(&SDFatFS, SDPath, 1);
 175:Core/Src/main.c ****   if (fatfs_err != FR_OK) {
 176:Core/Src/main.c ****     printf("failed to mount card, code: %i.\n", fatfs_err);
 177:Core/Src/main.c ****     if (fatfs_err != FR_NOT_READY) {
 178:Core/Src/main.c ****       printf("exiting.\n");
 179:Core/Src/main.c ****       exit(fatfs_err);
 180:Core/Src/main.c ****     }
 181:Core/Src/main.c ****     printf("continuing.\n");
 182:Core/Src/main.c ****   }
 183:Core/Src/main.c **** 
 184:Core/Src/main.c ****   // Open file
 185:Core/Src/main.c ****   fatfs_err = f_open(&SDFile, "3885.mp4", FA_WRITE | FA_CREATE_ALWAYS);
 186:Core/Src/main.c ****   if (fatfs_err != FR_OK) {
 187:Core/Src/main.c ****     printf("failed to open file, code: %i.\n", fatfs_err);
 188:Core/Src/main.c ****     printf("exiting.\n");
 189:Core/Src/main.c ****     exit(fatfs_err);
 190:Core/Src/main.c ****   }
 191:Core/Src/main.c **** 
 192:Core/Src/main.c ****   container_set_frame_rate(default_settings.FPS);
 193:Core/Src/main.c ****   container_set_resolution(default_settings.x_res, default_settings.y_res);
 194:Core/Src/main.c ****   container_set_format(MuTFF_FOURCC('j', 'p', 'e', 'g'));
 195:Core/Src/main.c ****   container_init(&SDFile);
 196:Core/Src/main.c **** 
 197:Core/Src/main.c ****   CAM_Init(default_settings.img_format,
 198:Core/Src/main.c ****            default_settings.x_res,
 199:Core/Src/main.c ****            default_settings.y_res,
 200:Core/Src/main.c ****            default_settings.FPS,
 201:Core/Src/main.c ****            default_settings.FB_size,
 202:Core/Src/main.c ****            default_settings.FIFO_width,
ARM GAS  /var/folders/fz/x0kldt2j7vs_j4slv3pyc44m0000gp/T//ccJSrhYz.s 			page 5


 203:Core/Src/main.c ****            default_settings.packet_count,
 204:Core/Src/main.c ****            default_settings.jpeg_comp_ratio);
 205:Core/Src/main.c **** 
 206:Core/Src/main.c ****   BSP_CAMERA_ContinuousStart();
 207:Core/Src/main.c ****   /* USER CODE END 2 */
 208:Core/Src/main.c **** 
 209:Core/Src/main.c ****   /* Infinite loop */
 210:Core/Src/main.c ****   /* USER CODE BEGIN WHILE */
 211:Core/Src/main.c ****   while (1)
 212:Core/Src/main.c ****   {
 213:Core/Src/main.c ****     // Sleep until an interrupt occurs
 214:Core/Src/main.c ****    
 215:Core/Src/main.c ****     HAL_SuspendTick();
 216:Core/Src/main.c ****     HAL_PWR_EnterSLEEPMode(PWR_MAINREGULATOR_ON, PWR_SLEEPENTRY_WFI);
 217:Core/Src/main.c ****     HAL_ResumeTick();
 218:Core/Src/main.c ****     /* USER CODE END WHILE */
 219:Core/Src/main.c **** 
 220:Core/Src/main.c ****     /* USER CODE BEGIN 3 */
 221:Core/Src/main.c ****     // Handle any events produced by the interrupt
 222:Core/Src/main.c ****     Event event;
 223:Core/Src/main.c ****     while (pop_event_queue(&event)) {
 224:Core/Src/main.c ****       handle_event(event);
 225:Core/Src/main.c ****     }
 226:Core/Src/main.c ****   }
 227:Core/Src/main.c ****   /* USER CODE END 3 */
 228:Core/Src/main.c **** }
 229:Core/Src/main.c **** 
 230:Core/Src/main.c **** /**
 231:Core/Src/main.c ****   * @brief System Clock Configuration
 232:Core/Src/main.c ****   * @retval None
 233:Core/Src/main.c ****   */
 234:Core/Src/main.c **** void SystemClock_Config(void)
 235:Core/Src/main.c **** {
 236:Core/Src/main.c ****   RCC_OscInitTypeDef RCC_OscInitStruct = {0};
 237:Core/Src/main.c ****   RCC_ClkInitTypeDef RCC_ClkInitStruct = {0};
 238:Core/Src/main.c **** 
 239:Core/Src/main.c ****   /** Configure the main internal regulator output voltage
 240:Core/Src/main.c ****   */
 241:Core/Src/main.c ****   __HAL_RCC_PWR_CLK_ENABLE();
 242:Core/Src/main.c ****   __HAL_PWR_VOLTAGESCALING_CONFIG(PWR_REGULATOR_VOLTAGE_SCALE1);
 243:Core/Src/main.c **** 
 244:Core/Src/main.c ****   /** Initializes the RCC Oscillators according to the specified parameters
 245:Core/Src/main.c ****   * in the RCC_OscInitTypeDef structure.
 246:Core/Src/main.c ****   */
 247:Core/Src/main.c ****   RCC_OscInitStruct.OscillatorType = RCC_OSCILLATORTYPE_HSE;
 248:Core/Src/main.c ****   RCC_OscInitStruct.HSEState = RCC_HSE_ON;
 249:Core/Src/main.c ****   RCC_OscInitStruct.PLL.PLLState = RCC_PLL_ON;
 250:Core/Src/main.c ****   RCC_OscInitStruct.PLL.PLLSource = RCC_PLLSOURCE_HSE;
 251:Core/Src/main.c ****   RCC_OscInitStruct.PLL.PLLM = 12;
 252:Core/Src/main.c ****   RCC_OscInitStruct.PLL.PLLN = 192;
 253:Core/Src/main.c ****   RCC_OscInitStruct.PLL.PLLP = RCC_PLLP_DIV2;
 254:Core/Src/main.c ****   RCC_OscInitStruct.PLL.PLLQ = 8;
 255:Core/Src/main.c ****   if (HAL_RCC_OscConfig(&RCC_OscInitStruct) != HAL_OK)
 256:Core/Src/main.c ****   {
 257:Core/Src/main.c ****     Error_Handler();
 258:Core/Src/main.c ****   }
 259:Core/Src/main.c **** 
ARM GAS  /var/folders/fz/x0kldt2j7vs_j4slv3pyc44m0000gp/T//ccJSrhYz.s 			page 6


 260:Core/Src/main.c ****   /** Activate the Over-Drive mode
 261:Core/Src/main.c ****   */
 262:Core/Src/main.c ****   if (HAL_PWREx_EnableOverDrive() != HAL_OK)
 263:Core/Src/main.c ****   {
 264:Core/Src/main.c ****     Error_Handler();
 265:Core/Src/main.c ****   }
 266:Core/Src/main.c **** 
 267:Core/Src/main.c ****   /** Initializes the CPU, AHB and APB buses clocks
 268:Core/Src/main.c ****   */
 269:Core/Src/main.c ****   RCC_ClkInitStruct.ClockType = RCC_CLOCKTYPE_HCLK|RCC_CLOCKTYPE_SYSCLK
 270:Core/Src/main.c ****                               |RCC_CLOCKTYPE_PCLK1|RCC_CLOCKTYPE_PCLK2;
 271:Core/Src/main.c ****   RCC_ClkInitStruct.SYSCLKSource = RCC_SYSCLKSOURCE_PLLCLK;
 272:Core/Src/main.c ****   RCC_ClkInitStruct.AHBCLKDivider = RCC_SYSCLK_DIV1;
 273:Core/Src/main.c ****   RCC_ClkInitStruct.APB1CLKDivider = RCC_HCLK_DIV4;
 274:Core/Src/main.c ****   RCC_ClkInitStruct.APB2CLKDivider = RCC_HCLK_DIV2;
 275:Core/Src/main.c **** 
 276:Core/Src/main.c ****   if (HAL_RCC_ClockConfig(&RCC_ClkInitStruct, FLASH_LATENCY_6) != HAL_OK)
 277:Core/Src/main.c ****   {
 278:Core/Src/main.c ****     Error_Handler();
 279:Core/Src/main.c ****   }
 280:Core/Src/main.c **** }
 281:Core/Src/main.c **** 
 282:Core/Src/main.c **** /**
 283:Core/Src/main.c ****   * @brief DCMI Initialization Function
 284:Core/Src/main.c ****   * @param None
 285:Core/Src/main.c ****   * @retval None
 286:Core/Src/main.c ****   */
 287:Core/Src/main.c **** static void MX_DCMI_Init(void)
 288:Core/Src/main.c **** {
 289:Core/Src/main.c **** 
 290:Core/Src/main.c ****   /* USER CODE BEGIN DCMI_Init 0 */
 291:Core/Src/main.c **** 
 292:Core/Src/main.c ****   /* USER CODE END DCMI_Init 0 */
 293:Core/Src/main.c **** 
 294:Core/Src/main.c ****   /* USER CODE BEGIN DCMI_Init 1 */
 295:Core/Src/main.c **** 
 296:Core/Src/main.c ****   /* USER CODE END DCMI_Init 1 */
 297:Core/Src/main.c ****   hdcmi.Instance = DCMI;
 298:Core/Src/main.c ****   hdcmi.Init.SynchroMode = DCMI_SYNCHRO_HARDWARE;
 299:Core/Src/main.c ****   hdcmi.Init.PCKPolarity = DCMI_PCKPOLARITY_RISING;
 300:Core/Src/main.c ****   hdcmi.Init.VSPolarity = DCMI_VSPOLARITY_HIGH;
 301:Core/Src/main.c ****   hdcmi.Init.HSPolarity = DCMI_HSPOLARITY_HIGH;
 302:Core/Src/main.c ****   hdcmi.Init.CaptureRate = DCMI_CR_ALL_FRAME;
 303:Core/Src/main.c ****   hdcmi.Init.ExtendedDataMode = DCMI_EXTEND_DATA_8B;
 304:Core/Src/main.c ****   hdcmi.Init.JPEGMode = DCMI_JPEG_ENABLE;
 305:Core/Src/main.c ****   hdcmi.Init.ByteSelectMode = DCMI_BSM_ALL;
 306:Core/Src/main.c ****   hdcmi.Init.ByteSelectStart = DCMI_OEBS_ODD;
 307:Core/Src/main.c ****   hdcmi.Init.LineSelectMode = DCMI_LSM_ALL;
 308:Core/Src/main.c ****   hdcmi.Init.LineSelectStart = DCMI_OELS_ODD;
 309:Core/Src/main.c ****   if (HAL_DCMI_Init(&hdcmi) != HAL_OK)
 310:Core/Src/main.c ****   {
 311:Core/Src/main.c ****     Error_Handler();
 312:Core/Src/main.c ****   }
 313:Core/Src/main.c ****   /* USER CODE BEGIN DCMI_Init 2 */
 314:Core/Src/main.c **** 
 315:Core/Src/main.c ****   /* USER CODE END DCMI_Init 2 */
 316:Core/Src/main.c **** 
ARM GAS  /var/folders/fz/x0kldt2j7vs_j4slv3pyc44m0000gp/T//ccJSrhYz.s 			page 7


 317:Core/Src/main.c **** }
 318:Core/Src/main.c **** 
 319:Core/Src/main.c **** /**
 320:Core/Src/main.c ****   * @brief I2C1 Initialization Function
 321:Core/Src/main.c ****   * @param None
 322:Core/Src/main.c ****   * @retval None
 323:Core/Src/main.c ****   */
 324:Core/Src/main.c **** static void MX_I2C1_Init(void)
 325:Core/Src/main.c **** {
 326:Core/Src/main.c **** 
 327:Core/Src/main.c ****   /* USER CODE BEGIN I2C1_Init 0 */
 328:Core/Src/main.c **** 
 329:Core/Src/main.c ****   /* USER CODE END I2C1_Init 0 */
 330:Core/Src/main.c **** 
 331:Core/Src/main.c ****   /* USER CODE BEGIN I2C1_Init 1 */
 332:Core/Src/main.c **** 
 333:Core/Src/main.c ****   /* USER CODE END I2C1_Init 1 */
 334:Core/Src/main.c ****   hi2c1.Instance = I2C1;
 335:Core/Src/main.c ****   hi2c1.Init.Timing = 0x00C0EAFF;
 336:Core/Src/main.c ****   hi2c1.Init.OwnAddress1 = 0;
 337:Core/Src/main.c ****   hi2c1.Init.AddressingMode = I2C_ADDRESSINGMODE_7BIT;
 338:Core/Src/main.c ****   hi2c1.Init.DualAddressMode = I2C_DUALADDRESS_DISABLE;
 339:Core/Src/main.c ****   hi2c1.Init.OwnAddress2 = 0;
 340:Core/Src/main.c ****   hi2c1.Init.OwnAddress2Masks = I2C_OA2_NOMASK;
 341:Core/Src/main.c ****   hi2c1.Init.GeneralCallMode = I2C_GENERALCALL_DISABLE;
 342:Core/Src/main.c ****   hi2c1.Init.NoStretchMode = I2C_NOSTRETCH_DISABLE;
 343:Core/Src/main.c ****   if (HAL_I2C_Init(&hi2c1) != HAL_OK)
 344:Core/Src/main.c ****   {
 345:Core/Src/main.c ****     Error_Handler();
 346:Core/Src/main.c ****   }
 347:Core/Src/main.c **** 
 348:Core/Src/main.c ****   /** Configure Analogue filter
 349:Core/Src/main.c ****   */
 350:Core/Src/main.c ****   if (HAL_I2CEx_ConfigAnalogFilter(&hi2c1, I2C_ANALOGFILTER_ENABLE) != HAL_OK)
 351:Core/Src/main.c ****   {
 352:Core/Src/main.c ****     Error_Handler();
 353:Core/Src/main.c ****   }
 354:Core/Src/main.c **** 
 355:Core/Src/main.c ****   /** Configure Digital filter
 356:Core/Src/main.c ****   */
 357:Core/Src/main.c ****   if (HAL_I2CEx_ConfigDigitalFilter(&hi2c1, 0) != HAL_OK)
 358:Core/Src/main.c ****   {
 359:Core/Src/main.c ****     Error_Handler();
 360:Core/Src/main.c ****   }
 361:Core/Src/main.c ****   /* USER CODE BEGIN I2C1_Init 2 */
 362:Core/Src/main.c **** 
 363:Core/Src/main.c ****   /* USER CODE END I2C1_Init 2 */
 364:Core/Src/main.c **** 
 365:Core/Src/main.c **** }
 366:Core/Src/main.c **** 
 367:Core/Src/main.c **** /**
 368:Core/Src/main.c ****   * @brief SDMMC1 Initialization Function
 369:Core/Src/main.c ****   * @param None
 370:Core/Src/main.c ****   * @retval None
 371:Core/Src/main.c ****   */
 372:Core/Src/main.c **** static void MX_SDMMC1_SD_Init(void)
 373:Core/Src/main.c **** {
ARM GAS  /var/folders/fz/x0kldt2j7vs_j4slv3pyc44m0000gp/T//ccJSrhYz.s 			page 8


  28              		.loc 1 373 1 view -0
  29              		.cfi_startproc
  30              		@ args = 0, pretend = 0, frame = 0
  31              		@ frame_needed = 0, uses_anonymous_args = 0
  32              		@ link register save eliminated.
 374:Core/Src/main.c **** 
 375:Core/Src/main.c ****   /* USER CODE BEGIN SDMMC1_Init 0 */
 376:Core/Src/main.c **** 
 377:Core/Src/main.c ****   /* USER CODE END SDMMC1_Init 0 */
 378:Core/Src/main.c **** 
 379:Core/Src/main.c ****   /* USER CODE BEGIN SDMMC1_Init 1 */
 380:Core/Src/main.c **** 
 381:Core/Src/main.c ****   /* USER CODE END SDMMC1_Init 1 */
 382:Core/Src/main.c ****   hsd1.Instance = SDMMC1;
  33              		.loc 1 382 3 view .LVU1
  34              		.loc 1 382 17 is_stmt 0 view .LVU2
  35 0000 064B     		ldr	r3, .L2
  36 0002 074A     		ldr	r2, .L2+4
  37 0004 1A60     		str	r2, [r3]
 383:Core/Src/main.c ****   hsd1.Init.ClockEdge = SDMMC_CLOCK_EDGE_RISING;
  38              		.loc 1 383 3 is_stmt 1 view .LVU3
  39              		.loc 1 383 23 is_stmt 0 view .LVU4
  40 0006 0022     		movs	r2, #0
  41 0008 5A60     		str	r2, [r3, #4]
 384:Core/Src/main.c ****   hsd1.Init.ClockBypass = SDMMC_CLOCK_BYPASS_DISABLE;
  42              		.loc 1 384 3 is_stmt 1 view .LVU5
  43              		.loc 1 384 25 is_stmt 0 view .LVU6
  44 000a 9A60     		str	r2, [r3, #8]
 385:Core/Src/main.c ****   hsd1.Init.ClockPowerSave = SDMMC_CLOCK_POWER_SAVE_DISABLE;
  45              		.loc 1 385 3 is_stmt 1 view .LVU7
  46              		.loc 1 385 28 is_stmt 0 view .LVU8
  47 000c DA60     		str	r2, [r3, #12]
 386:Core/Src/main.c ****   hsd1.Init.BusWide = SDMMC_BUS_WIDE_4B;
  48              		.loc 1 386 3 is_stmt 1 view .LVU9
  49              		.loc 1 386 21 is_stmt 0 view .LVU10
  50 000e 4FF40061 		mov	r1, #2048
  51 0012 1961     		str	r1, [r3, #16]
 387:Core/Src/main.c ****   hsd1.Init.HardwareFlowControl = SDMMC_HARDWARE_FLOW_CONTROL_DISABLE;
  52              		.loc 1 387 3 is_stmt 1 view .LVU11
  53              		.loc 1 387 33 is_stmt 0 view .LVU12
  54 0014 5A61     		str	r2, [r3, #20]
 388:Core/Src/main.c ****   hsd1.Init.ClockDiv = 0;
  55              		.loc 1 388 3 is_stmt 1 view .LVU13
  56              		.loc 1 388 22 is_stmt 0 view .LVU14
  57 0016 9A61     		str	r2, [r3, #24]
 389:Core/Src/main.c ****   /* USER CODE BEGIN SDMMC1_Init 2 */
 390:Core/Src/main.c ****   // FatFS sets the SD card to 4-bit mode in its own initialisation,
 391:Core/Src/main.c ****   // so it should be left as 1-bit for now.
 392:Core/Src/main.c ****   hsd1.Init.BusWide = SDMMC_BUS_WIDE_1B;
  58              		.loc 1 392 3 is_stmt 1 view .LVU15
  59              		.loc 1 392 21 is_stmt 0 view .LVU16
  60 0018 1A61     		str	r2, [r3, #16]
 393:Core/Src/main.c ****   /* USER CODE END SDMMC1_Init 2 */
 394:Core/Src/main.c **** 
 395:Core/Src/main.c **** }
  61              		.loc 1 395 1 view .LVU17
  62 001a 7047     		bx	lr
ARM GAS  /var/folders/fz/x0kldt2j7vs_j4slv3pyc44m0000gp/T//ccJSrhYz.s 			page 9


  63              	.L3:
  64              		.align	2
  65              	.L2:
  66 001c 00000000 		.word	hsd1
  67 0020 002C0140 		.word	1073818624
  68              		.cfi_endproc
  69              	.LFE149:
  71              		.section	.text.MX_GPIO_Init,"ax",%progbits
  72              		.align	1
  73              		.syntax unified
  74              		.thumb
  75              		.thumb_func
  77              	MX_GPIO_Init:
  78              	.LFB153:
 396:Core/Src/main.c **** 
 397:Core/Src/main.c **** /**
 398:Core/Src/main.c ****   * @brief TIM3 Initialization Function
 399:Core/Src/main.c ****   * @param None
 400:Core/Src/main.c ****   * @retval None
 401:Core/Src/main.c ****   */
 402:Core/Src/main.c **** static void MX_TIM3_Init(void)
 403:Core/Src/main.c **** {
 404:Core/Src/main.c **** 
 405:Core/Src/main.c ****   /* USER CODE BEGIN TIM3_Init 0 */
 406:Core/Src/main.c **** 
 407:Core/Src/main.c ****   /* USER CODE END TIM3_Init 0 */
 408:Core/Src/main.c **** 
 409:Core/Src/main.c ****   TIM_ClockConfigTypeDef sClockSourceConfig = {0};
 410:Core/Src/main.c ****   TIM_MasterConfigTypeDef sMasterConfig = {0};
 411:Core/Src/main.c ****   TIM_OC_InitTypeDef sConfigOC = {0};
 412:Core/Src/main.c **** 
 413:Core/Src/main.c ****   /* USER CODE BEGIN TIM3_Init 1 */
 414:Core/Src/main.c **** 
 415:Core/Src/main.c ****   /* USER CODE END TIM3_Init 1 */
 416:Core/Src/main.c ****   htim3.Instance = TIM3;
 417:Core/Src/main.c ****   htim3.Init.Prescaler = 9999;
 418:Core/Src/main.c ****   htim3.Init.CounterMode = TIM_COUNTERMODE_UP;
 419:Core/Src/main.c ****   htim3.Init.Period = 10000;
 420:Core/Src/main.c ****   htim3.Init.ClockDivision = TIM_CLOCKDIVISION_DIV1;
 421:Core/Src/main.c ****   htim3.Init.AutoReloadPreload = TIM_AUTORELOAD_PRELOAD_DISABLE;
 422:Core/Src/main.c ****   if (HAL_TIM_Base_Init(&htim3) != HAL_OK)
 423:Core/Src/main.c ****   {
 424:Core/Src/main.c ****     Error_Handler();
 425:Core/Src/main.c ****   }
 426:Core/Src/main.c ****   sClockSourceConfig.ClockSource = TIM_CLOCKSOURCE_INTERNAL;
 427:Core/Src/main.c ****   if (HAL_TIM_ConfigClockSource(&htim3, &sClockSourceConfig) != HAL_OK)
 428:Core/Src/main.c ****   {
 429:Core/Src/main.c ****     Error_Handler();
 430:Core/Src/main.c ****   }
 431:Core/Src/main.c ****   if (HAL_TIM_PWM_Init(&htim3) != HAL_OK)
 432:Core/Src/main.c ****   {
 433:Core/Src/main.c ****     Error_Handler();
 434:Core/Src/main.c ****   }
 435:Core/Src/main.c ****   sMasterConfig.MasterOutputTrigger = TIM_TRGO_RESET;
 436:Core/Src/main.c ****   sMasterConfig.MasterSlaveMode = TIM_MASTERSLAVEMODE_DISABLE;
 437:Core/Src/main.c ****   if (HAL_TIMEx_MasterConfigSynchronization(&htim3, &sMasterConfig) != HAL_OK)
 438:Core/Src/main.c ****   {
ARM GAS  /var/folders/fz/x0kldt2j7vs_j4slv3pyc44m0000gp/T//ccJSrhYz.s 			page 10


 439:Core/Src/main.c ****     Error_Handler();
 440:Core/Src/main.c ****   }
 441:Core/Src/main.c ****   sConfigOC.OCMode = TIM_OCMODE_PWM1;
 442:Core/Src/main.c ****   sConfigOC.Pulse = 0;
 443:Core/Src/main.c ****   sConfigOC.OCPolarity = TIM_OCPOLARITY_HIGH;
 444:Core/Src/main.c ****   sConfigOC.OCFastMode = TIM_OCFAST_DISABLE;
 445:Core/Src/main.c ****   if (HAL_TIM_PWM_ConfigChannel(&htim3, &sConfigOC, TIM_CHANNEL_1) != HAL_OK)
 446:Core/Src/main.c ****   {
 447:Core/Src/main.c ****     Error_Handler();
 448:Core/Src/main.c ****   }
 449:Core/Src/main.c ****   /* USER CODE BEGIN TIM3_Init 2 */
 450:Core/Src/main.c **** 
 451:Core/Src/main.c ****   /* USER CODE END TIM3_Init 2 */
 452:Core/Src/main.c ****   HAL_TIM_MspPostInit(&htim3);
 453:Core/Src/main.c **** 
 454:Core/Src/main.c **** }
 455:Core/Src/main.c **** 
 456:Core/Src/main.c **** /**
 457:Core/Src/main.c ****   * @brief USB_OTG_HS Initialization Function
 458:Core/Src/main.c ****   * @param None
 459:Core/Src/main.c ****   * @retval None
 460:Core/Src/main.c ****   */
 461:Core/Src/main.c **** static void MX_USB_OTG_HS_PCD_Init(void)
 462:Core/Src/main.c **** {
 463:Core/Src/main.c **** 
 464:Core/Src/main.c ****   /* USER CODE BEGIN USB_OTG_HS_Init 0 */
 465:Core/Src/main.c **** 
 466:Core/Src/main.c ****   /* USER CODE END USB_OTG_HS_Init 0 */
 467:Core/Src/main.c **** 
 468:Core/Src/main.c ****   /* USER CODE BEGIN USB_OTG_HS_Init 1 */
 469:Core/Src/main.c **** 
 470:Core/Src/main.c ****   /* USER CODE END USB_OTG_HS_Init 1 */
 471:Core/Src/main.c ****   hpcd_USB_OTG_HS.Instance = USB_OTG_HS;
 472:Core/Src/main.c ****   hpcd_USB_OTG_HS.Init.dev_endpoints = 8;
 473:Core/Src/main.c ****   hpcd_USB_OTG_HS.Init.speed = PCD_SPEED_HIGH;
 474:Core/Src/main.c ****   hpcd_USB_OTG_HS.Init.dma_enable = DISABLE;
 475:Core/Src/main.c ****   hpcd_USB_OTG_HS.Init.phy_itface = USB_OTG_ULPI_PHY;
 476:Core/Src/main.c ****   hpcd_USB_OTG_HS.Init.Sof_enable = DISABLE;
 477:Core/Src/main.c ****   hpcd_USB_OTG_HS.Init.low_power_enable = DISABLE;
 478:Core/Src/main.c ****   hpcd_USB_OTG_HS.Init.lpm_enable = DISABLE;
 479:Core/Src/main.c ****   hpcd_USB_OTG_HS.Init.vbus_sensing_enable = DISABLE;
 480:Core/Src/main.c ****   hpcd_USB_OTG_HS.Init.use_dedicated_ep1 = DISABLE;
 481:Core/Src/main.c ****   hpcd_USB_OTG_HS.Init.use_external_vbus = DISABLE;
 482:Core/Src/main.c ****   if (HAL_PCD_Init(&hpcd_USB_OTG_HS) != HAL_OK)
 483:Core/Src/main.c ****   {
 484:Core/Src/main.c ****     Error_Handler();
 485:Core/Src/main.c ****   }
 486:Core/Src/main.c ****   /* USER CODE BEGIN USB_OTG_HS_Init 2 */
 487:Core/Src/main.c **** 
 488:Core/Src/main.c ****   /* USER CODE END USB_OTG_HS_Init 2 */
 489:Core/Src/main.c **** 
 490:Core/Src/main.c **** }
 491:Core/Src/main.c **** 
 492:Core/Src/main.c **** /**
 493:Core/Src/main.c ****   * Enable DMA controller clock
 494:Core/Src/main.c ****   */
 495:Core/Src/main.c **** static void MX_DMA_Init(void)
ARM GAS  /var/folders/fz/x0kldt2j7vs_j4slv3pyc44m0000gp/T//ccJSrhYz.s 			page 11


 496:Core/Src/main.c **** {
 497:Core/Src/main.c **** 
 498:Core/Src/main.c ****   /* DMA controller clock enable */
 499:Core/Src/main.c ****   __HAL_RCC_DMA2_CLK_ENABLE();
 500:Core/Src/main.c **** 
 501:Core/Src/main.c ****   /* DMA interrupt init */
 502:Core/Src/main.c ****   /* DMA2_Stream1_IRQn interrupt configuration */
 503:Core/Src/main.c ****   HAL_NVIC_SetPriority(DMA2_Stream1_IRQn, 0, 0);
 504:Core/Src/main.c ****   HAL_NVIC_EnableIRQ(DMA2_Stream1_IRQn);
 505:Core/Src/main.c ****   /* DMA2_Stream3_IRQn interrupt configuration */
 506:Core/Src/main.c ****   HAL_NVIC_SetPriority(DMA2_Stream3_IRQn, 0, 0);
 507:Core/Src/main.c ****   HAL_NVIC_EnableIRQ(DMA2_Stream3_IRQn);
 508:Core/Src/main.c **** 
 509:Core/Src/main.c **** }
 510:Core/Src/main.c **** 
 511:Core/Src/main.c **** /**
 512:Core/Src/main.c ****   * @brief GPIO Initialization Function
 513:Core/Src/main.c ****   * @param None
 514:Core/Src/main.c ****   * @retval None
 515:Core/Src/main.c ****   */
 516:Core/Src/main.c **** static void MX_GPIO_Init(void)
 517:Core/Src/main.c **** {
  79              		.loc 1 517 1 is_stmt 1 view -0
  80              		.cfi_startproc
  81              		@ args = 0, pretend = 0, frame = 64
  82              		@ frame_needed = 0, uses_anonymous_args = 0
  83 0000 2DE9F04F 		push	{r4, r5, r6, r7, r8, r9, r10, fp, lr}
  84              		.cfi_def_cfa_offset 36
  85              		.cfi_offset 4, -36
  86              		.cfi_offset 5, -32
  87              		.cfi_offset 6, -28
  88              		.cfi_offset 7, -24
  89              		.cfi_offset 8, -20
  90              		.cfi_offset 9, -16
  91              		.cfi_offset 10, -12
  92              		.cfi_offset 11, -8
  93              		.cfi_offset 14, -4
  94 0004 91B0     		sub	sp, sp, #68
  95              		.cfi_def_cfa_offset 104
 518:Core/Src/main.c ****   GPIO_InitTypeDef GPIO_InitStruct = {0};
  96              		.loc 1 518 3 view .LVU19
  97              		.loc 1 518 20 is_stmt 0 view .LVU20
  98 0006 0024     		movs	r4, #0
  99 0008 0B94     		str	r4, [sp, #44]
 100 000a 0C94     		str	r4, [sp, #48]
 101 000c 0D94     		str	r4, [sp, #52]
 102 000e 0E94     		str	r4, [sp, #56]
 103 0010 0F94     		str	r4, [sp, #60]
 519:Core/Src/main.c **** /* USER CODE BEGIN MX_GPIO_Init_1 */
 520:Core/Src/main.c **** /* USER CODE END MX_GPIO_Init_1 */
 521:Core/Src/main.c **** 
 522:Core/Src/main.c ****   /* GPIO Ports Clock Enable */
 523:Core/Src/main.c ****   __HAL_RCC_GPIOE_CLK_ENABLE();
 104              		.loc 1 523 3 is_stmt 1 view .LVU21
 105              	.LBB4:
 106              		.loc 1 523 3 view .LVU22
 107              		.loc 1 523 3 view .LVU23
ARM GAS  /var/folders/fz/x0kldt2j7vs_j4slv3pyc44m0000gp/T//ccJSrhYz.s 			page 12


 108 0012 AC4B     		ldr	r3, .L6
 109 0014 1A6B     		ldr	r2, [r3, #48]
 110 0016 42F01002 		orr	r2, r2, #16
 111 001a 1A63     		str	r2, [r3, #48]
 112              		.loc 1 523 3 view .LVU24
 113 001c 1A6B     		ldr	r2, [r3, #48]
 114 001e 02F01002 		and	r2, r2, #16
 115 0022 0092     		str	r2, [sp]
 116              		.loc 1 523 3 view .LVU25
 117 0024 009A     		ldr	r2, [sp]
 118              	.LBE4:
 119              		.loc 1 523 3 view .LVU26
 524:Core/Src/main.c ****   __HAL_RCC_GPIOG_CLK_ENABLE();
 120              		.loc 1 524 3 view .LVU27
 121              	.LBB5:
 122              		.loc 1 524 3 view .LVU28
 123              		.loc 1 524 3 view .LVU29
 124 0026 1A6B     		ldr	r2, [r3, #48]
 125 0028 42F04002 		orr	r2, r2, #64
 126 002c 1A63     		str	r2, [r3, #48]
 127              		.loc 1 524 3 view .LVU30
 128 002e 1A6B     		ldr	r2, [r3, #48]
 129 0030 02F04002 		and	r2, r2, #64
 130 0034 0192     		str	r2, [sp, #4]
 131              		.loc 1 524 3 view .LVU31
 132 0036 019A     		ldr	r2, [sp, #4]
 133              	.LBE5:
 134              		.loc 1 524 3 view .LVU32
 525:Core/Src/main.c ****   __HAL_RCC_GPIOB_CLK_ENABLE();
 135              		.loc 1 525 3 view .LVU33
 136              	.LBB6:
 137              		.loc 1 525 3 view .LVU34
 138              		.loc 1 525 3 view .LVU35
 139 0038 1A6B     		ldr	r2, [r3, #48]
 140 003a 42F00202 		orr	r2, r2, #2
 141 003e 1A63     		str	r2, [r3, #48]
 142              		.loc 1 525 3 view .LVU36
 143 0040 1A6B     		ldr	r2, [r3, #48]
 144 0042 02F00202 		and	r2, r2, #2
 145 0046 0292     		str	r2, [sp, #8]
 146              		.loc 1 525 3 view .LVU37
 147 0048 029A     		ldr	r2, [sp, #8]
 148              	.LBE6:
 149              		.loc 1 525 3 view .LVU38
 526:Core/Src/main.c ****   __HAL_RCC_GPIOD_CLK_ENABLE();
 150              		.loc 1 526 3 view .LVU39
 151              	.LBB7:
 152              		.loc 1 526 3 view .LVU40
 153              		.loc 1 526 3 view .LVU41
 154 004a 1A6B     		ldr	r2, [r3, #48]
 155 004c 42F00802 		orr	r2, r2, #8
 156 0050 1A63     		str	r2, [r3, #48]
 157              		.loc 1 526 3 view .LVU42
 158 0052 1A6B     		ldr	r2, [r3, #48]
 159 0054 02F00802 		and	r2, r2, #8
 160 0058 0392     		str	r2, [sp, #12]
 161              		.loc 1 526 3 view .LVU43
ARM GAS  /var/folders/fz/x0kldt2j7vs_j4slv3pyc44m0000gp/T//ccJSrhYz.s 			page 13


 162 005a 039A     		ldr	r2, [sp, #12]
 163              	.LBE7:
 164              		.loc 1 526 3 view .LVU44
 527:Core/Src/main.c ****   __HAL_RCC_GPIOC_CLK_ENABLE();
 165              		.loc 1 527 3 view .LVU45
 166              	.LBB8:
 167              		.loc 1 527 3 view .LVU46
 168              		.loc 1 527 3 view .LVU47
 169 005c 1A6B     		ldr	r2, [r3, #48]
 170 005e 42F00402 		orr	r2, r2, #4
 171 0062 1A63     		str	r2, [r3, #48]
 172              		.loc 1 527 3 view .LVU48
 173 0064 1A6B     		ldr	r2, [r3, #48]
 174 0066 02F00402 		and	r2, r2, #4
 175 006a 0492     		str	r2, [sp, #16]
 176              		.loc 1 527 3 view .LVU49
 177 006c 049A     		ldr	r2, [sp, #16]
 178              	.LBE8:
 179              		.loc 1 527 3 view .LVU50
 528:Core/Src/main.c ****   __HAL_RCC_GPIOA_CLK_ENABLE();
 180              		.loc 1 528 3 view .LVU51
 181              	.LBB9:
 182              		.loc 1 528 3 view .LVU52
 183              		.loc 1 528 3 view .LVU53
 184 006e 1A6B     		ldr	r2, [r3, #48]
 185 0070 42F00102 		orr	r2, r2, #1
 186 0074 1A63     		str	r2, [r3, #48]
 187              		.loc 1 528 3 view .LVU54
 188 0076 1A6B     		ldr	r2, [r3, #48]
 189 0078 02F00102 		and	r2, r2, #1
 190 007c 0592     		str	r2, [sp, #20]
 191              		.loc 1 528 3 view .LVU55
 192 007e 059A     		ldr	r2, [sp, #20]
 193              	.LBE9:
 194              		.loc 1 528 3 view .LVU56
 529:Core/Src/main.c ****   __HAL_RCC_GPIOJ_CLK_ENABLE();
 195              		.loc 1 529 3 view .LVU57
 196              	.LBB10:
 197              		.loc 1 529 3 view .LVU58
 198              		.loc 1 529 3 view .LVU59
 199 0080 1A6B     		ldr	r2, [r3, #48]
 200 0082 42F40072 		orr	r2, r2, #512
 201 0086 1A63     		str	r2, [r3, #48]
 202              		.loc 1 529 3 view .LVU60
 203 0088 1A6B     		ldr	r2, [r3, #48]
 204 008a 02F40072 		and	r2, r2, #512
 205 008e 0692     		str	r2, [sp, #24]
 206              		.loc 1 529 3 view .LVU61
 207 0090 069A     		ldr	r2, [sp, #24]
 208              	.LBE10:
 209              		.loc 1 529 3 view .LVU62
 530:Core/Src/main.c ****   __HAL_RCC_GPIOI_CLK_ENABLE();
 210              		.loc 1 530 3 view .LVU63
 211              	.LBB11:
 212              		.loc 1 530 3 view .LVU64
 213              		.loc 1 530 3 view .LVU65
 214 0092 1A6B     		ldr	r2, [r3, #48]
ARM GAS  /var/folders/fz/x0kldt2j7vs_j4slv3pyc44m0000gp/T//ccJSrhYz.s 			page 14


 215 0094 42F48072 		orr	r2, r2, #256
 216 0098 1A63     		str	r2, [r3, #48]
 217              		.loc 1 530 3 view .LVU66
 218 009a 1A6B     		ldr	r2, [r3, #48]
 219 009c 02F48072 		and	r2, r2, #256
 220 00a0 0792     		str	r2, [sp, #28]
 221              		.loc 1 530 3 view .LVU67
 222 00a2 079A     		ldr	r2, [sp, #28]
 223              	.LBE11:
 224              		.loc 1 530 3 view .LVU68
 531:Core/Src/main.c ****   __HAL_RCC_GPIOK_CLK_ENABLE();
 225              		.loc 1 531 3 view .LVU69
 226              	.LBB12:
 227              		.loc 1 531 3 view .LVU70
 228              		.loc 1 531 3 view .LVU71
 229 00a4 1A6B     		ldr	r2, [r3, #48]
 230 00a6 42F48062 		orr	r2, r2, #1024
 231 00aa 1A63     		str	r2, [r3, #48]
 232              		.loc 1 531 3 view .LVU72
 233 00ac 1A6B     		ldr	r2, [r3, #48]
 234 00ae 02F48062 		and	r2, r2, #1024
 235 00b2 0892     		str	r2, [sp, #32]
 236              		.loc 1 531 3 view .LVU73
 237 00b4 089A     		ldr	r2, [sp, #32]
 238              	.LBE12:
 239              		.loc 1 531 3 view .LVU74
 532:Core/Src/main.c ****   __HAL_RCC_GPIOF_CLK_ENABLE();
 240              		.loc 1 532 3 view .LVU75
 241              	.LBB13:
 242              		.loc 1 532 3 view .LVU76
 243              		.loc 1 532 3 view .LVU77
 244 00b6 1A6B     		ldr	r2, [r3, #48]
 245 00b8 42F02002 		orr	r2, r2, #32
 246 00bc 1A63     		str	r2, [r3, #48]
 247              		.loc 1 532 3 view .LVU78
 248 00be 1A6B     		ldr	r2, [r3, #48]
 249 00c0 02F02002 		and	r2, r2, #32
 250 00c4 0992     		str	r2, [sp, #36]
 251              		.loc 1 532 3 view .LVU79
 252 00c6 099A     		ldr	r2, [sp, #36]
 253              	.LBE13:
 254              		.loc 1 532 3 view .LVU80
 533:Core/Src/main.c ****   __HAL_RCC_GPIOH_CLK_ENABLE();
 255              		.loc 1 533 3 view .LVU81
 256              	.LBB14:
 257              		.loc 1 533 3 view .LVU82
 258              		.loc 1 533 3 view .LVU83
 259 00c8 1A6B     		ldr	r2, [r3, #48]
 260 00ca 42F08002 		orr	r2, r2, #128
 261 00ce 1A63     		str	r2, [r3, #48]
 262              		.loc 1 533 3 view .LVU84
 263 00d0 1B6B     		ldr	r3, [r3, #48]
 264 00d2 03F08003 		and	r3, r3, #128
 265 00d6 0A93     		str	r3, [sp, #40]
 266              		.loc 1 533 3 view .LVU85
 267 00d8 0A9B     		ldr	r3, [sp, #40]
 268              	.LBE14:
ARM GAS  /var/folders/fz/x0kldt2j7vs_j4slv3pyc44m0000gp/T//ccJSrhYz.s 			page 15


 269              		.loc 1 533 3 view .LVU86
 534:Core/Src/main.c **** 
 535:Core/Src/main.c ****   /*Configure GPIO pin Output Level */
 536:Core/Src/main.c ****   HAL_GPIO_WritePin(OTG_FS_PowerSwitchOn_GPIO_Port, OTG_FS_PowerSwitchOn_Pin, GPIO_PIN_SET);
 270              		.loc 1 536 3 view .LVU87
 271 00da DFF804B2 		ldr	fp, .L6+28
 272 00de 0122     		movs	r2, #1
 273 00e0 2021     		movs	r1, #32
 274 00e2 5846     		mov	r0, fp
 275 00e4 FFF7FEFF 		bl	HAL_GPIO_WritePin
 276              	.LVL0:
 537:Core/Src/main.c **** 
 538:Core/Src/main.c ****   /*Configure GPIO pin Output Level */
 539:Core/Src/main.c ****   HAL_GPIO_WritePin(GPIOI, ARDUINO_D7_Pin|ARDUINO_D8_Pin|LCD_DISP_Pin, GPIO_PIN_RESET);
 277              		.loc 1 539 3 view .LVU88
 278 00e8 DFF8F881 		ldr	r8, .L6+32
 279 00ec 2246     		mov	r2, r4
 280 00ee 41F20C01 		movw	r1, #4108
 281 00f2 4046     		mov	r0, r8
 282 00f4 FFF7FEFF 		bl	HAL_GPIO_WritePin
 283              	.LVL1:
 540:Core/Src/main.c **** 
 541:Core/Src/main.c ****   /*Configure GPIO pin Output Level */
 542:Core/Src/main.c ****   HAL_GPIO_WritePin(LCD_BL_CTRL_GPIO_Port, LCD_BL_CTRL_Pin, GPIO_PIN_RESET);
 284              		.loc 1 542 3 view .LVU89
 285 00f8 2246     		mov	r2, r4
 286 00fa 0821     		movs	r1, #8
 287 00fc 7248     		ldr	r0, .L6+4
 288 00fe FFF7FEFF 		bl	HAL_GPIO_WritePin
 289              	.LVL2:
 543:Core/Src/main.c **** 
 544:Core/Src/main.c ****   /*Configure GPIO pin Output Level */
 545:Core/Src/main.c ****   HAL_GPIO_WritePin(DCMI_PWR_EN_GPIO_Port, DCMI_PWR_EN_Pin, GPIO_PIN_RESET);
 290              		.loc 1 545 3 view .LVU90
 291 0102 2246     		mov	r2, r4
 292 0104 4FF40051 		mov	r1, #8192
 293 0108 7048     		ldr	r0, .L6+8
 294 010a FFF7FEFF 		bl	HAL_GPIO_WritePin
 295              	.LVL3:
 546:Core/Src/main.c **** 
 547:Core/Src/main.c ****   /*Configure GPIO pin Output Level */
 548:Core/Src/main.c ****   HAL_GPIO_WritePin(GPIOG, ARDUINO_D4_Pin|ARDUINO_D2_Pin|EXT_RST_Pin, GPIO_PIN_RESET);
 296              		.loc 1 548 3 view .LVU91
 297 010e DFF8D8A1 		ldr	r10, .L6+36
 298 0112 2246     		mov	r2, r4
 299 0114 C821     		movs	r1, #200
 300 0116 5046     		mov	r0, r10
 301 0118 FFF7FEFF 		bl	HAL_GPIO_WritePin
 302              	.LVL4:
 549:Core/Src/main.c **** 
 550:Core/Src/main.c ****   /*Configure GPIO pin : LCD_B0_Pin */
 551:Core/Src/main.c ****   GPIO_InitStruct.Pin = LCD_B0_Pin;
 303              		.loc 1 551 3 view .LVU92
 304              		.loc 1 551 23 is_stmt 0 view .LVU93
 305 011c 1023     		movs	r3, #16
 306 011e 0B93     		str	r3, [sp, #44]
 552:Core/Src/main.c ****   GPIO_InitStruct.Mode = GPIO_MODE_AF_PP;
ARM GAS  /var/folders/fz/x0kldt2j7vs_j4slv3pyc44m0000gp/T//ccJSrhYz.s 			page 16


 307              		.loc 1 552 3 is_stmt 1 view .LVU94
 308              		.loc 1 552 24 is_stmt 0 view .LVU95
 309 0120 0225     		movs	r5, #2
 310 0122 0C95     		str	r5, [sp, #48]
 553:Core/Src/main.c ****   GPIO_InitStruct.Pull = GPIO_NOPULL;
 311              		.loc 1 553 3 is_stmt 1 view .LVU96
 312              		.loc 1 553 24 is_stmt 0 view .LVU97
 313 0124 0D94     		str	r4, [sp, #52]
 554:Core/Src/main.c ****   GPIO_InitStruct.Speed = GPIO_SPEED_FREQ_LOW;
 314              		.loc 1 554 3 is_stmt 1 view .LVU98
 315              		.loc 1 554 25 is_stmt 0 view .LVU99
 316 0126 0E94     		str	r4, [sp, #56]
 555:Core/Src/main.c ****   GPIO_InitStruct.Alternate = GPIO_AF14_LTDC;
 317              		.loc 1 555 3 is_stmt 1 view .LVU100
 318              		.loc 1 555 29 is_stmt 0 view .LVU101
 319 0128 0E23     		movs	r3, #14
 320 012a 0F93     		str	r3, [sp, #60]
 556:Core/Src/main.c ****   HAL_GPIO_Init(LCD_B0_GPIO_Port, &GPIO_InitStruct);
 321              		.loc 1 556 3 is_stmt 1 view .LVU102
 322 012c 684F     		ldr	r7, .L6+12
 323 012e 0BA9     		add	r1, sp, #44
 324 0130 3846     		mov	r0, r7
 325 0132 FFF7FEFF 		bl	HAL_GPIO_Init
 326              	.LVL5:
 557:Core/Src/main.c **** 
 558:Core/Src/main.c ****   /*Configure GPIO pin : OTG_HS_OverCurrent_Pin */
 559:Core/Src/main.c ****   GPIO_InitStruct.Pin = OTG_HS_OverCurrent_Pin;
 327              		.loc 1 559 3 view .LVU103
 328              		.loc 1 559 23 is_stmt 0 view .LVU104
 329 0136 0823     		movs	r3, #8
 330 0138 0B93     		str	r3, [sp, #44]
 560:Core/Src/main.c ****   GPIO_InitStruct.Mode = GPIO_MODE_INPUT;
 331              		.loc 1 560 3 is_stmt 1 view .LVU105
 332              		.loc 1 560 24 is_stmt 0 view .LVU106
 333 013a 0C94     		str	r4, [sp, #48]
 561:Core/Src/main.c ****   GPIO_InitStruct.Pull = GPIO_NOPULL;
 334              		.loc 1 561 3 is_stmt 1 view .LVU107
 335              		.loc 1 561 24 is_stmt 0 view .LVU108
 336 013c 0D94     		str	r4, [sp, #52]
 562:Core/Src/main.c ****   HAL_GPIO_Init(OTG_HS_OverCurrent_GPIO_Port, &GPIO_InitStruct);
 337              		.loc 1 562 3 is_stmt 1 view .LVU109
 338 013e 0BA9     		add	r1, sp, #44
 339 0140 3846     		mov	r0, r7
 340 0142 FFF7FEFF 		bl	HAL_GPIO_Init
 341              	.LVL6:
 563:Core/Src/main.c **** 
 564:Core/Src/main.c ****   /*Configure GPIO pin : QSPI_D2_Pin */
 565:Core/Src/main.c ****   GPIO_InitStruct.Pin = QSPI_D2_Pin;
 342              		.loc 1 565 3 view .LVU110
 343              		.loc 1 565 23 is_stmt 0 view .LVU111
 344 0146 0423     		movs	r3, #4
 345 0148 0B93     		str	r3, [sp, #44]
 566:Core/Src/main.c ****   GPIO_InitStruct.Mode = GPIO_MODE_AF_PP;
 346              		.loc 1 566 3 is_stmt 1 view .LVU112
 347              		.loc 1 566 24 is_stmt 0 view .LVU113
 348 014a 0C95     		str	r5, [sp, #48]
 567:Core/Src/main.c ****   GPIO_InitStruct.Pull = GPIO_NOPULL;
ARM GAS  /var/folders/fz/x0kldt2j7vs_j4slv3pyc44m0000gp/T//ccJSrhYz.s 			page 17


 349              		.loc 1 567 3 is_stmt 1 view .LVU114
 350              		.loc 1 567 24 is_stmt 0 view .LVU115
 351 014c 0D94     		str	r4, [sp, #52]
 568:Core/Src/main.c ****   GPIO_InitStruct.Speed = GPIO_SPEED_FREQ_VERY_HIGH;
 352              		.loc 1 568 3 is_stmt 1 view .LVU116
 353              		.loc 1 568 25 is_stmt 0 view .LVU117
 354 014e 0326     		movs	r6, #3
 355 0150 0E96     		str	r6, [sp, #56]
 569:Core/Src/main.c ****   GPIO_InitStruct.Alternate = GPIO_AF9_QUADSPI;
 356              		.loc 1 569 3 is_stmt 1 view .LVU118
 357              		.loc 1 569 29 is_stmt 0 view .LVU119
 358 0152 0923     		movs	r3, #9
 359 0154 0F93     		str	r3, [sp, #60]
 570:Core/Src/main.c ****   HAL_GPIO_Init(QSPI_D2_GPIO_Port, &GPIO_InitStruct);
 360              		.loc 1 570 3 is_stmt 1 view .LVU120
 361 0156 0BA9     		add	r1, sp, #44
 362 0158 3846     		mov	r0, r7
 363 015a FFF7FEFF 		bl	HAL_GPIO_Init
 364              	.LVL7:
 571:Core/Src/main.c **** 
 572:Core/Src/main.c ****   /*Configure GPIO pins : RMII_TXD1_Pin RMII_TXD0_Pin RMII_TX_EN_Pin */
 573:Core/Src/main.c ****   GPIO_InitStruct.Pin = RMII_TXD1_Pin|RMII_TXD0_Pin|RMII_TX_EN_Pin;
 365              		.loc 1 573 3 view .LVU121
 366              		.loc 1 573 23 is_stmt 0 view .LVU122
 367 015e 4FF4D043 		mov	r3, #26624
 368 0162 0B93     		str	r3, [sp, #44]
 574:Core/Src/main.c ****   GPIO_InitStruct.Mode = GPIO_MODE_AF_PP;
 369              		.loc 1 574 3 is_stmt 1 view .LVU123
 370              		.loc 1 574 24 is_stmt 0 view .LVU124
 371 0164 0C95     		str	r5, [sp, #48]
 575:Core/Src/main.c ****   GPIO_InitStruct.Pull = GPIO_NOPULL;
 372              		.loc 1 575 3 is_stmt 1 view .LVU125
 373              		.loc 1 575 24 is_stmt 0 view .LVU126
 374 0166 0D94     		str	r4, [sp, #52]
 576:Core/Src/main.c ****   GPIO_InitStruct.Speed = GPIO_SPEED_FREQ_VERY_HIGH;
 375              		.loc 1 576 3 is_stmt 1 view .LVU127
 376              		.loc 1 576 25 is_stmt 0 view .LVU128
 377 0168 0E96     		str	r6, [sp, #56]
 577:Core/Src/main.c ****   GPIO_InitStruct.Alternate = GPIO_AF11_ETH;
 378              		.loc 1 577 3 is_stmt 1 view .LVU129
 379              		.loc 1 577 29 is_stmt 0 view .LVU130
 380 016a 0B23     		movs	r3, #11
 381 016c 0F93     		str	r3, [sp, #60]
 578:Core/Src/main.c ****   HAL_GPIO_Init(GPIOG, &GPIO_InitStruct);
 382              		.loc 1 578 3 is_stmt 1 view .LVU131
 383 016e 0BA9     		add	r1, sp, #44
 384 0170 5046     		mov	r0, r10
 385 0172 FFF7FEFF 		bl	HAL_GPIO_Init
 386              	.LVL8:
 579:Core/Src/main.c **** 
 580:Core/Src/main.c ****   /*Configure GPIO pins : FMC_NBL1_Pin FMC_NBL0_Pin FMC_D5_Pin FMC_D6_Pin
 581:Core/Src/main.c ****                            FMC_D8_Pin FMC_D11_Pin FMC_D4_Pin FMC_D7_Pin
 582:Core/Src/main.c ****                            FMC_D9_Pin FMC_D12_Pin FMC_D10_Pin */
 583:Core/Src/main.c ****   GPIO_InitStruct.Pin = FMC_NBL1_Pin|FMC_NBL0_Pin|FMC_D5_Pin|FMC_D6_Pin
 387              		.loc 1 583 3 view .LVU132
 388              		.loc 1 583 23 is_stmt 0 view .LVU133
 389 0176 4FF68373 		movw	r3, #65411
ARM GAS  /var/folders/fz/x0kldt2j7vs_j4slv3pyc44m0000gp/T//ccJSrhYz.s 			page 18


 390 017a 0B93     		str	r3, [sp, #44]
 584:Core/Src/main.c ****                           |FMC_D8_Pin|FMC_D11_Pin|FMC_D4_Pin|FMC_D7_Pin
 585:Core/Src/main.c ****                           |FMC_D9_Pin|FMC_D12_Pin|FMC_D10_Pin;
 586:Core/Src/main.c ****   GPIO_InitStruct.Mode = GPIO_MODE_AF_PP;
 391              		.loc 1 586 3 is_stmt 1 view .LVU134
 392              		.loc 1 586 24 is_stmt 0 view .LVU135
 393 017c 0C95     		str	r5, [sp, #48]
 587:Core/Src/main.c ****   GPIO_InitStruct.Pull = GPIO_NOPULL;
 394              		.loc 1 587 3 is_stmt 1 view .LVU136
 395              		.loc 1 587 24 is_stmt 0 view .LVU137
 396 017e 0D94     		str	r4, [sp, #52]
 588:Core/Src/main.c ****   GPIO_InitStruct.Speed = GPIO_SPEED_FREQ_VERY_HIGH;
 397              		.loc 1 588 3 is_stmt 1 view .LVU138
 398              		.loc 1 588 25 is_stmt 0 view .LVU139
 399 0180 0E96     		str	r6, [sp, #56]
 589:Core/Src/main.c ****   GPIO_InitStruct.Alternate = GPIO_AF12_FMC;
 400              		.loc 1 589 3 is_stmt 1 view .LVU140
 401              		.loc 1 589 29 is_stmt 0 view .LVU141
 402 0182 0C23     		movs	r3, #12
 403 0184 0F93     		str	r3, [sp, #60]
 590:Core/Src/main.c ****   HAL_GPIO_Init(GPIOE, &GPIO_InitStruct);
 404              		.loc 1 590 3 is_stmt 1 view .LVU142
 405 0186 0BA9     		add	r1, sp, #44
 406 0188 3846     		mov	r0, r7
 407 018a FFF7FEFF 		bl	HAL_GPIO_Init
 408              	.LVL9:
 591:Core/Src/main.c **** 
 592:Core/Src/main.c ****   /*Configure GPIO pin : SPDIF_RX0_Pin */
 593:Core/Src/main.c ****   GPIO_InitStruct.Pin = SPDIF_RX0_Pin;
 409              		.loc 1 593 3 view .LVU143
 410              		.loc 1 593 23 is_stmt 0 view .LVU144
 411 018e 4FF08009 		mov	r9, #128
 412 0192 CDF82C90 		str	r9, [sp, #44]
 594:Core/Src/main.c ****   GPIO_InitStruct.Mode = GPIO_MODE_AF_PP;
 413              		.loc 1 594 3 is_stmt 1 view .LVU145
 414              		.loc 1 594 24 is_stmt 0 view .LVU146
 415 0196 0C95     		str	r5, [sp, #48]
 595:Core/Src/main.c ****   GPIO_InitStruct.Pull = GPIO_NOPULL;
 416              		.loc 1 595 3 is_stmt 1 view .LVU147
 417              		.loc 1 595 24 is_stmt 0 view .LVU148
 418 0198 0D94     		str	r4, [sp, #52]
 596:Core/Src/main.c ****   GPIO_InitStruct.Speed = GPIO_SPEED_FREQ_LOW;
 419              		.loc 1 596 3 is_stmt 1 view .LVU149
 420              		.loc 1 596 25 is_stmt 0 view .LVU150
 421 019a 0E94     		str	r4, [sp, #56]
 597:Core/Src/main.c ****   GPIO_InitStruct.Alternate = GPIO_AF8_SPDIFRX;
 422              		.loc 1 597 3 is_stmt 1 view .LVU151
 423              		.loc 1 597 29 is_stmt 0 view .LVU152
 424 019c 0823     		movs	r3, #8
 425 019e 0F93     		str	r3, [sp, #60]
 598:Core/Src/main.c ****   HAL_GPIO_Init(SPDIF_RX0_GPIO_Port, &GPIO_InitStruct);
 426              		.loc 1 598 3 is_stmt 1 view .LVU153
 427 01a0 0BA9     		add	r1, sp, #44
 428 01a2 5846     		mov	r0, fp
 429 01a4 FFF7FEFF 		bl	HAL_GPIO_Init
 430              	.LVL10:
 599:Core/Src/main.c **** 
ARM GAS  /var/folders/fz/x0kldt2j7vs_j4slv3pyc44m0000gp/T//ccJSrhYz.s 			page 19


 600:Core/Src/main.c ****   /*Configure GPIO pin : ARDUINO_PWM_D9_Pin */
 601:Core/Src/main.c ****   GPIO_InitStruct.Pin = ARDUINO_PWM_D9_Pin;
 431              		.loc 1 601 3 view .LVU154
 432              		.loc 1 601 23 is_stmt 0 view .LVU155
 433 01a8 4FF40043 		mov	r3, #32768
 434 01ac 0B93     		str	r3, [sp, #44]
 602:Core/Src/main.c ****   GPIO_InitStruct.Mode = GPIO_MODE_AF_PP;
 435              		.loc 1 602 3 is_stmt 1 view .LVU156
 436              		.loc 1 602 24 is_stmt 0 view .LVU157
 437 01ae 0C95     		str	r5, [sp, #48]
 603:Core/Src/main.c ****   GPIO_InitStruct.Pull = GPIO_NOPULL;
 438              		.loc 1 603 3 is_stmt 1 view .LVU158
 439              		.loc 1 603 24 is_stmt 0 view .LVU159
 440 01b0 0D94     		str	r4, [sp, #52]
 604:Core/Src/main.c ****   GPIO_InitStruct.Speed = GPIO_SPEED_FREQ_LOW;
 441              		.loc 1 604 3 is_stmt 1 view .LVU160
 442              		.loc 1 604 25 is_stmt 0 view .LVU161
 443 01b2 0E94     		str	r4, [sp, #56]
 605:Core/Src/main.c ****   GPIO_InitStruct.Alternate = GPIO_AF1_TIM2;
 444              		.loc 1 605 3 is_stmt 1 view .LVU162
 445              		.loc 1 605 29 is_stmt 0 view .LVU163
 446 01b4 0127     		movs	r7, #1
 447 01b6 0F97     		str	r7, [sp, #60]
 606:Core/Src/main.c ****   HAL_GPIO_Init(ARDUINO_PWM_D9_GPIO_Port, &GPIO_InitStruct);
 448              		.loc 1 606 3 is_stmt 1 view .LVU164
 449 01b8 0BA9     		add	r1, sp, #44
 450 01ba 4648     		ldr	r0, .L6+16
 451 01bc FFF7FEFF 		bl	HAL_GPIO_Init
 452              	.LVL11:
 607:Core/Src/main.c **** 
 608:Core/Src/main.c ****   /*Configure GPIO pin : VCP_RX_Pin */
 609:Core/Src/main.c ****   GPIO_InitStruct.Pin = VCP_RX_Pin;
 453              		.loc 1 609 3 view .LVU165
 454              		.loc 1 609 23 is_stmt 0 view .LVU166
 455 01c0 CDF82C90 		str	r9, [sp, #44]
 610:Core/Src/main.c ****   GPIO_InitStruct.Mode = GPIO_MODE_AF_PP;
 456              		.loc 1 610 3 is_stmt 1 view .LVU167
 457              		.loc 1 610 24 is_stmt 0 view .LVU168
 458 01c4 0C95     		str	r5, [sp, #48]
 611:Core/Src/main.c ****   GPIO_InitStruct.Pull = GPIO_NOPULL;
 459              		.loc 1 611 3 is_stmt 1 view .LVU169
 460              		.loc 1 611 24 is_stmt 0 view .LVU170
 461 01c6 0D94     		str	r4, [sp, #52]
 612:Core/Src/main.c ****   GPIO_InitStruct.Speed = GPIO_SPEED_FREQ_LOW;
 462              		.loc 1 612 3 is_stmt 1 view .LVU171
 463              		.loc 1 612 25 is_stmt 0 view .LVU172
 464 01c8 0E94     		str	r4, [sp, #56]
 613:Core/Src/main.c ****   GPIO_InitStruct.Alternate = GPIO_AF7_USART1;
 465              		.loc 1 613 3 is_stmt 1 view .LVU173
 466              		.loc 1 613 29 is_stmt 0 view .LVU174
 467 01ca 0723     		movs	r3, #7
 468 01cc 0F93     		str	r3, [sp, #60]
 614:Core/Src/main.c ****   HAL_GPIO_Init(VCP_RX_GPIO_Port, &GPIO_InitStruct);
 469              		.loc 1 614 3 is_stmt 1 view .LVU175
 470 01ce 0BA9     		add	r1, sp, #44
 471 01d0 4148     		ldr	r0, .L6+20
 472 01d2 FFF7FEFF 		bl	HAL_GPIO_Init
ARM GAS  /var/folders/fz/x0kldt2j7vs_j4slv3pyc44m0000gp/T//ccJSrhYz.s 			page 20


 473              	.LVL12:
 615:Core/Src/main.c **** 
 616:Core/Src/main.c ****   /*Configure GPIO pin : QSPI_NCS_Pin */
 617:Core/Src/main.c ****   GPIO_InitStruct.Pin = QSPI_NCS_Pin;
 474              		.loc 1 617 3 view .LVU176
 475              		.loc 1 617 23 is_stmt 0 view .LVU177
 476 01d6 4023     		movs	r3, #64
 477 01d8 0B93     		str	r3, [sp, #44]
 618:Core/Src/main.c ****   GPIO_InitStruct.Mode = GPIO_MODE_AF_PP;
 478              		.loc 1 618 3 is_stmt 1 view .LVU178
 479              		.loc 1 618 24 is_stmt 0 view .LVU179
 480 01da 0C95     		str	r5, [sp, #48]
 619:Core/Src/main.c ****   GPIO_InitStruct.Pull = GPIO_NOPULL;
 481              		.loc 1 619 3 is_stmt 1 view .LVU180
 482              		.loc 1 619 24 is_stmt 0 view .LVU181
 483 01dc 0D94     		str	r4, [sp, #52]
 620:Core/Src/main.c ****   GPIO_InitStruct.Speed = GPIO_SPEED_FREQ_VERY_HIGH;
 484              		.loc 1 620 3 is_stmt 1 view .LVU182
 485              		.loc 1 620 25 is_stmt 0 view .LVU183
 486 01de 0E96     		str	r6, [sp, #56]
 621:Core/Src/main.c ****   GPIO_InitStruct.Alternate = GPIO_AF10_QUADSPI;
 487              		.loc 1 621 3 is_stmt 1 view .LVU184
 488              		.loc 1 621 29 is_stmt 0 view .LVU185
 489 01e0 4FF00A09 		mov	r9, #10
 490 01e4 CDF83C90 		str	r9, [sp, #60]
 622:Core/Src/main.c ****   HAL_GPIO_Init(QSPI_NCS_GPIO_Port, &GPIO_InitStruct);
 491              		.loc 1 622 3 is_stmt 1 view .LVU186
 492 01e8 0BA9     		add	r1, sp, #44
 493 01ea 3B48     		ldr	r0, .L6+20
 494 01ec FFF7FEFF 		bl	HAL_GPIO_Init
 495              	.LVL13:
 623:Core/Src/main.c **** 
 624:Core/Src/main.c ****   /*Configure GPIO pins : FMC_SDNCAS_Pin FMC_SDCLK_Pin FMC_A11_Pin FMC_A10_Pin
 625:Core/Src/main.c ****                            FMC_BA1_Pin FMC_BA0_Pin */
 626:Core/Src/main.c ****   GPIO_InitStruct.Pin = FMC_SDNCAS_Pin|FMC_SDCLK_Pin|FMC_A11_Pin|FMC_A10_Pin
 496              		.loc 1 626 3 view .LVU187
 497              		.loc 1 626 23 is_stmt 0 view .LVU188
 498 01f0 48F23313 		movw	r3, #33075
 499 01f4 0B93     		str	r3, [sp, #44]
 627:Core/Src/main.c ****                           |FMC_BA1_Pin|FMC_BA0_Pin;
 628:Core/Src/main.c ****   GPIO_InitStruct.Mode = GPIO_MODE_AF_PP;
 500              		.loc 1 628 3 is_stmt 1 view .LVU189
 501              		.loc 1 628 24 is_stmt 0 view .LVU190
 502 01f6 0C95     		str	r5, [sp, #48]
 629:Core/Src/main.c ****   GPIO_InitStruct.Pull = GPIO_NOPULL;
 503              		.loc 1 629 3 is_stmt 1 view .LVU191
 504              		.loc 1 629 24 is_stmt 0 view .LVU192
 505 01f8 0D94     		str	r4, [sp, #52]
 630:Core/Src/main.c ****   GPIO_InitStruct.Speed = GPIO_SPEED_FREQ_VERY_HIGH;
 506              		.loc 1 630 3 is_stmt 1 view .LVU193
 507              		.loc 1 630 25 is_stmt 0 view .LVU194
 508 01fa 0E96     		str	r6, [sp, #56]
 631:Core/Src/main.c ****   GPIO_InitStruct.Alternate = GPIO_AF12_FMC;
 509              		.loc 1 631 3 is_stmt 1 view .LVU195
 510              		.loc 1 631 29 is_stmt 0 view .LVU196
 511 01fc 0C23     		movs	r3, #12
 512 01fe 0F93     		str	r3, [sp, #60]
ARM GAS  /var/folders/fz/x0kldt2j7vs_j4slv3pyc44m0000gp/T//ccJSrhYz.s 			page 21


 632:Core/Src/main.c ****   HAL_GPIO_Init(GPIOG, &GPIO_InitStruct);
 513              		.loc 1 632 3 is_stmt 1 view .LVU197
 514 0200 0BA9     		add	r1, sp, #44
 515 0202 5046     		mov	r0, r10
 516 0204 FFF7FEFF 		bl	HAL_GPIO_Init
 517              	.LVL14:
 633:Core/Src/main.c **** 
 634:Core/Src/main.c ****   /*Configure GPIO pins : LCD_B1_Pin LCD_B2_Pin LCD_B3_Pin LCD_G4_Pin
 635:Core/Src/main.c ****                            LCD_G1_Pin LCD_G3_Pin LCD_G0_Pin LCD_G2_Pin
 636:Core/Src/main.c ****                            LCD_R7_Pin LCD_R5_Pin LCD_R6_Pin LCD_R4_Pin
 637:Core/Src/main.c ****                            LCD_R3_Pin LCD_R1_Pin LCD_R2_Pin */
 638:Core/Src/main.c ****   GPIO_InitStruct.Pin = LCD_B1_Pin|LCD_B2_Pin|LCD_B3_Pin|LCD_G4_Pin
 518              		.loc 1 638 3 view .LVU198
 519              		.loc 1 638 23 is_stmt 0 view .LVU199
 520 0208 4EF6FF73 		movw	r3, #61439
 521 020c 0B93     		str	r3, [sp, #44]
 639:Core/Src/main.c ****                           |LCD_G1_Pin|LCD_G3_Pin|LCD_G0_Pin|LCD_G2_Pin
 640:Core/Src/main.c ****                           |LCD_R7_Pin|LCD_R5_Pin|LCD_R6_Pin|LCD_R4_Pin
 641:Core/Src/main.c ****                           |LCD_R3_Pin|LCD_R1_Pin|LCD_R2_Pin;
 642:Core/Src/main.c ****   GPIO_InitStruct.Mode = GPIO_MODE_AF_PP;
 522              		.loc 1 642 3 is_stmt 1 view .LVU200
 523              		.loc 1 642 24 is_stmt 0 view .LVU201
 524 020e 0C95     		str	r5, [sp, #48]
 643:Core/Src/main.c ****   GPIO_InitStruct.Pull = GPIO_NOPULL;
 525              		.loc 1 643 3 is_stmt 1 view .LVU202
 526              		.loc 1 643 24 is_stmt 0 view .LVU203
 527 0210 0D94     		str	r4, [sp, #52]
 644:Core/Src/main.c ****   GPIO_InitStruct.Speed = GPIO_SPEED_FREQ_LOW;
 528              		.loc 1 644 3 is_stmt 1 view .LVU204
 529              		.loc 1 644 25 is_stmt 0 view .LVU205
 530 0212 0E94     		str	r4, [sp, #56]
 645:Core/Src/main.c ****   GPIO_InitStruct.Alternate = GPIO_AF14_LTDC;
 531              		.loc 1 645 3 is_stmt 1 view .LVU206
 532              		.loc 1 645 29 is_stmt 0 view .LVU207
 533 0214 0E23     		movs	r3, #14
 534 0216 0F93     		str	r3, [sp, #60]
 646:Core/Src/main.c ****   HAL_GPIO_Init(GPIOJ, &GPIO_InitStruct);
 535              		.loc 1 646 3 is_stmt 1 view .LVU208
 536 0218 0BA9     		add	r1, sp, #44
 537 021a 3048     		ldr	r0, .L6+24
 538 021c FFF7FEFF 		bl	HAL_GPIO_Init
 539              	.LVL15:
 647:Core/Src/main.c **** 
 648:Core/Src/main.c ****   /*Configure GPIO pin : OTG_FS_VBUS_Pin */
 649:Core/Src/main.c ****   GPIO_InitStruct.Pin = OTG_FS_VBUS_Pin;
 540              		.loc 1 649 3 view .LVU209
 541              		.loc 1 649 23 is_stmt 0 view .LVU210
 542 0220 4FF48053 		mov	r3, #4096
 543 0224 0B93     		str	r3, [sp, #44]
 650:Core/Src/main.c ****   GPIO_InitStruct.Mode = GPIO_MODE_INPUT;
 544              		.loc 1 650 3 is_stmt 1 view .LVU211
 545              		.loc 1 650 24 is_stmt 0 view .LVU212
 546 0226 0C94     		str	r4, [sp, #48]
 651:Core/Src/main.c ****   GPIO_InitStruct.Pull = GPIO_NOPULL;
 547              		.loc 1 651 3 is_stmt 1 view .LVU213
 548              		.loc 1 651 24 is_stmt 0 view .LVU214
 549 0228 0D94     		str	r4, [sp, #52]
ARM GAS  /var/folders/fz/x0kldt2j7vs_j4slv3pyc44m0000gp/T//ccJSrhYz.s 			page 22


 652:Core/Src/main.c ****   HAL_GPIO_Init(OTG_FS_VBUS_GPIO_Port, &GPIO_InitStruct);
 550              		.loc 1 652 3 is_stmt 1 view .LVU215
 551 022a 0BA9     		add	r1, sp, #44
 552 022c 2B48     		ldr	r0, .L6+24
 553 022e FFF7FEFF 		bl	HAL_GPIO_Init
 554              	.LVL16:
 653:Core/Src/main.c **** 
 654:Core/Src/main.c ****   /*Configure GPIO pin : Audio_INT_Pin */
 655:Core/Src/main.c ****   GPIO_InitStruct.Pin = Audio_INT_Pin;
 555              		.loc 1 655 3 view .LVU216
 556              		.loc 1 655 23 is_stmt 0 view .LVU217
 557 0232 4023     		movs	r3, #64
 558 0234 0B93     		str	r3, [sp, #44]
 656:Core/Src/main.c ****   GPIO_InitStruct.Mode = GPIO_MODE_EVT_RISING;
 559              		.loc 1 656 3 is_stmt 1 view .LVU218
 560              		.loc 1 656 24 is_stmt 0 view .LVU219
 561 0236 4FF49013 		mov	r3, #1179648
 562 023a 0C93     		str	r3, [sp, #48]
 657:Core/Src/main.c ****   GPIO_InitStruct.Pull = GPIO_NOPULL;
 563              		.loc 1 657 3 is_stmt 1 view .LVU220
 564              		.loc 1 657 24 is_stmt 0 view .LVU221
 565 023c 0D94     		str	r4, [sp, #52]
 658:Core/Src/main.c ****   HAL_GPIO_Init(Audio_INT_GPIO_Port, &GPIO_InitStruct);
 566              		.loc 1 658 3 is_stmt 1 view .LVU222
 567 023e 0BA9     		add	r1, sp, #44
 568 0240 5846     		mov	r0, fp
 569 0242 FFF7FEFF 		bl	HAL_GPIO_Init
 570              	.LVL17:
 659:Core/Src/main.c **** 
 660:Core/Src/main.c ****   /*Configure GPIO pins : FMC_D2_Pin FMC_D3_Pin FMC_D1_Pin FMC_D15_Pin
 661:Core/Src/main.c ****                            FMC_D0_Pin FMC_D14_Pin FMC_D13_Pin */
 662:Core/Src/main.c ****   GPIO_InitStruct.Pin = FMC_D2_Pin|FMC_D3_Pin|FMC_D1_Pin|FMC_D15_Pin
 571              		.loc 1 662 3 view .LVU223
 572              		.loc 1 662 23 is_stmt 0 view .LVU224
 573 0246 4CF20373 		movw	r3, #50947
 574 024a 0B93     		str	r3, [sp, #44]
 663:Core/Src/main.c ****                           |FMC_D0_Pin|FMC_D14_Pin|FMC_D13_Pin;
 664:Core/Src/main.c ****   GPIO_InitStruct.Mode = GPIO_MODE_AF_PP;
 575              		.loc 1 664 3 is_stmt 1 view .LVU225
 576              		.loc 1 664 24 is_stmt 0 view .LVU226
 577 024c 0C95     		str	r5, [sp, #48]
 665:Core/Src/main.c ****   GPIO_InitStruct.Pull = GPIO_NOPULL;
 578              		.loc 1 665 3 is_stmt 1 view .LVU227
 579              		.loc 1 665 24 is_stmt 0 view .LVU228
 580 024e 0D94     		str	r4, [sp, #52]
 666:Core/Src/main.c ****   GPIO_InitStruct.Speed = GPIO_SPEED_FREQ_VERY_HIGH;
 581              		.loc 1 666 3 is_stmt 1 view .LVU229
 582              		.loc 1 666 25 is_stmt 0 view .LVU230
 583 0250 0E96     		str	r6, [sp, #56]
 667:Core/Src/main.c ****   GPIO_InitStruct.Alternate = GPIO_AF12_FMC;
 584              		.loc 1 667 3 is_stmt 1 view .LVU231
 585              		.loc 1 667 29 is_stmt 0 view .LVU232
 586 0252 0C23     		movs	r3, #12
 587 0254 0F93     		str	r3, [sp, #60]
 668:Core/Src/main.c ****   HAL_GPIO_Init(GPIOD, &GPIO_InitStruct);
 588              		.loc 1 668 3 is_stmt 1 view .LVU233
 589 0256 0BA9     		add	r1, sp, #44
ARM GAS  /var/folders/fz/x0kldt2j7vs_j4slv3pyc44m0000gp/T//ccJSrhYz.s 			page 23


 590 0258 5846     		mov	r0, fp
 591 025a FFF7FEFF 		bl	HAL_GPIO_Init
 592              	.LVL18:
 669:Core/Src/main.c **** 
 670:Core/Src/main.c ****   /*Configure GPIO pins : OTG_FS_P_Pin OTG_FS_N_Pin OTG_FS_ID_Pin */
 671:Core/Src/main.c ****   GPIO_InitStruct.Pin = OTG_FS_P_Pin|OTG_FS_N_Pin|OTG_FS_ID_Pin;
 593              		.loc 1 671 3 view .LVU234
 594              		.loc 1 671 23 is_stmt 0 view .LVU235
 595 025e 4FF4E053 		mov	r3, #7168
 596 0262 0B93     		str	r3, [sp, #44]
 672:Core/Src/main.c ****   GPIO_InitStruct.Mode = GPIO_MODE_AF_PP;
 597              		.loc 1 672 3 is_stmt 1 view .LVU236
 598              		.loc 1 672 24 is_stmt 0 view .LVU237
 599 0264 0C95     		str	r5, [sp, #48]
 673:Core/Src/main.c ****   GPIO_InitStruct.Pull = GPIO_NOPULL;
 600              		.loc 1 673 3 is_stmt 1 view .LVU238
 601              		.loc 1 673 24 is_stmt 0 view .LVU239
 602 0266 0D94     		str	r4, [sp, #52]
 674:Core/Src/main.c ****   GPIO_InitStruct.Speed = GPIO_SPEED_FREQ_VERY_HIGH;
 603              		.loc 1 674 3 is_stmt 1 view .LVU240
 604              		.loc 1 674 25 is_stmt 0 view .LVU241
 605 0268 0E96     		str	r6, [sp, #56]
 675:Core/Src/main.c ****   GPIO_InitStruct.Alternate = GPIO_AF10_OTG_FS;
 606              		.loc 1 675 3 is_stmt 1 view .LVU242
 607              		.loc 1 675 29 is_stmt 0 view .LVU243
 608 026a CDF83C90 		str	r9, [sp, #60]
 676:Core/Src/main.c ****   HAL_GPIO_Init(GPIOA, &GPIO_InitStruct);
 609              		.loc 1 676 3 is_stmt 1 view .LVU244
 610 026e 0BA9     		add	r1, sp, #44
 611 0270 1848     		ldr	r0, .L6+16
 612 0272 FFF7FEFF 		bl	HAL_GPIO_Init
 613              	.LVL19:
 677:Core/Src/main.c **** 
 678:Core/Src/main.c ****   /*Configure GPIO pins : SAI2_MCLKA_Pin SAI2_SCKA_Pin SAI2_FSA_Pin SAI2_SDA_Pin */
 679:Core/Src/main.c ****   GPIO_InitStruct.Pin = SAI2_MCLKA_Pin|SAI2_SCKA_Pin|SAI2_FSA_Pin|SAI2_SDA_Pin;
 614              		.loc 1 679 3 view .LVU245
 615              		.loc 1 679 23 is_stmt 0 view .LVU246
 616 0276 F023     		movs	r3, #240
 617 0278 0B93     		str	r3, [sp, #44]
 680:Core/Src/main.c ****   GPIO_InitStruct.Mode = GPIO_MODE_AF_PP;
 618              		.loc 1 680 3 is_stmt 1 view .LVU247
 619              		.loc 1 680 24 is_stmt 0 view .LVU248
 620 027a 0C95     		str	r5, [sp, #48]
 681:Core/Src/main.c ****   GPIO_InitStruct.Pull = GPIO_NOPULL;
 621              		.loc 1 681 3 is_stmt 1 view .LVU249
 622              		.loc 1 681 24 is_stmt 0 view .LVU250
 623 027c 0D94     		str	r4, [sp, #52]
 682:Core/Src/main.c ****   GPIO_InitStruct.Speed = GPIO_SPEED_FREQ_LOW;
 624              		.loc 1 682 3 is_stmt 1 view .LVU251
 625              		.loc 1 682 25 is_stmt 0 view .LVU252
 626 027e 0E94     		str	r4, [sp, #56]
 683:Core/Src/main.c ****   GPIO_InitStruct.Alternate = GPIO_AF10_SAI2;
 627              		.loc 1 683 3 is_stmt 1 view .LVU253
 628              		.loc 1 683 29 is_stmt 0 view .LVU254
 629 0280 CDF83C90 		str	r9, [sp, #60]
 684:Core/Src/main.c ****   HAL_GPIO_Init(GPIOI, &GPIO_InitStruct);
 630              		.loc 1 684 3 is_stmt 1 view .LVU255
ARM GAS  /var/folders/fz/x0kldt2j7vs_j4slv3pyc44m0000gp/T//ccJSrhYz.s 			page 24


 631 0284 0BA9     		add	r1, sp, #44
 632 0286 4046     		mov	r0, r8
 633 0288 FFF7FEFF 		bl	HAL_GPIO_Init
 634              	.LVL20:
 685:Core/Src/main.c **** 
 686:Core/Src/main.c ****   /*Configure GPIO pins : LCD_DE_Pin LCD_B7_Pin LCD_B6_Pin LCD_B5_Pin
 687:Core/Src/main.c ****                            LCD_G6_Pin LCD_G7_Pin LCD_G5_Pin */
 688:Core/Src/main.c ****   GPIO_InitStruct.Pin = LCD_DE_Pin|LCD_B7_Pin|LCD_B6_Pin|LCD_B5_Pin
 635              		.loc 1 688 3 view .LVU256
 636              		.loc 1 688 23 is_stmt 0 view .LVU257
 637 028c F723     		movs	r3, #247
 638 028e 0B93     		str	r3, [sp, #44]
 689:Core/Src/main.c ****                           |LCD_G6_Pin|LCD_G7_Pin|LCD_G5_Pin;
 690:Core/Src/main.c ****   GPIO_InitStruct.Mode = GPIO_MODE_AF_PP;
 639              		.loc 1 690 3 is_stmt 1 view .LVU258
 640              		.loc 1 690 24 is_stmt 0 view .LVU259
 641 0290 0C95     		str	r5, [sp, #48]
 691:Core/Src/main.c ****   GPIO_InitStruct.Pull = GPIO_NOPULL;
 642              		.loc 1 691 3 is_stmt 1 view .LVU260
 643              		.loc 1 691 24 is_stmt 0 view .LVU261
 644 0292 0D94     		str	r4, [sp, #52]
 692:Core/Src/main.c ****   GPIO_InitStruct.Speed = GPIO_SPEED_FREQ_LOW;
 645              		.loc 1 692 3 is_stmt 1 view .LVU262
 646              		.loc 1 692 25 is_stmt 0 view .LVU263
 647 0294 0E94     		str	r4, [sp, #56]
 693:Core/Src/main.c ****   GPIO_InitStruct.Alternate = GPIO_AF14_LTDC;
 648              		.loc 1 693 3 is_stmt 1 view .LVU264
 649              		.loc 1 693 29 is_stmt 0 view .LVU265
 650 0296 0E23     		movs	r3, #14
 651 0298 0F93     		str	r3, [sp, #60]
 694:Core/Src/main.c ****   HAL_GPIO_Init(GPIOK, &GPIO_InitStruct);
 652              		.loc 1 694 3 is_stmt 1 view .LVU266
 653 029a 0BA9     		add	r1, sp, #44
 654 029c 0A48     		ldr	r0, .L6+4
 655 029e FFF7FEFF 		bl	HAL_GPIO_Init
 656              	.LVL21:
 695:Core/Src/main.c **** 
 696:Core/Src/main.c ****   /*Configure GPIO pin : LCD_B4_Pin */
 697:Core/Src/main.c ****   GPIO_InitStruct.Pin = LCD_B4_Pin;
 657              		.loc 1 697 3 view .LVU267
 658              		.loc 1 697 23 is_stmt 0 view .LVU268
 659 02a2 4FF48053 		mov	r3, #4096
 660 02a6 0B93     		str	r3, [sp, #44]
 698:Core/Src/main.c ****   GPIO_InitStruct.Mode = GPIO_MODE_AF_PP;
 661              		.loc 1 698 3 is_stmt 1 view .LVU269
 662              		.loc 1 698 24 is_stmt 0 view .LVU270
 663 02a8 0C95     		str	r5, [sp, #48]
 699:Core/Src/main.c ****   GPIO_InitStruct.Pull = GPIO_NOPULL;
 664              		.loc 1 699 3 is_stmt 1 view .LVU271
 665              		.loc 1 699 24 is_stmt 0 view .LVU272
 666 02aa 0D94     		str	r4, [sp, #52]
 700:Core/Src/main.c ****   GPIO_InitStruct.Speed = GPIO_SPEED_FREQ_LOW;
 667              		.loc 1 700 3 is_stmt 1 view .LVU273
 668              		.loc 1 700 25 is_stmt 0 view .LVU274
 669 02ac 0E94     		str	r4, [sp, #56]
 701:Core/Src/main.c ****   GPIO_InitStruct.Alternate = GPIO_AF9_LTDC;
 670              		.loc 1 701 3 is_stmt 1 view .LVU275
ARM GAS  /var/folders/fz/x0kldt2j7vs_j4slv3pyc44m0000gp/T//ccJSrhYz.s 			page 25


 671              		.loc 1 701 29 is_stmt 0 view .LVU276
 672 02ae 0923     		movs	r3, #9
 673 02b0 0F93     		str	r3, [sp, #60]
 702:Core/Src/main.c ****   HAL_GPIO_Init(LCD_B4_GPIO_Port, &GPIO_InitStruct);
 674              		.loc 1 702 3 is_stmt 1 view .LVU277
 675 02b2 0BA9     		add	r1, sp, #44
 676 02b4 5046     		mov	r0, r10
 677 02b6 FFF7FEFF 		bl	HAL_GPIO_Init
 678              	.LVL22:
 703:Core/Src/main.c **** 
 704:Core/Src/main.c ****   /*Configure GPIO pin : SAI2_SDB_Pin */
 705:Core/Src/main.c ****   GPIO_InitStruct.Pin = SAI2_SDB_Pin;
 679              		.loc 1 705 3 view .LVU278
 680              		.loc 1 705 23 is_stmt 0 view .LVU279
 681 02ba 4FF48063 		mov	r3, #1024
 682 02be 0B93     		str	r3, [sp, #44]
 683 02c0 14E0     		b	.L7
 684              	.L8:
 685 02c2 00BF     		.align	2
 686              	.L6:
 687 02c4 00380240 		.word	1073887232
 688 02c8 00280240 		.word	1073883136
 689 02cc 001C0240 		.word	1073880064
 690 02d0 00100240 		.word	1073876992
 691 02d4 00000240 		.word	1073872896
 692 02d8 00040240 		.word	1073873920
 693 02dc 00240240 		.word	1073882112
 694 02e0 000C0240 		.word	1073875968
 695 02e4 00200240 		.word	1073881088
 696 02e8 00180240 		.word	1073879040
 697              	.L7:
 706:Core/Src/main.c ****   GPIO_InitStruct.Mode = GPIO_MODE_AF_PP;
 698              		.loc 1 706 3 is_stmt 1 view .LVU280
 699              		.loc 1 706 24 is_stmt 0 view .LVU281
 700 02ec 0C95     		str	r5, [sp, #48]
 707:Core/Src/main.c ****   GPIO_InitStruct.Pull = GPIO_NOPULL;
 701              		.loc 1 707 3 is_stmt 1 view .LVU282
 702              		.loc 1 707 24 is_stmt 0 view .LVU283
 703 02ee 0D94     		str	r4, [sp, #52]
 708:Core/Src/main.c ****   GPIO_InitStruct.Speed = GPIO_SPEED_FREQ_LOW;
 704              		.loc 1 708 3 is_stmt 1 view .LVU284
 705              		.loc 1 708 25 is_stmt 0 view .LVU285
 706 02f0 0E94     		str	r4, [sp, #56]
 709:Core/Src/main.c ****   GPIO_InitStruct.Alternate = GPIO_AF10_SAI2;
 707              		.loc 1 709 3 is_stmt 1 view .LVU286
 708              		.loc 1 709 29 is_stmt 0 view .LVU287
 709 02f2 CDF83C90 		str	r9, [sp, #60]
 710:Core/Src/main.c ****   HAL_GPIO_Init(SAI2_SDB_GPIO_Port, &GPIO_InitStruct);
 710              		.loc 1 710 3 is_stmt 1 view .LVU288
 711 02f6 0BA9     		add	r1, sp, #44
 712 02f8 5046     		mov	r0, r10
 713 02fa FFF7FEFF 		bl	HAL_GPIO_Init
 714              	.LVL23:
 711:Core/Src/main.c **** 
 712:Core/Src/main.c ****   /*Configure GPIO pin : OTG_FS_PowerSwitchOn_Pin */
 713:Core/Src/main.c ****   GPIO_InitStruct.Pin = OTG_FS_PowerSwitchOn_Pin;
 715              		.loc 1 713 3 view .LVU289
ARM GAS  /var/folders/fz/x0kldt2j7vs_j4slv3pyc44m0000gp/T//ccJSrhYz.s 			page 26


 716              		.loc 1 713 23 is_stmt 0 view .LVU290
 717 02fe 2023     		movs	r3, #32
 718 0300 0B93     		str	r3, [sp, #44]
 714:Core/Src/main.c ****   GPIO_InitStruct.Mode = GPIO_MODE_OUTPUT_PP;
 719              		.loc 1 714 3 is_stmt 1 view .LVU291
 720              		.loc 1 714 24 is_stmt 0 view .LVU292
 721 0302 0C97     		str	r7, [sp, #48]
 715:Core/Src/main.c ****   GPIO_InitStruct.Pull = GPIO_NOPULL;
 722              		.loc 1 715 3 is_stmt 1 view .LVU293
 723              		.loc 1 715 24 is_stmt 0 view .LVU294
 724 0304 0D94     		str	r4, [sp, #52]
 716:Core/Src/main.c ****   GPIO_InitStruct.Speed = GPIO_SPEED_FREQ_LOW;
 725              		.loc 1 716 3 is_stmt 1 view .LVU295
 726              		.loc 1 716 25 is_stmt 0 view .LVU296
 727 0306 0E94     		str	r4, [sp, #56]
 717:Core/Src/main.c ****   HAL_GPIO_Init(OTG_FS_PowerSwitchOn_GPIO_Port, &GPIO_InitStruct);
 728              		.loc 1 717 3 is_stmt 1 view .LVU297
 729 0308 0BA9     		add	r1, sp, #44
 730 030a 5846     		mov	r0, fp
 731 030c FFF7FEFF 		bl	HAL_GPIO_Init
 732              	.LVL24:
 718:Core/Src/main.c **** 
 719:Core/Src/main.c ****   /*Configure GPIO pins : ARDUINO_D7_Pin ARDUINO_D8_Pin LCD_DISP_Pin */
 720:Core/Src/main.c ****   GPIO_InitStruct.Pin = ARDUINO_D7_Pin|ARDUINO_D8_Pin|LCD_DISP_Pin;
 733              		.loc 1 720 3 view .LVU298
 734              		.loc 1 720 23 is_stmt 0 view .LVU299
 735 0310 41F20C03 		movw	r3, #4108
 736 0314 0B93     		str	r3, [sp, #44]
 721:Core/Src/main.c ****   GPIO_InitStruct.Mode = GPIO_MODE_OUTPUT_PP;
 737              		.loc 1 721 3 is_stmt 1 view .LVU300
 738              		.loc 1 721 24 is_stmt 0 view .LVU301
 739 0316 0C97     		str	r7, [sp, #48]
 722:Core/Src/main.c ****   GPIO_InitStruct.Pull = GPIO_NOPULL;
 740              		.loc 1 722 3 is_stmt 1 view .LVU302
 741              		.loc 1 722 24 is_stmt 0 view .LVU303
 742 0318 0D94     		str	r4, [sp, #52]
 723:Core/Src/main.c ****   GPIO_InitStruct.Speed = GPIO_SPEED_FREQ_LOW;
 743              		.loc 1 723 3 is_stmt 1 view .LVU304
 744              		.loc 1 723 25 is_stmt 0 view .LVU305
 745 031a 0E94     		str	r4, [sp, #56]
 724:Core/Src/main.c ****   HAL_GPIO_Init(GPIOI, &GPIO_InitStruct);
 746              		.loc 1 724 3 is_stmt 1 view .LVU306
 747 031c 0BA9     		add	r1, sp, #44
 748 031e 4046     		mov	r0, r8
 749 0320 FFF7FEFF 		bl	HAL_GPIO_Init
 750              	.LVL25:
 725:Core/Src/main.c **** 
 726:Core/Src/main.c ****   /*Configure GPIO pin : uSD_Detect_Pin */
 727:Core/Src/main.c ****   GPIO_InitStruct.Pin = uSD_Detect_Pin;
 751              		.loc 1 727 3 view .LVU307
 752              		.loc 1 727 23 is_stmt 0 view .LVU308
 753 0324 4FF40053 		mov	r3, #8192
 754 0328 0B93     		str	r3, [sp, #44]
 728:Core/Src/main.c ****   GPIO_InitStruct.Mode = GPIO_MODE_INPUT;
 755              		.loc 1 728 3 is_stmt 1 view .LVU309
 756              		.loc 1 728 24 is_stmt 0 view .LVU310
 757 032a 0C94     		str	r4, [sp, #48]
ARM GAS  /var/folders/fz/x0kldt2j7vs_j4slv3pyc44m0000gp/T//ccJSrhYz.s 			page 27


 729:Core/Src/main.c ****   GPIO_InitStruct.Pull = GPIO_NOPULL;
 758              		.loc 1 729 3 is_stmt 1 view .LVU311
 759              		.loc 1 729 24 is_stmt 0 view .LVU312
 760 032c 0D94     		str	r4, [sp, #52]
 730:Core/Src/main.c ****   HAL_GPIO_Init(uSD_Detect_GPIO_Port, &GPIO_InitStruct);
 761              		.loc 1 730 3 is_stmt 1 view .LVU313
 762 032e DFF82C92 		ldr	r9, .L9+20
 763 0332 0BA9     		add	r1, sp, #44
 764 0334 4846     		mov	r0, r9
 765 0336 FFF7FEFF 		bl	HAL_GPIO_Init
 766              	.LVL26:
 731:Core/Src/main.c **** 
 732:Core/Src/main.c ****   /*Configure GPIO pins : FMC_A0_Pin FMC_A1_Pin FMC_A2_Pin FMC_A3_Pin
 733:Core/Src/main.c ****                            FMC_A4_Pin FMC_A5_Pin FMC_A6_Pin FMC_A9_Pin
 734:Core/Src/main.c ****                            FMC_A7_Pin FMC_A8_Pin FMC_SDNRAS_Pin */
 735:Core/Src/main.c ****   GPIO_InitStruct.Pin = FMC_A0_Pin|FMC_A1_Pin|FMC_A2_Pin|FMC_A3_Pin
 767              		.loc 1 735 3 view .LVU314
 768              		.loc 1 735 23 is_stmt 0 view .LVU315
 769 033a 4FF63F03 		movw	r3, #63551
 770 033e 0B93     		str	r3, [sp, #44]
 736:Core/Src/main.c ****                           |FMC_A4_Pin|FMC_A5_Pin|FMC_A6_Pin|FMC_A9_Pin
 737:Core/Src/main.c ****                           |FMC_A7_Pin|FMC_A8_Pin|FMC_SDNRAS_Pin;
 738:Core/Src/main.c ****   GPIO_InitStruct.Mode = GPIO_MODE_AF_PP;
 771              		.loc 1 738 3 is_stmt 1 view .LVU316
 772              		.loc 1 738 24 is_stmt 0 view .LVU317
 773 0340 0C95     		str	r5, [sp, #48]
 739:Core/Src/main.c ****   GPIO_InitStruct.Pull = GPIO_NOPULL;
 774              		.loc 1 739 3 is_stmt 1 view .LVU318
 775              		.loc 1 739 24 is_stmt 0 view .LVU319
 776 0342 0D94     		str	r4, [sp, #52]
 740:Core/Src/main.c ****   GPIO_InitStruct.Speed = GPIO_SPEED_FREQ_VERY_HIGH;
 777              		.loc 1 740 3 is_stmt 1 view .LVU320
 778              		.loc 1 740 25 is_stmt 0 view .LVU321
 779 0344 0E96     		str	r6, [sp, #56]
 741:Core/Src/main.c ****   GPIO_InitStruct.Alternate = GPIO_AF12_FMC;
 780              		.loc 1 741 3 is_stmt 1 view .LVU322
 781              		.loc 1 741 29 is_stmt 0 view .LVU323
 782 0346 0C23     		movs	r3, #12
 783 0348 0F93     		str	r3, [sp, #60]
 742:Core/Src/main.c ****   HAL_GPIO_Init(GPIOF, &GPIO_InitStruct);
 784              		.loc 1 742 3 is_stmt 1 view .LVU324
 785 034a 0BA9     		add	r1, sp, #44
 786 034c 7E48     		ldr	r0, .L9
 787 034e FFF7FEFF 		bl	HAL_GPIO_Init
 788              	.LVL27:
 743:Core/Src/main.c **** 
 744:Core/Src/main.c ****   /*Configure GPIO pins : LCD_HSYNC_Pin LCD_VSYNC_Pin LCD_R0_Pin LCD_CLK_Pin */
 745:Core/Src/main.c ****   GPIO_InitStruct.Pin = LCD_HSYNC_Pin|LCD_VSYNC_Pin|LCD_R0_Pin|LCD_CLK_Pin;
 789              		.loc 1 745 3 view .LVU325
 790              		.loc 1 745 23 is_stmt 0 view .LVU326
 791 0352 4FF44643 		mov	r3, #50688
 792 0356 0B93     		str	r3, [sp, #44]
 746:Core/Src/main.c ****   GPIO_InitStruct.Mode = GPIO_MODE_AF_PP;
 793              		.loc 1 746 3 is_stmt 1 view .LVU327
 794              		.loc 1 746 24 is_stmt 0 view .LVU328
 795 0358 0C95     		str	r5, [sp, #48]
 747:Core/Src/main.c ****   GPIO_InitStruct.Pull = GPIO_NOPULL;
ARM GAS  /var/folders/fz/x0kldt2j7vs_j4slv3pyc44m0000gp/T//ccJSrhYz.s 			page 28


 796              		.loc 1 747 3 is_stmt 1 view .LVU329
 797              		.loc 1 747 24 is_stmt 0 view .LVU330
 798 035a 0D94     		str	r4, [sp, #52]
 748:Core/Src/main.c ****   GPIO_InitStruct.Speed = GPIO_SPEED_FREQ_LOW;
 799              		.loc 1 748 3 is_stmt 1 view .LVU331
 800              		.loc 1 748 25 is_stmt 0 view .LVU332
 801 035c 0E94     		str	r4, [sp, #56]
 749:Core/Src/main.c ****   GPIO_InitStruct.Alternate = GPIO_AF14_LTDC;
 802              		.loc 1 749 3 is_stmt 1 view .LVU333
 803              		.loc 1 749 29 is_stmt 0 view .LVU334
 804 035e 0E23     		movs	r3, #14
 805 0360 0F93     		str	r3, [sp, #60]
 750:Core/Src/main.c ****   HAL_GPIO_Init(GPIOI, &GPIO_InitStruct);
 806              		.loc 1 750 3 is_stmt 1 view .LVU335
 807 0362 0BA9     		add	r1, sp, #44
 808 0364 4046     		mov	r0, r8
 809 0366 FFF7FEFF 		bl	HAL_GPIO_Init
 810              	.LVL28:
 751:Core/Src/main.c **** 
 752:Core/Src/main.c ****   /*Configure GPIO pin : LCD_BL_CTRL_Pin */
 753:Core/Src/main.c ****   GPIO_InitStruct.Pin = LCD_BL_CTRL_Pin;
 811              		.loc 1 753 3 view .LVU336
 812              		.loc 1 753 23 is_stmt 0 view .LVU337
 813 036a 0823     		movs	r3, #8
 814 036c 0B93     		str	r3, [sp, #44]
 754:Core/Src/main.c ****   GPIO_InitStruct.Mode = GPIO_MODE_OUTPUT_PP;
 815              		.loc 1 754 3 is_stmt 1 view .LVU338
 816              		.loc 1 754 24 is_stmt 0 view .LVU339
 817 036e 0C97     		str	r7, [sp, #48]
 755:Core/Src/main.c ****   GPIO_InitStruct.Pull = GPIO_NOPULL;
 818              		.loc 1 755 3 is_stmt 1 view .LVU340
 819              		.loc 1 755 24 is_stmt 0 view .LVU341
 820 0370 0D94     		str	r4, [sp, #52]
 756:Core/Src/main.c ****   GPIO_InitStruct.Speed = GPIO_SPEED_FREQ_LOW;
 821              		.loc 1 756 3 is_stmt 1 view .LVU342
 822              		.loc 1 756 25 is_stmt 0 view .LVU343
 823 0372 0E94     		str	r4, [sp, #56]
 757:Core/Src/main.c ****   HAL_GPIO_Init(LCD_BL_CTRL_GPIO_Port, &GPIO_InitStruct);
 824              		.loc 1 757 3 is_stmt 1 view .LVU344
 825 0374 0BA9     		add	r1, sp, #44
 826 0376 7548     		ldr	r0, .L9+4
 827 0378 FFF7FEFF 		bl	HAL_GPIO_Init
 828              	.LVL29:
 758:Core/Src/main.c **** 
 759:Core/Src/main.c ****   /*Configure GPIO pin : OTG_FS_OverCurrent_Pin */
 760:Core/Src/main.c ****   GPIO_InitStruct.Pin = OTG_FS_OverCurrent_Pin;
 829              		.loc 1 760 3 view .LVU345
 830              		.loc 1 760 23 is_stmt 0 view .LVU346
 831 037c 1023     		movs	r3, #16
 832 037e 0B93     		str	r3, [sp, #44]
 761:Core/Src/main.c ****   GPIO_InitStruct.Mode = GPIO_MODE_INPUT;
 833              		.loc 1 761 3 is_stmt 1 view .LVU347
 834              		.loc 1 761 24 is_stmt 0 view .LVU348
 835 0380 0C94     		str	r4, [sp, #48]
 762:Core/Src/main.c ****   GPIO_InitStruct.Pull = GPIO_NOPULL;
 836              		.loc 1 762 3 is_stmt 1 view .LVU349
 837              		.loc 1 762 24 is_stmt 0 view .LVU350
ARM GAS  /var/folders/fz/x0kldt2j7vs_j4slv3pyc44m0000gp/T//ccJSrhYz.s 			page 29


 838 0382 0D94     		str	r4, [sp, #52]
 763:Core/Src/main.c ****   HAL_GPIO_Init(OTG_FS_OverCurrent_GPIO_Port, &GPIO_InitStruct);
 839              		.loc 1 763 3 is_stmt 1 view .LVU351
 840 0384 0BA9     		add	r1, sp, #44
 841 0386 5846     		mov	r0, fp
 842 0388 FFF7FEFF 		bl	HAL_GPIO_Init
 843              	.LVL30:
 764:Core/Src/main.c **** 
 765:Core/Src/main.c ****   /*Configure GPIO pins : TP3_Pin NC2_Pin */
 766:Core/Src/main.c ****   GPIO_InitStruct.Pin = TP3_Pin|NC2_Pin;
 844              		.loc 1 766 3 view .LVU352
 845              		.loc 1 766 23 is_stmt 0 view .LVU353
 846 038c 48F20403 		movw	r3, #32772
 847 0390 0B93     		str	r3, [sp, #44]
 767:Core/Src/main.c ****   GPIO_InitStruct.Mode = GPIO_MODE_INPUT;
 848              		.loc 1 767 3 is_stmt 1 view .LVU354
 849              		.loc 1 767 24 is_stmt 0 view .LVU355
 850 0392 0C94     		str	r4, [sp, #48]
 768:Core/Src/main.c ****   GPIO_InitStruct.Pull = GPIO_NOPULL;
 851              		.loc 1 768 3 is_stmt 1 view .LVU356
 852              		.loc 1 768 24 is_stmt 0 view .LVU357
 853 0394 0D94     		str	r4, [sp, #52]
 769:Core/Src/main.c ****   HAL_GPIO_Init(GPIOH, &GPIO_InitStruct);
 854              		.loc 1 769 3 is_stmt 1 view .LVU358
 855 0396 0BA9     		add	r1, sp, #44
 856 0398 6D48     		ldr	r0, .L9+8
 857 039a FFF7FEFF 		bl	HAL_GPIO_Init
 858              	.LVL31:
 770:Core/Src/main.c **** 
 771:Core/Src/main.c ****   /*Configure GPIO pin : ARDUINO_SCK_D13_Pin */
 772:Core/Src/main.c ****   GPIO_InitStruct.Pin = ARDUINO_SCK_D13_Pin;
 859              		.loc 1 772 3 view .LVU359
 860              		.loc 1 772 23 is_stmt 0 view .LVU360
 861 039e 0B95     		str	r5, [sp, #44]
 773:Core/Src/main.c ****   GPIO_InitStruct.Mode = GPIO_MODE_AF_PP;
 862              		.loc 1 773 3 is_stmt 1 view .LVU361
 863              		.loc 1 773 24 is_stmt 0 view .LVU362
 864 03a0 0C95     		str	r5, [sp, #48]
 774:Core/Src/main.c ****   GPIO_InitStruct.Pull = GPIO_NOPULL;
 865              		.loc 1 774 3 is_stmt 1 view .LVU363
 866              		.loc 1 774 24 is_stmt 0 view .LVU364
 867 03a2 0D94     		str	r4, [sp, #52]
 775:Core/Src/main.c ****   GPIO_InitStruct.Speed = GPIO_SPEED_FREQ_LOW;
 868              		.loc 1 775 3 is_stmt 1 view .LVU365
 869              		.loc 1 775 25 is_stmt 0 view .LVU366
 870 03a4 0E94     		str	r4, [sp, #56]
 776:Core/Src/main.c ****   GPIO_InitStruct.Alternate = GPIO_AF5_SPI2;
 871              		.loc 1 776 3 is_stmt 1 view .LVU367
 872              		.loc 1 776 29 is_stmt 0 view .LVU368
 873 03a6 0523     		movs	r3, #5
 874 03a8 0F93     		str	r3, [sp, #60]
 777:Core/Src/main.c ****   HAL_GPIO_Init(ARDUINO_SCK_D13_GPIO_Port, &GPIO_InitStruct);
 875              		.loc 1 777 3 is_stmt 1 view .LVU369
 876 03aa 0BA9     		add	r1, sp, #44
 877 03ac 4046     		mov	r0, r8
 878 03ae FFF7FEFF 		bl	HAL_GPIO_Init
 879              	.LVL32:
ARM GAS  /var/folders/fz/x0kldt2j7vs_j4slv3pyc44m0000gp/T//ccJSrhYz.s 			page 30


 778:Core/Src/main.c **** 
 779:Core/Src/main.c ****   /*Configure GPIO pin : DCMI_PWR_EN_Pin */
 780:Core/Src/main.c ****   GPIO_InitStruct.Pin = DCMI_PWR_EN_Pin;
 880              		.loc 1 780 3 view .LVU370
 881              		.loc 1 780 23 is_stmt 0 view .LVU371
 882 03b2 4FF40053 		mov	r3, #8192
 883 03b6 0B93     		str	r3, [sp, #44]
 781:Core/Src/main.c ****   GPIO_InitStruct.Mode = GPIO_MODE_OUTPUT_PP;
 884              		.loc 1 781 3 is_stmt 1 view .LVU372
 885              		.loc 1 781 24 is_stmt 0 view .LVU373
 886 03b8 0C97     		str	r7, [sp, #48]
 782:Core/Src/main.c ****   GPIO_InitStruct.Pull = GPIO_NOPULL;
 887              		.loc 1 782 3 is_stmt 1 view .LVU374
 888              		.loc 1 782 24 is_stmt 0 view .LVU375
 889 03ba 0D94     		str	r4, [sp, #52]
 783:Core/Src/main.c ****   GPIO_InitStruct.Speed = GPIO_SPEED_FREQ_LOW;
 890              		.loc 1 783 3 is_stmt 1 view .LVU376
 891              		.loc 1 783 25 is_stmt 0 view .LVU377
 892 03bc 0E94     		str	r4, [sp, #56]
 784:Core/Src/main.c ****   HAL_GPIO_Init(DCMI_PWR_EN_GPIO_Port, &GPIO_InitStruct);
 893              		.loc 1 784 3 is_stmt 1 view .LVU378
 894 03be 0BA9     		add	r1, sp, #44
 895 03c0 6348     		ldr	r0, .L9+8
 896 03c2 FFF7FEFF 		bl	HAL_GPIO_Init
 897              	.LVL33:
 785:Core/Src/main.c **** 
 786:Core/Src/main.c ****   /*Configure GPIO pin : ARDUINO_PWM_CS_D5_Pin */
 787:Core/Src/main.c ****   GPIO_InitStruct.Pin = ARDUINO_PWM_CS_D5_Pin;
 898              		.loc 1 787 3 view .LVU379
 899              		.loc 1 787 23 is_stmt 0 view .LVU380
 900 03c6 0B97     		str	r7, [sp, #44]
 788:Core/Src/main.c ****   GPIO_InitStruct.Mode = GPIO_MODE_AF_PP;
 901              		.loc 1 788 3 is_stmt 1 view .LVU381
 902              		.loc 1 788 24 is_stmt 0 view .LVU382
 903 03c8 0C95     		str	r5, [sp, #48]
 789:Core/Src/main.c ****   GPIO_InitStruct.Pull = GPIO_NOPULL;
 904              		.loc 1 789 3 is_stmt 1 view .LVU383
 905              		.loc 1 789 24 is_stmt 0 view .LVU384
 906 03ca 0D94     		str	r4, [sp, #52]
 790:Core/Src/main.c ****   GPIO_InitStruct.Speed = GPIO_SPEED_FREQ_LOW;
 907              		.loc 1 790 3 is_stmt 1 view .LVU385
 908              		.loc 1 790 25 is_stmt 0 view .LVU386
 909 03cc 0E94     		str	r4, [sp, #56]
 791:Core/Src/main.c ****   GPIO_InitStruct.Alternate = GPIO_AF2_TIM5;
 910              		.loc 1 791 3 is_stmt 1 view .LVU387
 911              		.loc 1 791 29 is_stmt 0 view .LVU388
 912 03ce 0F95     		str	r5, [sp, #60]
 792:Core/Src/main.c ****   HAL_GPIO_Init(ARDUINO_PWM_CS_D5_GPIO_Port, &GPIO_InitStruct);
 913              		.loc 1 792 3 is_stmt 1 view .LVU389
 914 03d0 0BA9     		add	r1, sp, #44
 915 03d2 4046     		mov	r0, r8
 916 03d4 FFF7FEFF 		bl	HAL_GPIO_Init
 917              	.LVL34:
 793:Core/Src/main.c **** 
 794:Core/Src/main.c ****   /*Configure GPIO pin : VCP_TX_Pin */
 795:Core/Src/main.c ****   GPIO_InitStruct.Pin = VCP_TX_Pin;
 918              		.loc 1 795 3 view .LVU390
ARM GAS  /var/folders/fz/x0kldt2j7vs_j4slv3pyc44m0000gp/T//ccJSrhYz.s 			page 31


 919              		.loc 1 795 23 is_stmt 0 view .LVU391
 920 03d8 4FF40073 		mov	r3, #512
 921 03dc 0B93     		str	r3, [sp, #44]
 796:Core/Src/main.c ****   GPIO_InitStruct.Mode = GPIO_MODE_AF_PP;
 922              		.loc 1 796 3 is_stmt 1 view .LVU392
 923              		.loc 1 796 24 is_stmt 0 view .LVU393
 924 03de 0C95     		str	r5, [sp, #48]
 797:Core/Src/main.c ****   GPIO_InitStruct.Pull = GPIO_NOPULL;
 925              		.loc 1 797 3 is_stmt 1 view .LVU394
 926              		.loc 1 797 24 is_stmt 0 view .LVU395
 927 03e0 0D94     		str	r4, [sp, #52]
 798:Core/Src/main.c ****   GPIO_InitStruct.Speed = GPIO_SPEED_FREQ_LOW;
 928              		.loc 1 798 3 is_stmt 1 view .LVU396
 929              		.loc 1 798 25 is_stmt 0 view .LVU397
 930 03e2 0E94     		str	r4, [sp, #56]
 799:Core/Src/main.c ****   GPIO_InitStruct.Alternate = GPIO_AF7_USART1;
 931              		.loc 1 799 3 is_stmt 1 view .LVU398
 932              		.loc 1 799 29 is_stmt 0 view .LVU399
 933 03e4 0723     		movs	r3, #7
 934 03e6 0F93     		str	r3, [sp, #60]
 800:Core/Src/main.c ****   HAL_GPIO_Init(VCP_TX_GPIO_Port, &GPIO_InitStruct);
 935              		.loc 1 800 3 is_stmt 1 view .LVU400
 936 03e8 0BA9     		add	r1, sp, #44
 937 03ea 5A48     		ldr	r0, .L9+12
 938 03ec FFF7FEFF 		bl	HAL_GPIO_Init
 939              	.LVL35:
 801:Core/Src/main.c **** 
 802:Core/Src/main.c ****   /*Configure GPIO pin : ARDUINO_PWM_D10_Pin */
 803:Core/Src/main.c ****   GPIO_InitStruct.Pin = ARDUINO_PWM_D10_Pin;
 940              		.loc 1 803 3 view .LVU401
 941              		.loc 1 803 23 is_stmt 0 view .LVU402
 942 03f0 4FF48073 		mov	r3, #256
 943 03f4 0B93     		str	r3, [sp, #44]
 804:Core/Src/main.c ****   GPIO_InitStruct.Mode = GPIO_MODE_AF_PP;
 944              		.loc 1 804 3 is_stmt 1 view .LVU403
 945              		.loc 1 804 24 is_stmt 0 view .LVU404
 946 03f6 0C95     		str	r5, [sp, #48]
 805:Core/Src/main.c ****   GPIO_InitStruct.Pull = GPIO_NOPULL;
 947              		.loc 1 805 3 is_stmt 1 view .LVU405
 948              		.loc 1 805 24 is_stmt 0 view .LVU406
 949 03f8 0D94     		str	r4, [sp, #52]
 806:Core/Src/main.c ****   GPIO_InitStruct.Speed = GPIO_SPEED_FREQ_LOW;
 950              		.loc 1 806 3 is_stmt 1 view .LVU407
 951              		.loc 1 806 25 is_stmt 0 view .LVU408
 952 03fa 0E94     		str	r4, [sp, #56]
 807:Core/Src/main.c ****   GPIO_InitStruct.Alternate = GPIO_AF1_TIM1;
 953              		.loc 1 807 3 is_stmt 1 view .LVU409
 954              		.loc 1 807 29 is_stmt 0 view .LVU410
 955 03fc 0F97     		str	r7, [sp, #60]
 808:Core/Src/main.c ****   HAL_GPIO_Init(ARDUINO_PWM_D10_GPIO_Port, &GPIO_InitStruct);
 956              		.loc 1 808 3 is_stmt 1 view .LVU411
 957 03fe 0BA9     		add	r1, sp, #44
 958 0400 5448     		ldr	r0, .L9+12
 959 0402 FFF7FEFF 		bl	HAL_GPIO_Init
 960              	.LVL36:
 809:Core/Src/main.c **** 
 810:Core/Src/main.c ****   /*Configure GPIO pin : LCD_INT_Pin */
ARM GAS  /var/folders/fz/x0kldt2j7vs_j4slv3pyc44m0000gp/T//ccJSrhYz.s 			page 32


 811:Core/Src/main.c ****   GPIO_InitStruct.Pin = LCD_INT_Pin;
 961              		.loc 1 811 3 view .LVU412
 962              		.loc 1 811 23 is_stmt 0 view .LVU413
 963 0406 4FF40053 		mov	r3, #8192
 964 040a 0B93     		str	r3, [sp, #44]
 812:Core/Src/main.c ****   GPIO_InitStruct.Mode = GPIO_MODE_EVT_RISING;
 965              		.loc 1 812 3 is_stmt 1 view .LVU414
 966              		.loc 1 812 24 is_stmt 0 view .LVU415
 967 040c 4FF49013 		mov	r3, #1179648
 968 0410 0C93     		str	r3, [sp, #48]
 813:Core/Src/main.c ****   GPIO_InitStruct.Pull = GPIO_NOPULL;
 969              		.loc 1 813 3 is_stmt 1 view .LVU416
 970              		.loc 1 813 24 is_stmt 0 view .LVU417
 971 0412 0D94     		str	r4, [sp, #52]
 814:Core/Src/main.c ****   HAL_GPIO_Init(LCD_INT_GPIO_Port, &GPIO_InitStruct);
 972              		.loc 1 814 3 is_stmt 1 view .LVU418
 973 0414 0BA9     		add	r1, sp, #44
 974 0416 4046     		mov	r0, r8
 975 0418 FFF7FEFF 		bl	HAL_GPIO_Init
 976              	.LVL37:
 815:Core/Src/main.c **** 
 816:Core/Src/main.c ****   /*Configure GPIO pins : ARDUINO_RX_D0_Pin ARDUINO_TX_D1_Pin */
 817:Core/Src/main.c ****   GPIO_InitStruct.Pin = ARDUINO_RX_D0_Pin|ARDUINO_TX_D1_Pin;
 977              		.loc 1 817 3 view .LVU419
 978              		.loc 1 817 23 is_stmt 0 view .LVU420
 979 041c C023     		movs	r3, #192
 980 041e 0B93     		str	r3, [sp, #44]
 818:Core/Src/main.c ****   GPIO_InitStruct.Mode = GPIO_MODE_AF_PP;
 981              		.loc 1 818 3 is_stmt 1 view .LVU421
 982              		.loc 1 818 24 is_stmt 0 view .LVU422
 983 0420 0C95     		str	r5, [sp, #48]
 819:Core/Src/main.c ****   GPIO_InitStruct.Pull = GPIO_NOPULL;
 984              		.loc 1 819 3 is_stmt 1 view .LVU423
 985              		.loc 1 819 24 is_stmt 0 view .LVU424
 986 0422 0D94     		str	r4, [sp, #52]
 820:Core/Src/main.c ****   GPIO_InitStruct.Speed = GPIO_SPEED_FREQ_VERY_HIGH;
 987              		.loc 1 820 3 is_stmt 1 view .LVU425
 988              		.loc 1 820 25 is_stmt 0 view .LVU426
 989 0424 0E96     		str	r6, [sp, #56]
 821:Core/Src/main.c ****   GPIO_InitStruct.Alternate = GPIO_AF8_USART6;
 990              		.loc 1 821 3 is_stmt 1 view .LVU427
 991              		.loc 1 821 29 is_stmt 0 view .LVU428
 992 0426 0823     		movs	r3, #8
 993 0428 0F93     		str	r3, [sp, #60]
 822:Core/Src/main.c ****   HAL_GPIO_Init(GPIOC, &GPIO_InitStruct);
 994              		.loc 1 822 3 is_stmt 1 view .LVU429
 995 042a 0BA9     		add	r1, sp, #44
 996 042c 4846     		mov	r0, r9
 997 042e FFF7FEFF 		bl	HAL_GPIO_Init
 998              	.LVL38:
 823:Core/Src/main.c **** 
 824:Core/Src/main.c ****   /*Configure GPIO pins : FMC_SDNME_Pin FMC_SDNE0_Pin */
 825:Core/Src/main.c ****   GPIO_InitStruct.Pin = FMC_SDNME_Pin|FMC_SDNE0_Pin;
 999              		.loc 1 825 3 view .LVU430
 1000              		.loc 1 825 23 is_stmt 0 view .LVU431
 1001 0432 2823     		movs	r3, #40
 1002 0434 0B93     		str	r3, [sp, #44]
ARM GAS  /var/folders/fz/x0kldt2j7vs_j4slv3pyc44m0000gp/T//ccJSrhYz.s 			page 33


 826:Core/Src/main.c ****   GPIO_InitStruct.Mode = GPIO_MODE_AF_PP;
 1003              		.loc 1 826 3 is_stmt 1 view .LVU432
 1004              		.loc 1 826 24 is_stmt 0 view .LVU433
 1005 0436 0C95     		str	r5, [sp, #48]
 827:Core/Src/main.c ****   GPIO_InitStruct.Pull = GPIO_NOPULL;
 1006              		.loc 1 827 3 is_stmt 1 view .LVU434
 1007              		.loc 1 827 24 is_stmt 0 view .LVU435
 1008 0438 0D94     		str	r4, [sp, #52]
 828:Core/Src/main.c ****   GPIO_InitStruct.Speed = GPIO_SPEED_FREQ_VERY_HIGH;
 1009              		.loc 1 828 3 is_stmt 1 view .LVU436
 1010              		.loc 1 828 25 is_stmt 0 view .LVU437
 1011 043a 0E96     		str	r6, [sp, #56]
 829:Core/Src/main.c ****   GPIO_InitStruct.Alternate = GPIO_AF12_FMC;
 1012              		.loc 1 829 3 is_stmt 1 view .LVU438
 1013              		.loc 1 829 29 is_stmt 0 view .LVU439
 1014 043c 0C23     		movs	r3, #12
 1015 043e 0F93     		str	r3, [sp, #60]
 830:Core/Src/main.c ****   HAL_GPIO_Init(GPIOH, &GPIO_InitStruct);
 1016              		.loc 1 830 3 is_stmt 1 view .LVU440
 1017 0440 0BA9     		add	r1, sp, #44
 1018 0442 4348     		ldr	r0, .L9+8
 1019 0444 FFF7FEFF 		bl	HAL_GPIO_Init
 1020              	.LVL39:
 831:Core/Src/main.c **** 
 832:Core/Src/main.c ****   /*Configure GPIO pins : ARDUINO_D4_Pin ARDUINO_D2_Pin EXT_RST_Pin */
 833:Core/Src/main.c ****   GPIO_InitStruct.Pin = ARDUINO_D4_Pin|ARDUINO_D2_Pin|EXT_RST_Pin;
 1021              		.loc 1 833 3 view .LVU441
 1022              		.loc 1 833 23 is_stmt 0 view .LVU442
 1023 0448 C823     		movs	r3, #200
 1024 044a 0B93     		str	r3, [sp, #44]
 834:Core/Src/main.c ****   GPIO_InitStruct.Mode = GPIO_MODE_OUTPUT_PP;
 1025              		.loc 1 834 3 is_stmt 1 view .LVU443
 1026              		.loc 1 834 24 is_stmt 0 view .LVU444
 1027 044c 0C97     		str	r7, [sp, #48]
 835:Core/Src/main.c ****   GPIO_InitStruct.Pull = GPIO_NOPULL;
 1028              		.loc 1 835 3 is_stmt 1 view .LVU445
 1029              		.loc 1 835 24 is_stmt 0 view .LVU446
 1030 044e 0D94     		str	r4, [sp, #52]
 836:Core/Src/main.c ****   GPIO_InitStruct.Speed = GPIO_SPEED_FREQ_LOW;
 1031              		.loc 1 836 3 is_stmt 1 view .LVU447
 1032              		.loc 1 836 25 is_stmt 0 view .LVU448
 1033 0450 0E94     		str	r4, [sp, #56]
 837:Core/Src/main.c ****   HAL_GPIO_Init(GPIOG, &GPIO_InitStruct);
 1034              		.loc 1 837 3 is_stmt 1 view .LVU449
 1035 0452 0BA9     		add	r1, sp, #44
 1036 0454 5046     		mov	r0, r10
 1037 0456 FFF7FEFF 		bl	HAL_GPIO_Init
 1038              	.LVL40:
 838:Core/Src/main.c **** 
 839:Core/Src/main.c ****   /*Configure GPIO pins : ARDUINO_A4_Pin ARDUINO_A5_Pin ARDUINO_A1_Pin ARDUINO_A2_Pin
 840:Core/Src/main.c ****                            ARDUINO_A3_Pin */
 841:Core/Src/main.c ****   GPIO_InitStruct.Pin = ARDUINO_A4_Pin|ARDUINO_A5_Pin|ARDUINO_A1_Pin|ARDUINO_A2_Pin
 1039              		.loc 1 841 3 view .LVU450
 1040              		.loc 1 841 23 is_stmt 0 view .LVU451
 1041 045a 4FF4F863 		mov	r3, #1984
 1042 045e 0B93     		str	r3, [sp, #44]
 842:Core/Src/main.c ****                           |ARDUINO_A3_Pin;
ARM GAS  /var/folders/fz/x0kldt2j7vs_j4slv3pyc44m0000gp/T//ccJSrhYz.s 			page 34


 843:Core/Src/main.c ****   GPIO_InitStruct.Mode = GPIO_MODE_ANALOG;
 1043              		.loc 1 843 3 is_stmt 1 view .LVU452
 1044              		.loc 1 843 24 is_stmt 0 view .LVU453
 1045 0460 0C96     		str	r6, [sp, #48]
 844:Core/Src/main.c ****   GPIO_InitStruct.Pull = GPIO_NOPULL;
 1046              		.loc 1 844 3 is_stmt 1 view .LVU454
 1047              		.loc 1 844 24 is_stmt 0 view .LVU455
 1048 0462 0D94     		str	r4, [sp, #52]
 845:Core/Src/main.c ****   HAL_GPIO_Init(GPIOF, &GPIO_InitStruct);
 1049              		.loc 1 845 3 is_stmt 1 view .LVU456
 1050 0464 0BA9     		add	r1, sp, #44
 1051 0466 3848     		ldr	r0, .L9
 1052 0468 FFF7FEFF 		bl	HAL_GPIO_Init
 1053              	.LVL41:
 846:Core/Src/main.c **** 
 847:Core/Src/main.c ****   /*Configure GPIO pin : FMC_SDCKE0_Pin */
 848:Core/Src/main.c ****   GPIO_InitStruct.Pin = FMC_SDCKE0_Pin;
 1054              		.loc 1 848 3 view .LVU457
 1055              		.loc 1 848 23 is_stmt 0 view .LVU458
 1056 046c 0823     		movs	r3, #8
 1057 046e 0B93     		str	r3, [sp, #44]
 849:Core/Src/main.c ****   GPIO_InitStruct.Mode = GPIO_MODE_AF_PP;
 1058              		.loc 1 849 3 is_stmt 1 view .LVU459
 1059              		.loc 1 849 24 is_stmt 0 view .LVU460
 1060 0470 0C95     		str	r5, [sp, #48]
 850:Core/Src/main.c ****   GPIO_InitStruct.Pull = GPIO_NOPULL;
 1061              		.loc 1 850 3 is_stmt 1 view .LVU461
 1062              		.loc 1 850 24 is_stmt 0 view .LVU462
 1063 0472 0D94     		str	r4, [sp, #52]
 851:Core/Src/main.c ****   GPIO_InitStruct.Speed = GPIO_SPEED_FREQ_VERY_HIGH;
 1064              		.loc 1 851 3 is_stmt 1 view .LVU463
 1065              		.loc 1 851 25 is_stmt 0 view .LVU464
 1066 0474 0E96     		str	r6, [sp, #56]
 852:Core/Src/main.c ****   GPIO_InitStruct.Alternate = GPIO_AF12_FMC;
 1067              		.loc 1 852 3 is_stmt 1 view .LVU465
 1068              		.loc 1 852 29 is_stmt 0 view .LVU466
 1069 0476 0C23     		movs	r3, #12
 1070 0478 0F93     		str	r3, [sp, #60]
 853:Core/Src/main.c ****   HAL_GPIO_Init(FMC_SDCKE0_GPIO_Port, &GPIO_InitStruct);
 1071              		.loc 1 853 3 is_stmt 1 view .LVU467
 1072 047a 0BA9     		add	r1, sp, #44
 1073 047c 4846     		mov	r0, r9
 1074 047e FFF7FEFF 		bl	HAL_GPIO_Init
 1075              	.LVL42:
 854:Core/Src/main.c **** 
 855:Core/Src/main.c ****   /*Configure GPIO pins : RMII_MDC_Pin RMII_RXD0_Pin RMII_RXD1_Pin */
 856:Core/Src/main.c ****   GPIO_InitStruct.Pin = RMII_MDC_Pin|RMII_RXD0_Pin|RMII_RXD1_Pin;
 1076              		.loc 1 856 3 view .LVU468
 1077              		.loc 1 856 23 is_stmt 0 view .LVU469
 1078 0482 3223     		movs	r3, #50
 1079 0484 0B93     		str	r3, [sp, #44]
 857:Core/Src/main.c ****   GPIO_InitStruct.Mode = GPIO_MODE_AF_PP;
 1080              		.loc 1 857 3 is_stmt 1 view .LVU470
 1081              		.loc 1 857 24 is_stmt 0 view .LVU471
 1082 0486 0C95     		str	r5, [sp, #48]
 858:Core/Src/main.c ****   GPIO_InitStruct.Pull = GPIO_NOPULL;
 1083              		.loc 1 858 3 is_stmt 1 view .LVU472
ARM GAS  /var/folders/fz/x0kldt2j7vs_j4slv3pyc44m0000gp/T//ccJSrhYz.s 			page 35


 1084              		.loc 1 858 24 is_stmt 0 view .LVU473
 1085 0488 0D94     		str	r4, [sp, #52]
 859:Core/Src/main.c ****   GPIO_InitStruct.Speed = GPIO_SPEED_FREQ_VERY_HIGH;
 1086              		.loc 1 859 3 is_stmt 1 view .LVU474
 1087              		.loc 1 859 25 is_stmt 0 view .LVU475
 1088 048a 0E96     		str	r6, [sp, #56]
 860:Core/Src/main.c ****   GPIO_InitStruct.Alternate = GPIO_AF11_ETH;
 1089              		.loc 1 860 3 is_stmt 1 view .LVU476
 1090              		.loc 1 860 29 is_stmt 0 view .LVU477
 1091 048c 0B23     		movs	r3, #11
 1092 048e 0F93     		str	r3, [sp, #60]
 861:Core/Src/main.c ****   HAL_GPIO_Init(GPIOC, &GPIO_InitStruct);
 1093              		.loc 1 861 3 is_stmt 1 view .LVU478
 1094 0490 0BA9     		add	r1, sp, #44
 1095 0492 4846     		mov	r0, r9
 1096 0494 FFF7FEFF 		bl	HAL_GPIO_Init
 1097              	.LVL43:
 862:Core/Src/main.c **** 
 863:Core/Src/main.c ****   /*Configure GPIO pin : PB2 */
 864:Core/Src/main.c ****   GPIO_InitStruct.Pin = GPIO_PIN_2;
 1098              		.loc 1 864 3 view .LVU479
 1099              		.loc 1 864 23 is_stmt 0 view .LVU480
 1100 0498 0423     		movs	r3, #4
 1101 049a 0B93     		str	r3, [sp, #44]
 865:Core/Src/main.c ****   GPIO_InitStruct.Mode = GPIO_MODE_AF_PP;
 1102              		.loc 1 865 3 is_stmt 1 view .LVU481
 1103              		.loc 1 865 24 is_stmt 0 view .LVU482
 1104 049c 0C95     		str	r5, [sp, #48]
 866:Core/Src/main.c ****   GPIO_InitStruct.Pull = GPIO_NOPULL;
 1105              		.loc 1 866 3 is_stmt 1 view .LVU483
 1106              		.loc 1 866 24 is_stmt 0 view .LVU484
 1107 049e 0D94     		str	r4, [sp, #52]
 867:Core/Src/main.c ****   GPIO_InitStruct.Speed = GPIO_SPEED_FREQ_VERY_HIGH;
 1108              		.loc 1 867 3 is_stmt 1 view .LVU485
 1109              		.loc 1 867 25 is_stmt 0 view .LVU486
 1110 04a0 0E96     		str	r6, [sp, #56]
 868:Core/Src/main.c ****   GPIO_InitStruct.Alternate = GPIO_AF9_QUADSPI;
 1111              		.loc 1 868 3 is_stmt 1 view .LVU487
 1112              		.loc 1 868 29 is_stmt 0 view .LVU488
 1113 04a2 0923     		movs	r3, #9
 1114 04a4 0F93     		str	r3, [sp, #60]
 869:Core/Src/main.c ****   HAL_GPIO_Init(GPIOB, &GPIO_InitStruct);
 1115              		.loc 1 869 3 is_stmt 1 view .LVU489
 1116 04a6 0BA9     		add	r1, sp, #44
 1117 04a8 2B48     		ldr	r0, .L9+16
 1118 04aa FFF7FEFF 		bl	HAL_GPIO_Init
 1119              	.LVL44:
 870:Core/Src/main.c **** 
 871:Core/Src/main.c ****   /*Configure GPIO pins : QSPI_D1_Pin QSPI_D3_Pin QSPI_D0_Pin */
 872:Core/Src/main.c ****   GPIO_InitStruct.Pin = QSPI_D1_Pin|QSPI_D3_Pin|QSPI_D0_Pin;
 1120              		.loc 1 872 3 view .LVU490
 1121              		.loc 1 872 23 is_stmt 0 view .LVU491
 1122 04ae 4FF46053 		mov	r3, #14336
 1123 04b2 0B93     		str	r3, [sp, #44]
 873:Core/Src/main.c ****   GPIO_InitStruct.Mode = GPIO_MODE_AF_PP;
 1124              		.loc 1 873 3 is_stmt 1 view .LVU492
 1125              		.loc 1 873 24 is_stmt 0 view .LVU493
ARM GAS  /var/folders/fz/x0kldt2j7vs_j4slv3pyc44m0000gp/T//ccJSrhYz.s 			page 36


 1126 04b4 0C95     		str	r5, [sp, #48]
 874:Core/Src/main.c ****   GPIO_InitStruct.Pull = GPIO_NOPULL;
 1127              		.loc 1 874 3 is_stmt 1 view .LVU494
 1128              		.loc 1 874 24 is_stmt 0 view .LVU495
 1129 04b6 0D94     		str	r4, [sp, #52]
 875:Core/Src/main.c ****   GPIO_InitStruct.Speed = GPIO_SPEED_FREQ_VERY_HIGH;
 1130              		.loc 1 875 3 is_stmt 1 view .LVU496
 1131              		.loc 1 875 25 is_stmt 0 view .LVU497
 1132 04b8 0E96     		str	r6, [sp, #56]
 876:Core/Src/main.c ****   GPIO_InitStruct.Alternate = GPIO_AF9_QUADSPI;
 1133              		.loc 1 876 3 is_stmt 1 view .LVU498
 1134              		.loc 1 876 29 is_stmt 0 view .LVU499
 1135 04ba 0923     		movs	r3, #9
 1136 04bc 0F93     		str	r3, [sp, #60]
 877:Core/Src/main.c ****   HAL_GPIO_Init(GPIOD, &GPIO_InitStruct);
 1137              		.loc 1 877 3 is_stmt 1 view .LVU500
 1138 04be 0BA9     		add	r1, sp, #44
 1139 04c0 5846     		mov	r0, fp
 1140 04c2 FFF7FEFF 		bl	HAL_GPIO_Init
 1141              	.LVL45:
 878:Core/Src/main.c **** 
 879:Core/Src/main.c ****   /*Configure GPIO pin : RMII_RXER_Pin */
 880:Core/Src/main.c ****   GPIO_InitStruct.Pin = RMII_RXER_Pin;
 1142              		.loc 1 880 3 view .LVU501
 1143              		.loc 1 880 23 is_stmt 0 view .LVU502
 1144 04c6 0423     		movs	r3, #4
 1145 04c8 0B93     		str	r3, [sp, #44]
 881:Core/Src/main.c ****   GPIO_InitStruct.Mode = GPIO_MODE_INPUT;
 1146              		.loc 1 881 3 is_stmt 1 view .LVU503
 1147              		.loc 1 881 24 is_stmt 0 view .LVU504
 1148 04ca 0C94     		str	r4, [sp, #48]
 882:Core/Src/main.c ****   GPIO_InitStruct.Pull = GPIO_NOPULL;
 1149              		.loc 1 882 3 is_stmt 1 view .LVU505
 1150              		.loc 1 882 24 is_stmt 0 view .LVU506
 1151 04cc 0D94     		str	r4, [sp, #52]
 883:Core/Src/main.c ****   HAL_GPIO_Init(RMII_RXER_GPIO_Port, &GPIO_InitStruct);
 1152              		.loc 1 883 3 is_stmt 1 view .LVU507
 1153 04ce 0BA9     		add	r1, sp, #44
 1154 04d0 5046     		mov	r0, r10
 1155 04d2 FFF7FEFF 		bl	HAL_GPIO_Init
 1156              	.LVL46:
 884:Core/Src/main.c **** 
 885:Core/Src/main.c ****   /*Configure GPIO pins : RMII_REF_CLK_Pin RMII_MDIO_Pin RMII_CRS_DV_Pin */
 886:Core/Src/main.c ****   GPIO_InitStruct.Pin = RMII_REF_CLK_Pin|RMII_MDIO_Pin|RMII_CRS_DV_Pin;
 1157              		.loc 1 886 3 view .LVU508
 1158              		.loc 1 886 23 is_stmt 0 view .LVU509
 1159 04d6 8623     		movs	r3, #134
 1160 04d8 0B93     		str	r3, [sp, #44]
 887:Core/Src/main.c ****   GPIO_InitStruct.Mode = GPIO_MODE_AF_PP;
 1161              		.loc 1 887 3 is_stmt 1 view .LVU510
 1162              		.loc 1 887 24 is_stmt 0 view .LVU511
 1163 04da 0C95     		str	r5, [sp, #48]
 888:Core/Src/main.c ****   GPIO_InitStruct.Pull = GPIO_NOPULL;
 1164              		.loc 1 888 3 is_stmt 1 view .LVU512
 1165              		.loc 1 888 24 is_stmt 0 view .LVU513
 1166 04dc 0D94     		str	r4, [sp, #52]
 889:Core/Src/main.c ****   GPIO_InitStruct.Speed = GPIO_SPEED_FREQ_VERY_HIGH;
ARM GAS  /var/folders/fz/x0kldt2j7vs_j4slv3pyc44m0000gp/T//ccJSrhYz.s 			page 37


 1167              		.loc 1 889 3 is_stmt 1 view .LVU514
 1168              		.loc 1 889 25 is_stmt 0 view .LVU515
 1169 04de 0E96     		str	r6, [sp, #56]
 890:Core/Src/main.c ****   GPIO_InitStruct.Alternate = GPIO_AF11_ETH;
 1170              		.loc 1 890 3 is_stmt 1 view .LVU516
 1171              		.loc 1 890 29 is_stmt 0 view .LVU517
 1172 04e0 0B23     		movs	r3, #11
 1173 04e2 0F93     		str	r3, [sp, #60]
 891:Core/Src/main.c ****   HAL_GPIO_Init(GPIOA, &GPIO_InitStruct);
 1174              		.loc 1 891 3 is_stmt 1 view .LVU518
 1175 04e4 0BA9     		add	r1, sp, #44
 1176 04e6 1B48     		ldr	r0, .L9+12
 1177 04e8 FFF7FEFF 		bl	HAL_GPIO_Init
 1178              	.LVL47:
 892:Core/Src/main.c **** 
 893:Core/Src/main.c ****   /*Configure GPIO pin : ARDUINO_A0_Pin */
 894:Core/Src/main.c ****   GPIO_InitStruct.Pin = ARDUINO_A0_Pin;
 1179              		.loc 1 894 3 view .LVU519
 1180              		.loc 1 894 23 is_stmt 0 view .LVU520
 1181 04ec 0B97     		str	r7, [sp, #44]
 895:Core/Src/main.c ****   GPIO_InitStruct.Mode = GPIO_MODE_ANALOG;
 1182              		.loc 1 895 3 is_stmt 1 view .LVU521
 1183              		.loc 1 895 24 is_stmt 0 view .LVU522
 1184 04ee 0C96     		str	r6, [sp, #48]
 896:Core/Src/main.c ****   GPIO_InitStruct.Pull = GPIO_NOPULL;
 1185              		.loc 1 896 3 is_stmt 1 view .LVU523
 1186              		.loc 1 896 24 is_stmt 0 view .LVU524
 1187 04f0 0D94     		str	r4, [sp, #52]
 897:Core/Src/main.c ****   HAL_GPIO_Init(ARDUINO_A0_GPIO_Port, &GPIO_InitStruct);
 1188              		.loc 1 897 3 is_stmt 1 view .LVU525
 1189 04f2 0BA9     		add	r1, sp, #44
 1190 04f4 1748     		ldr	r0, .L9+12
 1191 04f6 FFF7FEFF 		bl	HAL_GPIO_Init
 1192              	.LVL48:
 898:Core/Src/main.c **** 
 899:Core/Src/main.c ****   /*Configure GPIO pins : LCD_SCL_Pin LCD_SDA_Pin */
 900:Core/Src/main.c ****   GPIO_InitStruct.Pin = LCD_SCL_Pin|LCD_SDA_Pin;
 1193              		.loc 1 900 3 view .LVU526
 1194              		.loc 1 900 23 is_stmt 0 view .LVU527
 1195 04fa 4FF4C073 		mov	r3, #384
 1196 04fe 0B93     		str	r3, [sp, #44]
 901:Core/Src/main.c ****   GPIO_InitStruct.Mode = GPIO_MODE_AF_OD;
 1197              		.loc 1 901 3 is_stmt 1 view .LVU528
 1198              		.loc 1 901 24 is_stmt 0 view .LVU529
 1199 0500 1223     		movs	r3, #18
 1200 0502 0C93     		str	r3, [sp, #48]
 902:Core/Src/main.c ****   GPIO_InitStruct.Pull = GPIO_NOPULL;
 1201              		.loc 1 902 3 is_stmt 1 view .LVU530
 1202              		.loc 1 902 24 is_stmt 0 view .LVU531
 1203 0504 0D94     		str	r4, [sp, #52]
 903:Core/Src/main.c ****   GPIO_InitStruct.Speed = GPIO_SPEED_FREQ_VERY_HIGH;
 1204              		.loc 1 903 3 is_stmt 1 view .LVU532
 1205              		.loc 1 903 25 is_stmt 0 view .LVU533
 1206 0506 0E96     		str	r6, [sp, #56]
 904:Core/Src/main.c ****   GPIO_InitStruct.Alternate = GPIO_AF4_I2C3;
 1207              		.loc 1 904 3 is_stmt 1 view .LVU534
 1208              		.loc 1 904 29 is_stmt 0 view .LVU535
ARM GAS  /var/folders/fz/x0kldt2j7vs_j4slv3pyc44m0000gp/T//ccJSrhYz.s 			page 38


 1209 0508 0423     		movs	r3, #4
 1210 050a 0F93     		str	r3, [sp, #60]
 905:Core/Src/main.c ****   HAL_GPIO_Init(GPIOH, &GPIO_InitStruct);
 1211              		.loc 1 905 3 is_stmt 1 view .LVU536
 1212 050c 0BA9     		add	r1, sp, #44
 1213 050e 1048     		ldr	r0, .L9+8
 1214 0510 FFF7FEFF 		bl	HAL_GPIO_Init
 1215              	.LVL49:
 906:Core/Src/main.c **** 
 907:Core/Src/main.c ****   /*Configure GPIO pin : ARDUINO_PWM_D6_Pin */
 908:Core/Src/main.c ****   GPIO_InitStruct.Pin = ARDUINO_PWM_D6_Pin;
 1216              		.loc 1 908 3 view .LVU537
 1217              		.loc 1 908 23 is_stmt 0 view .LVU538
 1218 0514 4023     		movs	r3, #64
 1219 0516 0B93     		str	r3, [sp, #44]
 909:Core/Src/main.c ****   GPIO_InitStruct.Mode = GPIO_MODE_AF_PP;
 1220              		.loc 1 909 3 is_stmt 1 view .LVU539
 1221              		.loc 1 909 24 is_stmt 0 view .LVU540
 1222 0518 0C95     		str	r5, [sp, #48]
 910:Core/Src/main.c ****   GPIO_InitStruct.Pull = GPIO_NOPULL;
 1223              		.loc 1 910 3 is_stmt 1 view .LVU541
 1224              		.loc 1 910 24 is_stmt 0 view .LVU542
 1225 051a 0D94     		str	r4, [sp, #52]
 911:Core/Src/main.c ****   GPIO_InitStruct.Speed = GPIO_SPEED_FREQ_LOW;
 1226              		.loc 1 911 3 is_stmt 1 view .LVU543
 1227              		.loc 1 911 25 is_stmt 0 view .LVU544
 1228 051c 0E94     		str	r4, [sp, #56]
 912:Core/Src/main.c ****   GPIO_InitStruct.Alternate = GPIO_AF9_TIM12;
 1229              		.loc 1 912 3 is_stmt 1 view .LVU545
 1230              		.loc 1 912 29 is_stmt 0 view .LVU546
 1231 051e 0923     		movs	r3, #9
 1232 0520 0F93     		str	r3, [sp, #60]
 913:Core/Src/main.c ****   HAL_GPIO_Init(ARDUINO_PWM_D6_GPIO_Port, &GPIO_InitStruct);
 1233              		.loc 1 913 3 is_stmt 1 view .LVU547
 1234 0522 0BA9     		add	r1, sp, #44
 1235 0524 0A48     		ldr	r0, .L9+8
 1236 0526 FFF7FEFF 		bl	HAL_GPIO_Init
 1237              	.LVL50:
 914:Core/Src/main.c **** 
 915:Core/Src/main.c ****   /*Configure GPIO pins : ARDUINO_MISO_D12_Pin ARDUINO_MOSI_PWM_D11_Pin */
 916:Core/Src/main.c ****   GPIO_InitStruct.Pin = ARDUINO_MISO_D12_Pin|ARDUINO_MOSI_PWM_D11_Pin;
 1238              		.loc 1 916 3 view .LVU548
 1239              		.loc 1 916 23 is_stmt 0 view .LVU549
 1240 052a 4FF44043 		mov	r3, #49152
 1241 052e 0B93     		str	r3, [sp, #44]
 917:Core/Src/main.c ****   GPIO_InitStruct.Mode = GPIO_MODE_AF_PP;
 1242              		.loc 1 917 3 is_stmt 1 view .LVU550
 1243              		.loc 1 917 24 is_stmt 0 view .LVU551
 1244 0530 0C95     		str	r5, [sp, #48]
 918:Core/Src/main.c ****   GPIO_InitStruct.Pull = GPIO_NOPULL;
 1245              		.loc 1 918 3 is_stmt 1 view .LVU552
 1246              		.loc 1 918 24 is_stmt 0 view .LVU553
 1247 0532 0D94     		str	r4, [sp, #52]
 919:Core/Src/main.c ****   GPIO_InitStruct.Speed = GPIO_SPEED_FREQ_LOW;
 1248              		.loc 1 919 3 is_stmt 1 view .LVU554
 1249              		.loc 1 919 25 is_stmt 0 view .LVU555
 1250 0534 0E94     		str	r4, [sp, #56]
ARM GAS  /var/folders/fz/x0kldt2j7vs_j4slv3pyc44m0000gp/T//ccJSrhYz.s 			page 39


 920:Core/Src/main.c ****   GPIO_InitStruct.Alternate = GPIO_AF5_SPI2;
 1251              		.loc 1 920 3 is_stmt 1 view .LVU556
 1252              		.loc 1 920 29 is_stmt 0 view .LVU557
 1253 0536 0523     		movs	r3, #5
 1254 0538 0F93     		str	r3, [sp, #60]
 921:Core/Src/main.c ****   HAL_GPIO_Init(GPIOB, &GPIO_InitStruct);
 1255              		.loc 1 921 3 is_stmt 1 view .LVU558
 1256 053a 0BA9     		add	r1, sp, #44
 1257 053c 0648     		ldr	r0, .L9+16
 1258 053e FFF7FEFF 		bl	HAL_GPIO_Init
 1259              	.LVL51:
 922:Core/Src/main.c **** 
 923:Core/Src/main.c **** /* USER CODE BEGIN MX_GPIO_Init_2 */
 924:Core/Src/main.c **** /* USER CODE END MX_GPIO_Init_2 */
 925:Core/Src/main.c **** }
 1260              		.loc 1 925 1 is_stmt 0 view .LVU559
 1261 0542 11B0     		add	sp, sp, #68
 1262              		.cfi_def_cfa_offset 36
 1263              		@ sp needed
 1264 0544 BDE8F08F 		pop	{r4, r5, r6, r7, r8, r9, r10, fp, pc}
 1265              	.L10:
 1266              		.align	2
 1267              	.L9:
 1268 0548 00140240 		.word	1073878016
 1269 054c 00280240 		.word	1073883136
 1270 0550 001C0240 		.word	1073880064
 1271 0554 00000240 		.word	1073872896
 1272 0558 00040240 		.word	1073873920
 1273 055c 00080240 		.word	1073874944
 1274              		.cfi_endproc
 1275              	.LFE153:
 1277              		.section	.text.MX_DMA_Init,"ax",%progbits
 1278              		.align	1
 1279              		.syntax unified
 1280              		.thumb
 1281              		.thumb_func
 1283              	MX_DMA_Init:
 1284              	.LFB152:
 496:Core/Src/main.c **** 
 1285              		.loc 1 496 1 is_stmt 1 view -0
 1286              		.cfi_startproc
 1287              		@ args = 0, pretend = 0, frame = 8
 1288              		@ frame_needed = 0, uses_anonymous_args = 0
 1289 0000 00B5     		push	{lr}
 1290              		.cfi_def_cfa_offset 4
 1291              		.cfi_offset 14, -4
 1292 0002 83B0     		sub	sp, sp, #12
 1293              		.cfi_def_cfa_offset 16
 499:Core/Src/main.c **** 
 1294              		.loc 1 499 3 view .LVU561
 1295              	.LBB15:
 499:Core/Src/main.c **** 
 1296              		.loc 1 499 3 view .LVU562
 499:Core/Src/main.c **** 
 1297              		.loc 1 499 3 view .LVU563
 1298 0004 0E4B     		ldr	r3, .L13
 1299 0006 1A6B     		ldr	r2, [r3, #48]
ARM GAS  /var/folders/fz/x0kldt2j7vs_j4slv3pyc44m0000gp/T//ccJSrhYz.s 			page 40


 1300 0008 42F48002 		orr	r2, r2, #4194304
 1301 000c 1A63     		str	r2, [r3, #48]
 499:Core/Src/main.c **** 
 1302              		.loc 1 499 3 view .LVU564
 1303 000e 1B6B     		ldr	r3, [r3, #48]
 1304 0010 03F48003 		and	r3, r3, #4194304
 1305 0014 0193     		str	r3, [sp, #4]
 499:Core/Src/main.c **** 
 1306              		.loc 1 499 3 view .LVU565
 1307 0016 019B     		ldr	r3, [sp, #4]
 1308              	.LBE15:
 499:Core/Src/main.c **** 
 1309              		.loc 1 499 3 view .LVU566
 503:Core/Src/main.c ****   HAL_NVIC_EnableIRQ(DMA2_Stream1_IRQn);
 1310              		.loc 1 503 3 view .LVU567
 1311 0018 0022     		movs	r2, #0
 1312 001a 1146     		mov	r1, r2
 1313 001c 3920     		movs	r0, #57
 1314 001e FFF7FEFF 		bl	HAL_NVIC_SetPriority
 1315              	.LVL52:
 504:Core/Src/main.c ****   /* DMA2_Stream3_IRQn interrupt configuration */
 1316              		.loc 1 504 3 view .LVU568
 1317 0022 3920     		movs	r0, #57
 1318 0024 FFF7FEFF 		bl	HAL_NVIC_EnableIRQ
 1319              	.LVL53:
 506:Core/Src/main.c ****   HAL_NVIC_EnableIRQ(DMA2_Stream3_IRQn);
 1320              		.loc 1 506 3 view .LVU569
 1321 0028 0022     		movs	r2, #0
 1322 002a 1146     		mov	r1, r2
 1323 002c 3B20     		movs	r0, #59
 1324 002e FFF7FEFF 		bl	HAL_NVIC_SetPriority
 1325              	.LVL54:
 507:Core/Src/main.c **** 
 1326              		.loc 1 507 3 view .LVU570
 1327 0032 3B20     		movs	r0, #59
 1328 0034 FFF7FEFF 		bl	HAL_NVIC_EnableIRQ
 1329              	.LVL55:
 509:Core/Src/main.c **** 
 1330              		.loc 1 509 1 is_stmt 0 view .LVU571
 1331 0038 03B0     		add	sp, sp, #12
 1332              		.cfi_def_cfa_offset 4
 1333              		@ sp needed
 1334 003a 5DF804FB 		ldr	pc, [sp], #4
 1335              	.L14:
 1336 003e 00BF     		.align	2
 1337              	.L13:
 1338 0040 00380240 		.word	1073887232
 1339              		.cfi_endproc
 1340              	.LFE152:
 1342              		.section	.text.Error_Handler,"ax",%progbits
 1343              		.align	1
 1344              		.global	Error_Handler
 1345              		.syntax unified
 1346              		.thumb
 1347              		.thumb_func
 1349              	Error_Handler:
 1350              	.LFB154:
ARM GAS  /var/folders/fz/x0kldt2j7vs_j4slv3pyc44m0000gp/T//ccJSrhYz.s 			page 41


 926:Core/Src/main.c **** 
 927:Core/Src/main.c **** /* USER CODE BEGIN 4 */
 928:Core/Src/main.c **** /* USER CODE END 4 */
 929:Core/Src/main.c **** 
 930:Core/Src/main.c **** /**
 931:Core/Src/main.c ****   * @brief  This function is executed in case of error occurrence.
 932:Core/Src/main.c ****   * @retval None
 933:Core/Src/main.c ****   */
 934:Core/Src/main.c **** void Error_Handler(void)
 935:Core/Src/main.c **** {
 1351              		.loc 1 935 1 is_stmt 1 view -0
 1352              		.cfi_startproc
 1353              		@ Volatile: function does not return.
 1354              		@ args = 0, pretend = 0, frame = 0
 1355              		@ frame_needed = 0, uses_anonymous_args = 0
 1356              		@ link register save eliminated.
 936:Core/Src/main.c ****   /* USER CODE BEGIN Error_Handler_Debug */
 937:Core/Src/main.c ****   /* User can add his own implementation to report the HAL error return state */
 938:Core/Src/main.c ****   __disable_irq();
 1357              		.loc 1 938 3 view .LVU573
 1358              	.LBB16:
 1359              	.LBI16:
 1360              		.file 2 "Drivers/CMSIS/Core/Include/cmsis_gcc.h"
   1:Drivers/CMSIS/Core/Include/cmsis_gcc.h **** /**************************************************************************//**
   2:Drivers/CMSIS/Core/Include/cmsis_gcc.h ****  * @file     cmsis_gcc.h
   3:Drivers/CMSIS/Core/Include/cmsis_gcc.h ****  * @brief    CMSIS compiler GCC header file
   4:Drivers/CMSIS/Core/Include/cmsis_gcc.h ****  * @version  V5.0.4
   5:Drivers/CMSIS/Core/Include/cmsis_gcc.h ****  * @date     09. April 2018
   6:Drivers/CMSIS/Core/Include/cmsis_gcc.h ****  ******************************************************************************/
   7:Drivers/CMSIS/Core/Include/cmsis_gcc.h **** /*
   8:Drivers/CMSIS/Core/Include/cmsis_gcc.h ****  * Copyright (c) 2009-2018 Arm Limited. All rights reserved.
   9:Drivers/CMSIS/Core/Include/cmsis_gcc.h ****  *
  10:Drivers/CMSIS/Core/Include/cmsis_gcc.h ****  * SPDX-License-Identifier: Apache-2.0
  11:Drivers/CMSIS/Core/Include/cmsis_gcc.h ****  *
  12:Drivers/CMSIS/Core/Include/cmsis_gcc.h ****  * Licensed under the Apache License, Version 2.0 (the License); you may
  13:Drivers/CMSIS/Core/Include/cmsis_gcc.h ****  * not use this file except in compliance with the License.
  14:Drivers/CMSIS/Core/Include/cmsis_gcc.h ****  * You may obtain a copy of the License at
  15:Drivers/CMSIS/Core/Include/cmsis_gcc.h ****  *
  16:Drivers/CMSIS/Core/Include/cmsis_gcc.h ****  * www.apache.org/licenses/LICENSE-2.0
  17:Drivers/CMSIS/Core/Include/cmsis_gcc.h ****  *
  18:Drivers/CMSIS/Core/Include/cmsis_gcc.h ****  * Unless required by applicable law or agreed to in writing, software
  19:Drivers/CMSIS/Core/Include/cmsis_gcc.h ****  * distributed under the License is distributed on an AS IS BASIS, WITHOUT
  20:Drivers/CMSIS/Core/Include/cmsis_gcc.h ****  * WARRANTIES OR CONDITIONS OF ANY KIND, either express or implied.
  21:Drivers/CMSIS/Core/Include/cmsis_gcc.h ****  * See the License for the specific language governing permissions and
  22:Drivers/CMSIS/Core/Include/cmsis_gcc.h ****  * limitations under the License.
  23:Drivers/CMSIS/Core/Include/cmsis_gcc.h ****  */
  24:Drivers/CMSIS/Core/Include/cmsis_gcc.h **** 
  25:Drivers/CMSIS/Core/Include/cmsis_gcc.h **** #ifndef __CMSIS_GCC_H
  26:Drivers/CMSIS/Core/Include/cmsis_gcc.h **** #define __CMSIS_GCC_H
  27:Drivers/CMSIS/Core/Include/cmsis_gcc.h **** 
  28:Drivers/CMSIS/Core/Include/cmsis_gcc.h **** /* ignore some GCC warnings */
  29:Drivers/CMSIS/Core/Include/cmsis_gcc.h **** #pragma GCC diagnostic push
  30:Drivers/CMSIS/Core/Include/cmsis_gcc.h **** #pragma GCC diagnostic ignored "-Wsign-conversion"
  31:Drivers/CMSIS/Core/Include/cmsis_gcc.h **** #pragma GCC diagnostic ignored "-Wconversion"
  32:Drivers/CMSIS/Core/Include/cmsis_gcc.h **** #pragma GCC diagnostic ignored "-Wunused-parameter"
  33:Drivers/CMSIS/Core/Include/cmsis_gcc.h **** 
  34:Drivers/CMSIS/Core/Include/cmsis_gcc.h **** /* Fallback for __has_builtin */
ARM GAS  /var/folders/fz/x0kldt2j7vs_j4slv3pyc44m0000gp/T//ccJSrhYz.s 			page 42


  35:Drivers/CMSIS/Core/Include/cmsis_gcc.h **** #ifndef __has_builtin
  36:Drivers/CMSIS/Core/Include/cmsis_gcc.h ****   #define __has_builtin(x) (0)
  37:Drivers/CMSIS/Core/Include/cmsis_gcc.h **** #endif
  38:Drivers/CMSIS/Core/Include/cmsis_gcc.h **** 
  39:Drivers/CMSIS/Core/Include/cmsis_gcc.h **** /* CMSIS compiler specific defines */
  40:Drivers/CMSIS/Core/Include/cmsis_gcc.h **** #ifndef   __ASM
  41:Drivers/CMSIS/Core/Include/cmsis_gcc.h ****   #define __ASM                                  __asm
  42:Drivers/CMSIS/Core/Include/cmsis_gcc.h **** #endif
  43:Drivers/CMSIS/Core/Include/cmsis_gcc.h **** #ifndef   __INLINE
  44:Drivers/CMSIS/Core/Include/cmsis_gcc.h ****   #define __INLINE                               inline
  45:Drivers/CMSIS/Core/Include/cmsis_gcc.h **** #endif
  46:Drivers/CMSIS/Core/Include/cmsis_gcc.h **** #ifndef   __STATIC_INLINE
  47:Drivers/CMSIS/Core/Include/cmsis_gcc.h ****   #define __STATIC_INLINE                        static inline
  48:Drivers/CMSIS/Core/Include/cmsis_gcc.h **** #endif
  49:Drivers/CMSIS/Core/Include/cmsis_gcc.h **** #ifndef   __STATIC_FORCEINLINE                 
  50:Drivers/CMSIS/Core/Include/cmsis_gcc.h ****   #define __STATIC_FORCEINLINE                   __attribute__((always_inline)) static inline
  51:Drivers/CMSIS/Core/Include/cmsis_gcc.h **** #endif                                           
  52:Drivers/CMSIS/Core/Include/cmsis_gcc.h **** #ifndef   __NO_RETURN
  53:Drivers/CMSIS/Core/Include/cmsis_gcc.h ****   #define __NO_RETURN                            __attribute__((__noreturn__))
  54:Drivers/CMSIS/Core/Include/cmsis_gcc.h **** #endif
  55:Drivers/CMSIS/Core/Include/cmsis_gcc.h **** #ifndef   __USED
  56:Drivers/CMSIS/Core/Include/cmsis_gcc.h ****   #define __USED                                 __attribute__((used))
  57:Drivers/CMSIS/Core/Include/cmsis_gcc.h **** #endif
  58:Drivers/CMSIS/Core/Include/cmsis_gcc.h **** #ifndef   __WEAK
  59:Drivers/CMSIS/Core/Include/cmsis_gcc.h ****   #define __WEAK                                 __attribute__((weak))
  60:Drivers/CMSIS/Core/Include/cmsis_gcc.h **** #endif
  61:Drivers/CMSIS/Core/Include/cmsis_gcc.h **** #ifndef   __PACKED
  62:Drivers/CMSIS/Core/Include/cmsis_gcc.h ****   #define __PACKED                               __attribute__((packed, aligned(1)))
  63:Drivers/CMSIS/Core/Include/cmsis_gcc.h **** #endif
  64:Drivers/CMSIS/Core/Include/cmsis_gcc.h **** #ifndef   __PACKED_STRUCT
  65:Drivers/CMSIS/Core/Include/cmsis_gcc.h ****   #define __PACKED_STRUCT                        struct __attribute__((packed, aligned(1)))
  66:Drivers/CMSIS/Core/Include/cmsis_gcc.h **** #endif
  67:Drivers/CMSIS/Core/Include/cmsis_gcc.h **** #ifndef   __PACKED_UNION
  68:Drivers/CMSIS/Core/Include/cmsis_gcc.h ****   #define __PACKED_UNION                         union __attribute__((packed, aligned(1)))
  69:Drivers/CMSIS/Core/Include/cmsis_gcc.h **** #endif
  70:Drivers/CMSIS/Core/Include/cmsis_gcc.h **** #ifndef   __UNALIGNED_UINT32        /* deprecated */
  71:Drivers/CMSIS/Core/Include/cmsis_gcc.h ****   #pragma GCC diagnostic push
  72:Drivers/CMSIS/Core/Include/cmsis_gcc.h ****   #pragma GCC diagnostic ignored "-Wpacked"
  73:Drivers/CMSIS/Core/Include/cmsis_gcc.h ****   #pragma GCC diagnostic ignored "-Wattributes"
  74:Drivers/CMSIS/Core/Include/cmsis_gcc.h ****   struct __attribute__((packed)) T_UINT32 { uint32_t v; };
  75:Drivers/CMSIS/Core/Include/cmsis_gcc.h ****   #pragma GCC diagnostic pop
  76:Drivers/CMSIS/Core/Include/cmsis_gcc.h ****   #define __UNALIGNED_UINT32(x)                  (((struct T_UINT32 *)(x))->v)
  77:Drivers/CMSIS/Core/Include/cmsis_gcc.h **** #endif
  78:Drivers/CMSIS/Core/Include/cmsis_gcc.h **** #ifndef   __UNALIGNED_UINT16_WRITE
  79:Drivers/CMSIS/Core/Include/cmsis_gcc.h ****   #pragma GCC diagnostic push
  80:Drivers/CMSIS/Core/Include/cmsis_gcc.h ****   #pragma GCC diagnostic ignored "-Wpacked"
  81:Drivers/CMSIS/Core/Include/cmsis_gcc.h ****   #pragma GCC diagnostic ignored "-Wattributes"
  82:Drivers/CMSIS/Core/Include/cmsis_gcc.h ****   __PACKED_STRUCT T_UINT16_WRITE { uint16_t v; };
  83:Drivers/CMSIS/Core/Include/cmsis_gcc.h ****   #pragma GCC diagnostic pop
  84:Drivers/CMSIS/Core/Include/cmsis_gcc.h ****   #define __UNALIGNED_UINT16_WRITE(addr, val)    (void)((((struct T_UINT16_WRITE *)(void *)(addr))-
  85:Drivers/CMSIS/Core/Include/cmsis_gcc.h **** #endif
  86:Drivers/CMSIS/Core/Include/cmsis_gcc.h **** #ifndef   __UNALIGNED_UINT16_READ
  87:Drivers/CMSIS/Core/Include/cmsis_gcc.h ****   #pragma GCC diagnostic push
  88:Drivers/CMSIS/Core/Include/cmsis_gcc.h ****   #pragma GCC diagnostic ignored "-Wpacked"
  89:Drivers/CMSIS/Core/Include/cmsis_gcc.h ****   #pragma GCC diagnostic ignored "-Wattributes"
  90:Drivers/CMSIS/Core/Include/cmsis_gcc.h ****   __PACKED_STRUCT T_UINT16_READ { uint16_t v; };
  91:Drivers/CMSIS/Core/Include/cmsis_gcc.h ****   #pragma GCC diagnostic pop
ARM GAS  /var/folders/fz/x0kldt2j7vs_j4slv3pyc44m0000gp/T//ccJSrhYz.s 			page 43


  92:Drivers/CMSIS/Core/Include/cmsis_gcc.h ****   #define __UNALIGNED_UINT16_READ(addr)          (((const struct T_UINT16_READ *)(const void *)(add
  93:Drivers/CMSIS/Core/Include/cmsis_gcc.h **** #endif
  94:Drivers/CMSIS/Core/Include/cmsis_gcc.h **** #ifndef   __UNALIGNED_UINT32_WRITE
  95:Drivers/CMSIS/Core/Include/cmsis_gcc.h ****   #pragma GCC diagnostic push
  96:Drivers/CMSIS/Core/Include/cmsis_gcc.h ****   #pragma GCC diagnostic ignored "-Wpacked"
  97:Drivers/CMSIS/Core/Include/cmsis_gcc.h ****   #pragma GCC diagnostic ignored "-Wattributes"
  98:Drivers/CMSIS/Core/Include/cmsis_gcc.h ****   __PACKED_STRUCT T_UINT32_WRITE { uint32_t v; };
  99:Drivers/CMSIS/Core/Include/cmsis_gcc.h ****   #pragma GCC diagnostic pop
 100:Drivers/CMSIS/Core/Include/cmsis_gcc.h ****   #define __UNALIGNED_UINT32_WRITE(addr, val)    (void)((((struct T_UINT32_WRITE *)(void *)(addr))-
 101:Drivers/CMSIS/Core/Include/cmsis_gcc.h **** #endif
 102:Drivers/CMSIS/Core/Include/cmsis_gcc.h **** #ifndef   __UNALIGNED_UINT32_READ
 103:Drivers/CMSIS/Core/Include/cmsis_gcc.h ****   #pragma GCC diagnostic push
 104:Drivers/CMSIS/Core/Include/cmsis_gcc.h ****   #pragma GCC diagnostic ignored "-Wpacked"
 105:Drivers/CMSIS/Core/Include/cmsis_gcc.h ****   #pragma GCC diagnostic ignored "-Wattributes"
 106:Drivers/CMSIS/Core/Include/cmsis_gcc.h ****   __PACKED_STRUCT T_UINT32_READ { uint32_t v; };
 107:Drivers/CMSIS/Core/Include/cmsis_gcc.h ****   #pragma GCC diagnostic pop
 108:Drivers/CMSIS/Core/Include/cmsis_gcc.h ****   #define __UNALIGNED_UINT32_READ(addr)          (((const struct T_UINT32_READ *)(const void *)(add
 109:Drivers/CMSIS/Core/Include/cmsis_gcc.h **** #endif
 110:Drivers/CMSIS/Core/Include/cmsis_gcc.h **** #ifndef   __ALIGNED
 111:Drivers/CMSIS/Core/Include/cmsis_gcc.h ****   #define __ALIGNED(x)                           __attribute__((aligned(x)))
 112:Drivers/CMSIS/Core/Include/cmsis_gcc.h **** #endif
 113:Drivers/CMSIS/Core/Include/cmsis_gcc.h **** #ifndef   __RESTRICT
 114:Drivers/CMSIS/Core/Include/cmsis_gcc.h ****   #define __RESTRICT                             __restrict
 115:Drivers/CMSIS/Core/Include/cmsis_gcc.h **** #endif
 116:Drivers/CMSIS/Core/Include/cmsis_gcc.h **** 
 117:Drivers/CMSIS/Core/Include/cmsis_gcc.h **** 
 118:Drivers/CMSIS/Core/Include/cmsis_gcc.h **** /* ###########################  Core Function Access  ########################### */
 119:Drivers/CMSIS/Core/Include/cmsis_gcc.h **** /** \ingroup  CMSIS_Core_FunctionInterface
 120:Drivers/CMSIS/Core/Include/cmsis_gcc.h ****     \defgroup CMSIS_Core_RegAccFunctions CMSIS Core Register Access Functions
 121:Drivers/CMSIS/Core/Include/cmsis_gcc.h ****   @{
 122:Drivers/CMSIS/Core/Include/cmsis_gcc.h ****  */
 123:Drivers/CMSIS/Core/Include/cmsis_gcc.h **** 
 124:Drivers/CMSIS/Core/Include/cmsis_gcc.h **** /**
 125:Drivers/CMSIS/Core/Include/cmsis_gcc.h ****   \brief   Enable IRQ Interrupts
 126:Drivers/CMSIS/Core/Include/cmsis_gcc.h ****   \details Enables IRQ interrupts by clearing the I-bit in the CPSR.
 127:Drivers/CMSIS/Core/Include/cmsis_gcc.h ****            Can only be executed in Privileged modes.
 128:Drivers/CMSIS/Core/Include/cmsis_gcc.h ****  */
 129:Drivers/CMSIS/Core/Include/cmsis_gcc.h **** __STATIC_FORCEINLINE void __enable_irq(void)
 130:Drivers/CMSIS/Core/Include/cmsis_gcc.h **** {
 131:Drivers/CMSIS/Core/Include/cmsis_gcc.h ****   __ASM volatile ("cpsie i" : : : "memory");
 132:Drivers/CMSIS/Core/Include/cmsis_gcc.h **** }
 133:Drivers/CMSIS/Core/Include/cmsis_gcc.h **** 
 134:Drivers/CMSIS/Core/Include/cmsis_gcc.h **** 
 135:Drivers/CMSIS/Core/Include/cmsis_gcc.h **** /**
 136:Drivers/CMSIS/Core/Include/cmsis_gcc.h ****   \brief   Disable IRQ Interrupts
 137:Drivers/CMSIS/Core/Include/cmsis_gcc.h ****   \details Disables IRQ interrupts by setting the I-bit in the CPSR.
 138:Drivers/CMSIS/Core/Include/cmsis_gcc.h ****            Can only be executed in Privileged modes.
 139:Drivers/CMSIS/Core/Include/cmsis_gcc.h ****  */
 140:Drivers/CMSIS/Core/Include/cmsis_gcc.h **** __STATIC_FORCEINLINE void __disable_irq(void)
 1361              		.loc 2 140 27 view .LVU574
 1362              	.LBB17:
 141:Drivers/CMSIS/Core/Include/cmsis_gcc.h **** {
 142:Drivers/CMSIS/Core/Include/cmsis_gcc.h ****   __ASM volatile ("cpsid i" : : : "memory");
 1363              		.loc 2 142 3 view .LVU575
 1364              		.syntax unified
 1365              	@ 142 "Drivers/CMSIS/Core/Include/cmsis_gcc.h" 1
 1366 0000 72B6     		cpsid i
ARM GAS  /var/folders/fz/x0kldt2j7vs_j4slv3pyc44m0000gp/T//ccJSrhYz.s 			page 44


 1367              	@ 0 "" 2
 1368              		.thumb
 1369              		.syntax unified
 1370              	.L16:
 1371              	.LBE17:
 1372              	.LBE16:
 939:Core/Src/main.c ****   while (1)
 1373              		.loc 1 939 3 discriminator 1 view .LVU576
 940:Core/Src/main.c ****   {
 941:Core/Src/main.c ****   }
 1374              		.loc 1 941 3 discriminator 1 view .LVU577
 939:Core/Src/main.c ****   while (1)
 1375              		.loc 1 939 9 discriminator 1 view .LVU578
 1376 0002 FEE7     		b	.L16
 1377              		.cfi_endproc
 1378              	.LFE154:
 1380              		.section	.text.handle_event,"ax",%progbits
 1381              		.align	1
 1382              		.global	handle_event
 1383              		.syntax unified
 1384              		.thumb
 1385              		.thumb_func
 1387              	handle_event:
 1388              	.LFB144:
  84:Core/Src/main.c ****     switch (event.type) {
 1389              		.loc 1 84 32 view -0
 1390              		.cfi_startproc
 1391              		@ args = 0, pretend = 0, frame = 16
 1392              		@ frame_needed = 0, uses_anonymous_args = 0
 1393 0000 10B5     		push	{r4, lr}
 1394              		.cfi_def_cfa_offset 8
 1395              		.cfi_offset 4, -8
 1396              		.cfi_offset 14, -4
 1397 0002 84B0     		sub	sp, sp, #16
 1398              		.cfi_def_cfa_offset 24
 1399 0004 6B46     		mov	r3, sp
 1400 0006 83E80300 		stm	r3, {r0, r1}
  85:Core/Src/main.c ****       case DCMIFrameComplete: {
 1401              		.loc 1 85 5 view .LVU580
  85:Core/Src/main.c ****       case DCMIFrameComplete: {
 1402              		.loc 1 85 18 is_stmt 0 view .LVU581
 1403 000a 9DF80030 		ldrb	r3, [sp]	@ zero_extendqisi2
  85:Core/Src/main.c ****       case DCMIFrameComplete: {
 1404              		.loc 1 85 5 view .LVU582
 1405 000e 012B     		cmp	r3, #1
 1406 0010 0FD0     		beq	.L18
 1407 0012 08D8     		bhi	.L19
 1408 0014 CBB9     		cbnz	r3, .L21
 1409              	.LBB18:
  88:Core/Src/main.c ****                   *((DCMIFrameCompleteEventData*) event.data);
 1410              		.loc 1 88 11 is_stmt 1 view .LVU583
  89:Core/Src/main.c ****           container_on_dcmi_frame_complete(event_data);
 1411              		.loc 1 89 56 is_stmt 0 view .LVU584
 1412 0016 019C     		ldr	r4, [sp, #4]
  90:Core/Src/main.c ****           free(event.data);
 1413              		.loc 1 90 11 is_stmt 1 view .LVU585
 1414 0018 2068     		ldr	r0, [r4]
ARM GAS  /var/folders/fz/x0kldt2j7vs_j4slv3pyc44m0000gp/T//ccJSrhYz.s 			page 45


 1415 001a FFF7FEFF 		bl	container_on_dcmi_frame_complete
 1416              	.LVL56:
  91:Core/Src/main.c ****           //printf("[%lu] Done handling DCMIFrameComplete\n", HAL_GetTick());
 1417              		.loc 1 91 11 view .LVU586
 1418 001e 2046     		mov	r0, r4
 1419 0020 FFF7FEFF 		bl	free
 1420              	.LVL57:
  93:Core/Src/main.c ****       }
 1421              		.loc 1 93 11 view .LVU587
 1422 0024 03E0     		b	.L17
 1423              	.L19:
 1424              	.LBE18:
  85:Core/Src/main.c ****       case DCMIFrameComplete: {
 1425              		.loc 1 85 5 is_stmt 0 view .LVU588
 1426 0026 023B     		subs	r3, r3, #2
 1427 0028 DBB2     		uxtb	r3, r3
 1428 002a 022B     		cmp	r3, #2
 1429 002c 0DD8     		bhi	.L21
 1430              	.L17:
 117:Core/Src/main.c **** 
 1431              		.loc 1 117 1 view .LVU589
 1432 002e 04B0     		add	sp, sp, #16
 1433              		.cfi_remember_state
 1434              		.cfi_def_cfa_offset 8
 1435              		@ sp needed
 1436 0030 10BD     		pop	{r4, pc}
 1437              	.L18:
 1438              		.cfi_restore_state
 1439              	.LBB19:
  97:Core/Src/main.c ****                   *((DCMIDataReadyEventData*) event.data);
 1440              		.loc 1 97 11 is_stmt 1 view .LVU590
  98:Core/Src/main.c ****           container_on_dcmi_data_ready(event_data);
 1441              		.loc 1 98 52 is_stmt 0 view .LVU591
 1442 0032 019C     		ldr	r4, [sp, #4]
  97:Core/Src/main.c ****                   *((DCMIDataReadyEventData*) event.data);
 1443              		.loc 1 97 40 view .LVU592
 1444 0034 02AB     		add	r3, sp, #8
 1445 0036 94E80300 		ldm	r4, {r0, r1}
 1446 003a 83E80300 		stm	r3, {r0, r1}
  99:Core/Src/main.c ****           //printf("[%lu] Done handling DCMIDataReady\n", HAL_GetTick());
 1447              		.loc 1 99 11 is_stmt 1 view .LVU593
 1448 003e FFF7FEFF 		bl	container_on_dcmi_data_ready
 1449              	.LVL58:
 101:Core/Src/main.c ****           break;
 1450              		.loc 1 101 11 view .LVU594
 1451 0042 2046     		mov	r0, r4
 1452 0044 FFF7FEFF 		bl	free
 1453              	.LVL59:
 102:Core/Src/main.c ****       }
 1454              		.loc 1 102 11 view .LVU595
 1455 0048 F1E7     		b	.L17
 1456              	.L21:
 1457              	.LBE19:
 114:Core/Src/main.c ****           break;
 1458              		.loc 1 114 11 view .LVU596
 1459 004a FFF7FEFF 		bl	Error_Handler
 1460              	.LVL60:
ARM GAS  /var/folders/fz/x0kldt2j7vs_j4slv3pyc44m0000gp/T//ccJSrhYz.s 			page 46


 1461              		.cfi_endproc
 1462              	.LFE144:
 1464              		.section	.text.MX_I2C1_Init,"ax",%progbits
 1465              		.align	1
 1466              		.syntax unified
 1467              		.thumb
 1468              		.thumb_func
 1470              	MX_I2C1_Init:
 1471              	.LFB148:
 325:Core/Src/main.c **** 
 1472              		.loc 1 325 1 view -0
 1473              		.cfi_startproc
 1474              		@ args = 0, pretend = 0, frame = 0
 1475              		@ frame_needed = 0, uses_anonymous_args = 0
 1476 0000 08B5     		push	{r3, lr}
 1477              		.cfi_def_cfa_offset 8
 1478              		.cfi_offset 3, -8
 1479              		.cfi_offset 14, -4
 334:Core/Src/main.c ****   hi2c1.Init.Timing = 0x00C0EAFF;
 1480              		.loc 1 334 3 view .LVU598
 334:Core/Src/main.c ****   hi2c1.Init.Timing = 0x00C0EAFF;
 1481              		.loc 1 334 18 is_stmt 0 view .LVU599
 1482 0002 1148     		ldr	r0, .L32
 1483 0004 114B     		ldr	r3, .L32+4
 1484 0006 0360     		str	r3, [r0]
 335:Core/Src/main.c ****   hi2c1.Init.OwnAddress1 = 0;
 1485              		.loc 1 335 3 is_stmt 1 view .LVU600
 335:Core/Src/main.c ****   hi2c1.Init.OwnAddress1 = 0;
 1486              		.loc 1 335 21 is_stmt 0 view .LVU601
 1487 0008 114B     		ldr	r3, .L32+8
 1488 000a 4360     		str	r3, [r0, #4]
 336:Core/Src/main.c ****   hi2c1.Init.AddressingMode = I2C_ADDRESSINGMODE_7BIT;
 1489              		.loc 1 336 3 is_stmt 1 view .LVU602
 336:Core/Src/main.c ****   hi2c1.Init.AddressingMode = I2C_ADDRESSINGMODE_7BIT;
 1490              		.loc 1 336 26 is_stmt 0 view .LVU603
 1491 000c 0023     		movs	r3, #0
 1492 000e 8360     		str	r3, [r0, #8]
 337:Core/Src/main.c ****   hi2c1.Init.DualAddressMode = I2C_DUALADDRESS_DISABLE;
 1493              		.loc 1 337 3 is_stmt 1 view .LVU604
 337:Core/Src/main.c ****   hi2c1.Init.DualAddressMode = I2C_DUALADDRESS_DISABLE;
 1494              		.loc 1 337 29 is_stmt 0 view .LVU605
 1495 0010 0122     		movs	r2, #1
 1496 0012 C260     		str	r2, [r0, #12]
 338:Core/Src/main.c ****   hi2c1.Init.OwnAddress2 = 0;
 1497              		.loc 1 338 3 is_stmt 1 view .LVU606
 338:Core/Src/main.c ****   hi2c1.Init.OwnAddress2 = 0;
 1498              		.loc 1 338 30 is_stmt 0 view .LVU607
 1499 0014 0361     		str	r3, [r0, #16]
 339:Core/Src/main.c ****   hi2c1.Init.OwnAddress2Masks = I2C_OA2_NOMASK;
 1500              		.loc 1 339 3 is_stmt 1 view .LVU608
 339:Core/Src/main.c ****   hi2c1.Init.OwnAddress2Masks = I2C_OA2_NOMASK;
 1501              		.loc 1 339 26 is_stmt 0 view .LVU609
 1502 0016 4361     		str	r3, [r0, #20]
 340:Core/Src/main.c ****   hi2c1.Init.GeneralCallMode = I2C_GENERALCALL_DISABLE;
 1503              		.loc 1 340 3 is_stmt 1 view .LVU610
 340:Core/Src/main.c ****   hi2c1.Init.GeneralCallMode = I2C_GENERALCALL_DISABLE;
 1504              		.loc 1 340 31 is_stmt 0 view .LVU611
ARM GAS  /var/folders/fz/x0kldt2j7vs_j4slv3pyc44m0000gp/T//ccJSrhYz.s 			page 47


 1505 0018 8361     		str	r3, [r0, #24]
 341:Core/Src/main.c ****   hi2c1.Init.NoStretchMode = I2C_NOSTRETCH_DISABLE;
 1506              		.loc 1 341 3 is_stmt 1 view .LVU612
 341:Core/Src/main.c ****   hi2c1.Init.NoStretchMode = I2C_NOSTRETCH_DISABLE;
 1507              		.loc 1 341 30 is_stmt 0 view .LVU613
 1508 001a C361     		str	r3, [r0, #28]
 342:Core/Src/main.c ****   if (HAL_I2C_Init(&hi2c1) != HAL_OK)
 1509              		.loc 1 342 3 is_stmt 1 view .LVU614
 342:Core/Src/main.c ****   if (HAL_I2C_Init(&hi2c1) != HAL_OK)
 1510              		.loc 1 342 28 is_stmt 0 view .LVU615
 1511 001c 0362     		str	r3, [r0, #32]
 343:Core/Src/main.c ****   {
 1512              		.loc 1 343 3 is_stmt 1 view .LVU616
 343:Core/Src/main.c ****   {
 1513              		.loc 1 343 7 is_stmt 0 view .LVU617
 1514 001e FFF7FEFF 		bl	HAL_I2C_Init
 1515              	.LVL61:
 343:Core/Src/main.c ****   {
 1516              		.loc 1 343 6 view .LVU618
 1517 0022 50B9     		cbnz	r0, .L29
 350:Core/Src/main.c ****   {
 1518              		.loc 1 350 3 is_stmt 1 view .LVU619
 350:Core/Src/main.c ****   {
 1519              		.loc 1 350 7 is_stmt 0 view .LVU620
 1520 0024 0021     		movs	r1, #0
 1521 0026 0848     		ldr	r0, .L32
 1522 0028 FFF7FEFF 		bl	HAL_I2CEx_ConfigAnalogFilter
 1523              	.LVL62:
 350:Core/Src/main.c ****   {
 1524              		.loc 1 350 6 view .LVU621
 1525 002c 38B9     		cbnz	r0, .L30
 357:Core/Src/main.c ****   {
 1526              		.loc 1 357 3 is_stmt 1 view .LVU622
 357:Core/Src/main.c ****   {
 1527              		.loc 1 357 7 is_stmt 0 view .LVU623
 1528 002e 0021     		movs	r1, #0
 1529 0030 0548     		ldr	r0, .L32
 1530 0032 FFF7FEFF 		bl	HAL_I2CEx_ConfigDigitalFilter
 1531              	.LVL63:
 357:Core/Src/main.c ****   {
 1532              		.loc 1 357 6 view .LVU624
 1533 0036 20B9     		cbnz	r0, .L31
 365:Core/Src/main.c **** 
 1534              		.loc 1 365 1 view .LVU625
 1535 0038 08BD     		pop	{r3, pc}
 1536              	.L29:
 345:Core/Src/main.c ****   }
 1537              		.loc 1 345 5 is_stmt 1 view .LVU626
 1538 003a FFF7FEFF 		bl	Error_Handler
 1539              	.LVL64:
 1540              	.L30:
 352:Core/Src/main.c ****   }
 1541              		.loc 1 352 5 view .LVU627
 1542 003e FFF7FEFF 		bl	Error_Handler
 1543              	.LVL65:
 1544              	.L31:
 359:Core/Src/main.c ****   }
ARM GAS  /var/folders/fz/x0kldt2j7vs_j4slv3pyc44m0000gp/T//ccJSrhYz.s 			page 48


 1545              		.loc 1 359 5 view .LVU628
 1546 0042 FFF7FEFF 		bl	Error_Handler
 1547              	.LVL66:
 1548              	.L33:
 1549 0046 00BF     		.align	2
 1550              	.L32:
 1551 0048 00000000 		.word	hi2c1
 1552 004c 00540040 		.word	1073763328
 1553 0050 FFEAC000 		.word	12643071
 1554              		.cfi_endproc
 1555              	.LFE148:
 1557              		.section	.text.MX_DCMI_Init,"ax",%progbits
 1558              		.align	1
 1559              		.syntax unified
 1560              		.thumb
 1561              		.thumb_func
 1563              	MX_DCMI_Init:
 1564              	.LFB147:
 288:Core/Src/main.c **** 
 1565              		.loc 1 288 1 view -0
 1566              		.cfi_startproc
 1567              		@ args = 0, pretend = 0, frame = 0
 1568              		@ frame_needed = 0, uses_anonymous_args = 0
 1569 0000 08B5     		push	{r3, lr}
 1570              		.cfi_def_cfa_offset 8
 1571              		.cfi_offset 3, -8
 1572              		.cfi_offset 14, -4
 297:Core/Src/main.c ****   hdcmi.Init.SynchroMode = DCMI_SYNCHRO_HARDWARE;
 1573              		.loc 1 297 3 view .LVU630
 297:Core/Src/main.c ****   hdcmi.Init.SynchroMode = DCMI_SYNCHRO_HARDWARE;
 1574              		.loc 1 297 18 is_stmt 0 view .LVU631
 1575 0002 0C48     		ldr	r0, .L38
 1576 0004 0C4B     		ldr	r3, .L38+4
 1577 0006 0360     		str	r3, [r0]
 298:Core/Src/main.c ****   hdcmi.Init.PCKPolarity = DCMI_PCKPOLARITY_RISING;
 1578              		.loc 1 298 3 is_stmt 1 view .LVU632
 298:Core/Src/main.c ****   hdcmi.Init.PCKPolarity = DCMI_PCKPOLARITY_RISING;
 1579              		.loc 1 298 26 is_stmt 0 view .LVU633
 1580 0008 0023     		movs	r3, #0
 1581 000a 4360     		str	r3, [r0, #4]
 299:Core/Src/main.c ****   hdcmi.Init.VSPolarity = DCMI_VSPOLARITY_HIGH;
 1582              		.loc 1 299 3 is_stmt 1 view .LVU634
 299:Core/Src/main.c ****   hdcmi.Init.VSPolarity = DCMI_VSPOLARITY_HIGH;
 1583              		.loc 1 299 26 is_stmt 0 view .LVU635
 1584 000c 2022     		movs	r2, #32
 1585 000e 8260     		str	r2, [r0, #8]
 300:Core/Src/main.c ****   hdcmi.Init.HSPolarity = DCMI_HSPOLARITY_HIGH;
 1586              		.loc 1 300 3 is_stmt 1 view .LVU636
 300:Core/Src/main.c ****   hdcmi.Init.HSPolarity = DCMI_HSPOLARITY_HIGH;
 1587              		.loc 1 300 25 is_stmt 0 view .LVU637
 1588 0010 8022     		movs	r2, #128
 1589 0012 C260     		str	r2, [r0, #12]
 301:Core/Src/main.c ****   hdcmi.Init.CaptureRate = DCMI_CR_ALL_FRAME;
 1590              		.loc 1 301 3 is_stmt 1 view .LVU638
 301:Core/Src/main.c ****   hdcmi.Init.CaptureRate = DCMI_CR_ALL_FRAME;
 1591              		.loc 1 301 25 is_stmt 0 view .LVU639
 1592 0014 4022     		movs	r2, #64
ARM GAS  /var/folders/fz/x0kldt2j7vs_j4slv3pyc44m0000gp/T//ccJSrhYz.s 			page 49


 1593 0016 0261     		str	r2, [r0, #16]
 302:Core/Src/main.c ****   hdcmi.Init.ExtendedDataMode = DCMI_EXTEND_DATA_8B;
 1594              		.loc 1 302 3 is_stmt 1 view .LVU640
 302:Core/Src/main.c ****   hdcmi.Init.ExtendedDataMode = DCMI_EXTEND_DATA_8B;
 1595              		.loc 1 302 26 is_stmt 0 view .LVU641
 1596 0018 4361     		str	r3, [r0, #20]
 303:Core/Src/main.c ****   hdcmi.Init.JPEGMode = DCMI_JPEG_ENABLE;
 1597              		.loc 1 303 3 is_stmt 1 view .LVU642
 303:Core/Src/main.c ****   hdcmi.Init.JPEGMode = DCMI_JPEG_ENABLE;
 1598              		.loc 1 303 31 is_stmt 0 view .LVU643
 1599 001a 8361     		str	r3, [r0, #24]
 304:Core/Src/main.c ****   hdcmi.Init.ByteSelectMode = DCMI_BSM_ALL;
 1600              		.loc 1 304 3 is_stmt 1 view .LVU644
 304:Core/Src/main.c ****   hdcmi.Init.ByteSelectMode = DCMI_BSM_ALL;
 1601              		.loc 1 304 23 is_stmt 0 view .LVU645
 1602 001c 0822     		movs	r2, #8
 1603 001e 0262     		str	r2, [r0, #32]
 305:Core/Src/main.c ****   hdcmi.Init.ByteSelectStart = DCMI_OEBS_ODD;
 1604              		.loc 1 305 3 is_stmt 1 view .LVU646
 305:Core/Src/main.c ****   hdcmi.Init.ByteSelectStart = DCMI_OEBS_ODD;
 1605              		.loc 1 305 29 is_stmt 0 view .LVU647
 1606 0020 4362     		str	r3, [r0, #36]
 306:Core/Src/main.c ****   hdcmi.Init.LineSelectMode = DCMI_LSM_ALL;
 1607              		.loc 1 306 3 is_stmt 1 view .LVU648
 306:Core/Src/main.c ****   hdcmi.Init.LineSelectMode = DCMI_LSM_ALL;
 1608              		.loc 1 306 30 is_stmt 0 view .LVU649
 1609 0022 8362     		str	r3, [r0, #40]
 307:Core/Src/main.c ****   hdcmi.Init.LineSelectStart = DCMI_OELS_ODD;
 1610              		.loc 1 307 3 is_stmt 1 view .LVU650
 307:Core/Src/main.c ****   hdcmi.Init.LineSelectStart = DCMI_OELS_ODD;
 1611              		.loc 1 307 29 is_stmt 0 view .LVU651
 1612 0024 C362     		str	r3, [r0, #44]
 308:Core/Src/main.c ****   if (HAL_DCMI_Init(&hdcmi) != HAL_OK)
 1613              		.loc 1 308 3 is_stmt 1 view .LVU652
 308:Core/Src/main.c ****   if (HAL_DCMI_Init(&hdcmi) != HAL_OK)
 1614              		.loc 1 308 30 is_stmt 0 view .LVU653
 1615 0026 0363     		str	r3, [r0, #48]
 309:Core/Src/main.c ****   {
 1616              		.loc 1 309 3 is_stmt 1 view .LVU654
 309:Core/Src/main.c ****   {
 1617              		.loc 1 309 7 is_stmt 0 view .LVU655
 1618 0028 FFF7FEFF 		bl	HAL_DCMI_Init
 1619              	.LVL67:
 309:Core/Src/main.c ****   {
 1620              		.loc 1 309 6 view .LVU656
 1621 002c 00B9     		cbnz	r0, .L37
 317:Core/Src/main.c **** 
 1622              		.loc 1 317 1 view .LVU657
 1623 002e 08BD     		pop	{r3, pc}
 1624              	.L37:
 311:Core/Src/main.c ****   }
 1625              		.loc 1 311 5 is_stmt 1 view .LVU658
 1626 0030 FFF7FEFF 		bl	Error_Handler
 1627              	.LVL68:
 1628              	.L39:
 1629              		.align	2
 1630              	.L38:
ARM GAS  /var/folders/fz/x0kldt2j7vs_j4slv3pyc44m0000gp/T//ccJSrhYz.s 			page 50


 1631 0034 00000000 		.word	hdcmi
 1632 0038 00000550 		.word	1342504960
 1633              		.cfi_endproc
 1634              	.LFE147:
 1636              		.section	.text.MX_USB_OTG_HS_PCD_Init,"ax",%progbits
 1637              		.align	1
 1638              		.syntax unified
 1639              		.thumb
 1640              		.thumb_func
 1642              	MX_USB_OTG_HS_PCD_Init:
 1643              	.LFB151:
 462:Core/Src/main.c **** 
 1644              		.loc 1 462 1 view -0
 1645              		.cfi_startproc
 1646              		@ args = 0, pretend = 0, frame = 0
 1647              		@ frame_needed = 0, uses_anonymous_args = 0
 1648 0000 08B5     		push	{r3, lr}
 1649              		.cfi_def_cfa_offset 8
 1650              		.cfi_offset 3, -8
 1651              		.cfi_offset 14, -4
 471:Core/Src/main.c ****   hpcd_USB_OTG_HS.Init.dev_endpoints = 8;
 1652              		.loc 1 471 3 view .LVU660
 471:Core/Src/main.c ****   hpcd_USB_OTG_HS.Init.dev_endpoints = 8;
 1653              		.loc 1 471 28 is_stmt 0 view .LVU661
 1654 0002 0B48     		ldr	r0, .L44
 1655 0004 0B4B     		ldr	r3, .L44+4
 1656 0006 0360     		str	r3, [r0]
 472:Core/Src/main.c ****   hpcd_USB_OTG_HS.Init.speed = PCD_SPEED_HIGH;
 1657              		.loc 1 472 3 is_stmt 1 view .LVU662
 472:Core/Src/main.c ****   hpcd_USB_OTG_HS.Init.speed = PCD_SPEED_HIGH;
 1658              		.loc 1 472 38 is_stmt 0 view .LVU663
 1659 0008 0823     		movs	r3, #8
 1660 000a 4360     		str	r3, [r0, #4]
 473:Core/Src/main.c ****   hpcd_USB_OTG_HS.Init.dma_enable = DISABLE;
 1661              		.loc 1 473 3 is_stmt 1 view .LVU664
 473:Core/Src/main.c ****   hpcd_USB_OTG_HS.Init.dma_enable = DISABLE;
 1662              		.loc 1 473 30 is_stmt 0 view .LVU665
 1663 000c 0023     		movs	r3, #0
 1664 000e C360     		str	r3, [r0, #12]
 474:Core/Src/main.c ****   hpcd_USB_OTG_HS.Init.phy_itface = USB_OTG_ULPI_PHY;
 1665              		.loc 1 474 3 is_stmt 1 view .LVU666
 474:Core/Src/main.c ****   hpcd_USB_OTG_HS.Init.phy_itface = USB_OTG_ULPI_PHY;
 1666              		.loc 1 474 35 is_stmt 0 view .LVU667
 1667 0010 0361     		str	r3, [r0, #16]
 475:Core/Src/main.c ****   hpcd_USB_OTG_HS.Init.Sof_enable = DISABLE;
 1668              		.loc 1 475 3 is_stmt 1 view .LVU668
 475:Core/Src/main.c ****   hpcd_USB_OTG_HS.Init.Sof_enable = DISABLE;
 1669              		.loc 1 475 35 is_stmt 0 view .LVU669
 1670 0012 0122     		movs	r2, #1
 1671 0014 8261     		str	r2, [r0, #24]
 476:Core/Src/main.c ****   hpcd_USB_OTG_HS.Init.low_power_enable = DISABLE;
 1672              		.loc 1 476 3 is_stmt 1 view .LVU670
 476:Core/Src/main.c ****   hpcd_USB_OTG_HS.Init.low_power_enable = DISABLE;
 1673              		.loc 1 476 35 is_stmt 0 view .LVU671
 1674 0016 C361     		str	r3, [r0, #28]
 477:Core/Src/main.c ****   hpcd_USB_OTG_HS.Init.lpm_enable = DISABLE;
 1675              		.loc 1 477 3 is_stmt 1 view .LVU672
ARM GAS  /var/folders/fz/x0kldt2j7vs_j4slv3pyc44m0000gp/T//ccJSrhYz.s 			page 51


 477:Core/Src/main.c ****   hpcd_USB_OTG_HS.Init.lpm_enable = DISABLE;
 1676              		.loc 1 477 41 is_stmt 0 view .LVU673
 1677 0018 0362     		str	r3, [r0, #32]
 478:Core/Src/main.c ****   hpcd_USB_OTG_HS.Init.vbus_sensing_enable = DISABLE;
 1678              		.loc 1 478 3 is_stmt 1 view .LVU674
 478:Core/Src/main.c ****   hpcd_USB_OTG_HS.Init.vbus_sensing_enable = DISABLE;
 1679              		.loc 1 478 35 is_stmt 0 view .LVU675
 1680 001a 4362     		str	r3, [r0, #36]
 479:Core/Src/main.c ****   hpcd_USB_OTG_HS.Init.use_dedicated_ep1 = DISABLE;
 1681              		.loc 1 479 3 is_stmt 1 view .LVU676
 479:Core/Src/main.c ****   hpcd_USB_OTG_HS.Init.use_dedicated_ep1 = DISABLE;
 1682              		.loc 1 479 44 is_stmt 0 view .LVU677
 1683 001c C362     		str	r3, [r0, #44]
 480:Core/Src/main.c ****   hpcd_USB_OTG_HS.Init.use_external_vbus = DISABLE;
 1684              		.loc 1 480 3 is_stmt 1 view .LVU678
 480:Core/Src/main.c ****   hpcd_USB_OTG_HS.Init.use_external_vbus = DISABLE;
 1685              		.loc 1 480 42 is_stmt 0 view .LVU679
 1686 001e 0363     		str	r3, [r0, #48]
 481:Core/Src/main.c ****   if (HAL_PCD_Init(&hpcd_USB_OTG_HS) != HAL_OK)
 1687              		.loc 1 481 3 is_stmt 1 view .LVU680
 481:Core/Src/main.c ****   if (HAL_PCD_Init(&hpcd_USB_OTG_HS) != HAL_OK)
 1688              		.loc 1 481 42 is_stmt 0 view .LVU681
 1689 0020 4363     		str	r3, [r0, #52]
 482:Core/Src/main.c ****   {
 1690              		.loc 1 482 3 is_stmt 1 view .LVU682
 482:Core/Src/main.c ****   {
 1691              		.loc 1 482 7 is_stmt 0 view .LVU683
 1692 0022 FFF7FEFF 		bl	HAL_PCD_Init
 1693              	.LVL69:
 482:Core/Src/main.c ****   {
 1694              		.loc 1 482 6 view .LVU684
 1695 0026 00B9     		cbnz	r0, .L43
 490:Core/Src/main.c **** 
 1696              		.loc 1 490 1 view .LVU685
 1697 0028 08BD     		pop	{r3, pc}
 1698              	.L43:
 484:Core/Src/main.c ****   }
 1699              		.loc 1 484 5 is_stmt 1 view .LVU686
 1700 002a FFF7FEFF 		bl	Error_Handler
 1701              	.LVL70:
 1702              	.L45:
 1703 002e 00BF     		.align	2
 1704              	.L44:
 1705 0030 00000000 		.word	hpcd_USB_OTG_HS
 1706 0034 00000440 		.word	1074003968
 1707              		.cfi_endproc
 1708              	.LFE151:
 1710              		.section	.text.MX_TIM3_Init,"ax",%progbits
 1711              		.align	1
 1712              		.syntax unified
 1713              		.thumb
 1714              		.thumb_func
 1716              	MX_TIM3_Init:
 1717              	.LFB150:
 403:Core/Src/main.c **** 
 1718              		.loc 1 403 1 view -0
 1719              		.cfi_startproc
ARM GAS  /var/folders/fz/x0kldt2j7vs_j4slv3pyc44m0000gp/T//ccJSrhYz.s 			page 52


 1720              		@ args = 0, pretend = 0, frame = 56
 1721              		@ frame_needed = 0, uses_anonymous_args = 0
 1722 0000 00B5     		push	{lr}
 1723              		.cfi_def_cfa_offset 4
 1724              		.cfi_offset 14, -4
 1725 0002 8FB0     		sub	sp, sp, #60
 1726              		.cfi_def_cfa_offset 64
 409:Core/Src/main.c ****   TIM_MasterConfigTypeDef sMasterConfig = {0};
 1727              		.loc 1 409 3 view .LVU688
 409:Core/Src/main.c ****   TIM_MasterConfigTypeDef sMasterConfig = {0};
 1728              		.loc 1 409 26 is_stmt 0 view .LVU689
 1729 0004 0023     		movs	r3, #0
 1730 0006 0A93     		str	r3, [sp, #40]
 1731 0008 0B93     		str	r3, [sp, #44]
 1732 000a 0C93     		str	r3, [sp, #48]
 1733 000c 0D93     		str	r3, [sp, #52]
 410:Core/Src/main.c ****   TIM_OC_InitTypeDef sConfigOC = {0};
 1734              		.loc 1 410 3 is_stmt 1 view .LVU690
 410:Core/Src/main.c ****   TIM_OC_InitTypeDef sConfigOC = {0};
 1735              		.loc 1 410 27 is_stmt 0 view .LVU691
 1736 000e 0793     		str	r3, [sp, #28]
 1737 0010 0893     		str	r3, [sp, #32]
 1738 0012 0993     		str	r3, [sp, #36]
 411:Core/Src/main.c **** 
 1739              		.loc 1 411 3 is_stmt 1 view .LVU692
 411:Core/Src/main.c **** 
 1740              		.loc 1 411 22 is_stmt 0 view .LVU693
 1741 0014 0093     		str	r3, [sp]
 1742 0016 0193     		str	r3, [sp, #4]
 1743 0018 0293     		str	r3, [sp, #8]
 1744 001a 0393     		str	r3, [sp, #12]
 1745 001c 0493     		str	r3, [sp, #16]
 1746 001e 0593     		str	r3, [sp, #20]
 1747 0020 0693     		str	r3, [sp, #24]
 416:Core/Src/main.c ****   htim3.Init.Prescaler = 9999;
 1748              		.loc 1 416 3 is_stmt 1 view .LVU694
 416:Core/Src/main.c ****   htim3.Init.Prescaler = 9999;
 1749              		.loc 1 416 18 is_stmt 0 view .LVU695
 1750 0022 1F48     		ldr	r0, .L58
 1751 0024 1F4A     		ldr	r2, .L58+4
 1752 0026 0260     		str	r2, [r0]
 417:Core/Src/main.c ****   htim3.Init.CounterMode = TIM_COUNTERMODE_UP;
 1753              		.loc 1 417 3 is_stmt 1 view .LVU696
 417:Core/Src/main.c ****   htim3.Init.CounterMode = TIM_COUNTERMODE_UP;
 1754              		.loc 1 417 24 is_stmt 0 view .LVU697
 1755 0028 42F20F72 		movw	r2, #9999
 1756 002c 4260     		str	r2, [r0, #4]
 418:Core/Src/main.c ****   htim3.Init.Period = 10000;
 1757              		.loc 1 418 3 is_stmt 1 view .LVU698
 418:Core/Src/main.c ****   htim3.Init.Period = 10000;
 1758              		.loc 1 418 26 is_stmt 0 view .LVU699
 1759 002e 8360     		str	r3, [r0, #8]
 419:Core/Src/main.c ****   htim3.Init.ClockDivision = TIM_CLOCKDIVISION_DIV1;
 1760              		.loc 1 419 3 is_stmt 1 view .LVU700
 419:Core/Src/main.c ****   htim3.Init.ClockDivision = TIM_CLOCKDIVISION_DIV1;
 1761              		.loc 1 419 21 is_stmt 0 view .LVU701
 1762 0030 42F21072 		movw	r2, #10000
ARM GAS  /var/folders/fz/x0kldt2j7vs_j4slv3pyc44m0000gp/T//ccJSrhYz.s 			page 53


 1763 0034 C260     		str	r2, [r0, #12]
 420:Core/Src/main.c ****   htim3.Init.AutoReloadPreload = TIM_AUTORELOAD_PRELOAD_DISABLE;
 1764              		.loc 1 420 3 is_stmt 1 view .LVU702
 420:Core/Src/main.c ****   htim3.Init.AutoReloadPreload = TIM_AUTORELOAD_PRELOAD_DISABLE;
 1765              		.loc 1 420 28 is_stmt 0 view .LVU703
 1766 0036 0361     		str	r3, [r0, #16]
 421:Core/Src/main.c ****   if (HAL_TIM_Base_Init(&htim3) != HAL_OK)
 1767              		.loc 1 421 3 is_stmt 1 view .LVU704
 421:Core/Src/main.c ****   if (HAL_TIM_Base_Init(&htim3) != HAL_OK)
 1768              		.loc 1 421 32 is_stmt 0 view .LVU705
 1769 0038 8361     		str	r3, [r0, #24]
 422:Core/Src/main.c ****   {
 1770              		.loc 1 422 3 is_stmt 1 view .LVU706
 422:Core/Src/main.c ****   {
 1771              		.loc 1 422 7 is_stmt 0 view .LVU707
 1772 003a FFF7FEFF 		bl	HAL_TIM_Base_Init
 1773              	.LVL71:
 422:Core/Src/main.c ****   {
 1774              		.loc 1 422 6 view .LVU708
 1775 003e 20BB     		cbnz	r0, .L53
 426:Core/Src/main.c ****   if (HAL_TIM_ConfigClockSource(&htim3, &sClockSourceConfig) != HAL_OK)
 1776              		.loc 1 426 3 is_stmt 1 view .LVU709
 426:Core/Src/main.c ****   if (HAL_TIM_ConfigClockSource(&htim3, &sClockSourceConfig) != HAL_OK)
 1777              		.loc 1 426 34 is_stmt 0 view .LVU710
 1778 0040 4FF48053 		mov	r3, #4096
 1779 0044 0A93     		str	r3, [sp, #40]
 427:Core/Src/main.c ****   {
 1780              		.loc 1 427 3 is_stmt 1 view .LVU711
 427:Core/Src/main.c ****   {
 1781              		.loc 1 427 7 is_stmt 0 view .LVU712
 1782 0046 0AA9     		add	r1, sp, #40
 1783 0048 1548     		ldr	r0, .L58
 1784 004a FFF7FEFF 		bl	HAL_TIM_ConfigClockSource
 1785              	.LVL72:
 427:Core/Src/main.c ****   {
 1786              		.loc 1 427 6 view .LVU713
 1787 004e F0B9     		cbnz	r0, .L54
 431:Core/Src/main.c ****   {
 1788              		.loc 1 431 3 is_stmt 1 view .LVU714
 431:Core/Src/main.c ****   {
 1789              		.loc 1 431 7 is_stmt 0 view .LVU715
 1790 0050 1348     		ldr	r0, .L58
 1791 0052 FFF7FEFF 		bl	HAL_TIM_PWM_Init
 1792              	.LVL73:
 431:Core/Src/main.c ****   {
 1793              		.loc 1 431 6 view .LVU716
 1794 0056 E0B9     		cbnz	r0, .L55
 435:Core/Src/main.c ****   sMasterConfig.MasterSlaveMode = TIM_MASTERSLAVEMODE_DISABLE;
 1795              		.loc 1 435 3 is_stmt 1 view .LVU717
 435:Core/Src/main.c ****   sMasterConfig.MasterSlaveMode = TIM_MASTERSLAVEMODE_DISABLE;
 1796              		.loc 1 435 37 is_stmt 0 view .LVU718
 1797 0058 0023     		movs	r3, #0
 1798 005a 0793     		str	r3, [sp, #28]
 436:Core/Src/main.c ****   if (HAL_TIMEx_MasterConfigSynchronization(&htim3, &sMasterConfig) != HAL_OK)
 1799              		.loc 1 436 3 is_stmt 1 view .LVU719
 436:Core/Src/main.c ****   if (HAL_TIMEx_MasterConfigSynchronization(&htim3, &sMasterConfig) != HAL_OK)
 1800              		.loc 1 436 33 is_stmt 0 view .LVU720
ARM GAS  /var/folders/fz/x0kldt2j7vs_j4slv3pyc44m0000gp/T//ccJSrhYz.s 			page 54


 1801 005c 0993     		str	r3, [sp, #36]
 437:Core/Src/main.c ****   {
 1802              		.loc 1 437 3 is_stmt 1 view .LVU721
 437:Core/Src/main.c ****   {
 1803              		.loc 1 437 7 is_stmt 0 view .LVU722
 1804 005e 07A9     		add	r1, sp, #28
 1805 0060 0F48     		ldr	r0, .L58
 1806 0062 FFF7FEFF 		bl	HAL_TIMEx_MasterConfigSynchronization
 1807              	.LVL74:
 437:Core/Src/main.c ****   {
 1808              		.loc 1 437 6 view .LVU723
 1809 0066 B0B9     		cbnz	r0, .L56
 441:Core/Src/main.c ****   sConfigOC.Pulse = 0;
 1810              		.loc 1 441 3 is_stmt 1 view .LVU724
 441:Core/Src/main.c ****   sConfigOC.Pulse = 0;
 1811              		.loc 1 441 20 is_stmt 0 view .LVU725
 1812 0068 6023     		movs	r3, #96
 1813 006a 0093     		str	r3, [sp]
 442:Core/Src/main.c ****   sConfigOC.OCPolarity = TIM_OCPOLARITY_HIGH;
 1814              		.loc 1 442 3 is_stmt 1 view .LVU726
 442:Core/Src/main.c ****   sConfigOC.OCPolarity = TIM_OCPOLARITY_HIGH;
 1815              		.loc 1 442 19 is_stmt 0 view .LVU727
 1816 006c 0022     		movs	r2, #0
 1817 006e 0192     		str	r2, [sp, #4]
 443:Core/Src/main.c ****   sConfigOC.OCFastMode = TIM_OCFAST_DISABLE;
 1818              		.loc 1 443 3 is_stmt 1 view .LVU728
 443:Core/Src/main.c ****   sConfigOC.OCFastMode = TIM_OCFAST_DISABLE;
 1819              		.loc 1 443 24 is_stmt 0 view .LVU729
 1820 0070 0292     		str	r2, [sp, #8]
 444:Core/Src/main.c ****   if (HAL_TIM_PWM_ConfigChannel(&htim3, &sConfigOC, TIM_CHANNEL_1) != HAL_OK)
 1821              		.loc 1 444 3 is_stmt 1 view .LVU730
 444:Core/Src/main.c ****   if (HAL_TIM_PWM_ConfigChannel(&htim3, &sConfigOC, TIM_CHANNEL_1) != HAL_OK)
 1822              		.loc 1 444 24 is_stmt 0 view .LVU731
 1823 0072 0492     		str	r2, [sp, #16]
 445:Core/Src/main.c ****   {
 1824              		.loc 1 445 3 is_stmt 1 view .LVU732
 445:Core/Src/main.c ****   {
 1825              		.loc 1 445 7 is_stmt 0 view .LVU733
 1826 0074 6946     		mov	r1, sp
 1827 0076 0A48     		ldr	r0, .L58
 1828 0078 FFF7FEFF 		bl	HAL_TIM_PWM_ConfigChannel
 1829              	.LVL75:
 445:Core/Src/main.c ****   {
 1830              		.loc 1 445 6 view .LVU734
 1831 007c 68B9     		cbnz	r0, .L57
 452:Core/Src/main.c **** 
 1832              		.loc 1 452 3 is_stmt 1 view .LVU735
 1833 007e 0848     		ldr	r0, .L58
 1834 0080 FFF7FEFF 		bl	HAL_TIM_MspPostInit
 1835              	.LVL76:
 454:Core/Src/main.c **** 
 1836              		.loc 1 454 1 is_stmt 0 view .LVU736
 1837 0084 0FB0     		add	sp, sp, #60
 1838              		.cfi_remember_state
 1839              		.cfi_def_cfa_offset 4
 1840              		@ sp needed
 1841 0086 5DF804FB 		ldr	pc, [sp], #4
ARM GAS  /var/folders/fz/x0kldt2j7vs_j4slv3pyc44m0000gp/T//ccJSrhYz.s 			page 55


 1842              	.L53:
 1843              		.cfi_restore_state
 424:Core/Src/main.c ****   }
 1844              		.loc 1 424 5 is_stmt 1 view .LVU737
 1845 008a FFF7FEFF 		bl	Error_Handler
 1846              	.LVL77:
 1847              	.L54:
 429:Core/Src/main.c ****   }
 1848              		.loc 1 429 5 view .LVU738
 1849 008e FFF7FEFF 		bl	Error_Handler
 1850              	.LVL78:
 1851              	.L55:
 433:Core/Src/main.c ****   }
 1852              		.loc 1 433 5 view .LVU739
 1853 0092 FFF7FEFF 		bl	Error_Handler
 1854              	.LVL79:
 1855              	.L56:
 439:Core/Src/main.c ****   }
 1856              		.loc 1 439 5 view .LVU740
 1857 0096 FFF7FEFF 		bl	Error_Handler
 1858              	.LVL80:
 1859              	.L57:
 447:Core/Src/main.c ****   }
 1860              		.loc 1 447 5 view .LVU741
 1861 009a FFF7FEFF 		bl	Error_Handler
 1862              	.LVL81:
 1863              	.L59:
 1864 009e 00BF     		.align	2
 1865              	.L58:
 1866 00a0 00000000 		.word	htim3
 1867 00a4 00040040 		.word	1073742848
 1868              		.cfi_endproc
 1869              	.LFE150:
 1871              		.section	.text.SystemClock_Config,"ax",%progbits
 1872              		.align	1
 1873              		.global	SystemClock_Config
 1874              		.syntax unified
 1875              		.thumb
 1876              		.thumb_func
 1878              	SystemClock_Config:
 1879              	.LFB146:
 235:Core/Src/main.c ****   RCC_OscInitTypeDef RCC_OscInitStruct = {0};
 1880              		.loc 1 235 1 view -0
 1881              		.cfi_startproc
 1882              		@ args = 0, pretend = 0, frame = 80
 1883              		@ frame_needed = 0, uses_anonymous_args = 0
 1884 0000 00B5     		push	{lr}
 1885              		.cfi_def_cfa_offset 4
 1886              		.cfi_offset 14, -4
 1887 0002 95B0     		sub	sp, sp, #84
 1888              		.cfi_def_cfa_offset 88
 236:Core/Src/main.c ****   RCC_ClkInitTypeDef RCC_ClkInitStruct = {0};
 1889              		.loc 1 236 3 view .LVU743
 236:Core/Src/main.c ****   RCC_ClkInitTypeDef RCC_ClkInitStruct = {0};
 1890              		.loc 1 236 22 is_stmt 0 view .LVU744
 1891 0004 3022     		movs	r2, #48
 1892 0006 0021     		movs	r1, #0
ARM GAS  /var/folders/fz/x0kldt2j7vs_j4slv3pyc44m0000gp/T//ccJSrhYz.s 			page 56


 1893 0008 08A8     		add	r0, sp, #32
 1894 000a FFF7FEFF 		bl	memset
 1895              	.LVL82:
 237:Core/Src/main.c **** 
 1896              		.loc 1 237 3 is_stmt 1 view .LVU745
 237:Core/Src/main.c **** 
 1897              		.loc 1 237 22 is_stmt 0 view .LVU746
 1898 000e 0023     		movs	r3, #0
 1899 0010 0393     		str	r3, [sp, #12]
 1900 0012 0493     		str	r3, [sp, #16]
 1901 0014 0593     		str	r3, [sp, #20]
 1902 0016 0693     		str	r3, [sp, #24]
 1903 0018 0793     		str	r3, [sp, #28]
 241:Core/Src/main.c ****   __HAL_PWR_VOLTAGESCALING_CONFIG(PWR_REGULATOR_VOLTAGE_SCALE1);
 1904              		.loc 1 241 3 is_stmt 1 view .LVU747
 1905              	.LBB20:
 241:Core/Src/main.c ****   __HAL_PWR_VOLTAGESCALING_CONFIG(PWR_REGULATOR_VOLTAGE_SCALE1);
 1906              		.loc 1 241 3 view .LVU748
 241:Core/Src/main.c ****   __HAL_PWR_VOLTAGESCALING_CONFIG(PWR_REGULATOR_VOLTAGE_SCALE1);
 1907              		.loc 1 241 3 view .LVU749
 1908 001a 234B     		ldr	r3, .L68
 1909 001c 1A6C     		ldr	r2, [r3, #64]
 1910 001e 42F08052 		orr	r2, r2, #268435456
 1911 0022 1A64     		str	r2, [r3, #64]
 241:Core/Src/main.c ****   __HAL_PWR_VOLTAGESCALING_CONFIG(PWR_REGULATOR_VOLTAGE_SCALE1);
 1912              		.loc 1 241 3 view .LVU750
 1913 0024 1B6C     		ldr	r3, [r3, #64]
 1914 0026 03F08053 		and	r3, r3, #268435456
 1915 002a 0193     		str	r3, [sp, #4]
 241:Core/Src/main.c ****   __HAL_PWR_VOLTAGESCALING_CONFIG(PWR_REGULATOR_VOLTAGE_SCALE1);
 1916              		.loc 1 241 3 view .LVU751
 1917 002c 019B     		ldr	r3, [sp, #4]
 1918              	.LBE20:
 241:Core/Src/main.c ****   __HAL_PWR_VOLTAGESCALING_CONFIG(PWR_REGULATOR_VOLTAGE_SCALE1);
 1919              		.loc 1 241 3 view .LVU752
 242:Core/Src/main.c **** 
 1920              		.loc 1 242 3 view .LVU753
 1921              	.LBB21:
 242:Core/Src/main.c **** 
 1922              		.loc 1 242 3 view .LVU754
 242:Core/Src/main.c **** 
 1923              		.loc 1 242 3 view .LVU755
 1924 002e 1F4B     		ldr	r3, .L68+4
 1925 0030 1A68     		ldr	r2, [r3]
 1926 0032 42F44042 		orr	r2, r2, #49152
 1927 0036 1A60     		str	r2, [r3]
 242:Core/Src/main.c **** 
 1928              		.loc 1 242 3 view .LVU756
 1929 0038 1B68     		ldr	r3, [r3]
 1930 003a 03F44043 		and	r3, r3, #49152
 1931 003e 0293     		str	r3, [sp, #8]
 242:Core/Src/main.c **** 
 1932              		.loc 1 242 3 view .LVU757
 1933 0040 029B     		ldr	r3, [sp, #8]
 1934              	.LBE21:
 242:Core/Src/main.c **** 
 1935              		.loc 1 242 3 view .LVU758
ARM GAS  /var/folders/fz/x0kldt2j7vs_j4slv3pyc44m0000gp/T//ccJSrhYz.s 			page 57


 247:Core/Src/main.c ****   RCC_OscInitStruct.HSEState = RCC_HSE_ON;
 1936              		.loc 1 247 3 view .LVU759
 247:Core/Src/main.c ****   RCC_OscInitStruct.HSEState = RCC_HSE_ON;
 1937              		.loc 1 247 36 is_stmt 0 view .LVU760
 1938 0042 0123     		movs	r3, #1
 1939 0044 0893     		str	r3, [sp, #32]
 248:Core/Src/main.c ****   RCC_OscInitStruct.PLL.PLLState = RCC_PLL_ON;
 1940              		.loc 1 248 3 is_stmt 1 view .LVU761
 248:Core/Src/main.c ****   RCC_OscInitStruct.PLL.PLLState = RCC_PLL_ON;
 1941              		.loc 1 248 30 is_stmt 0 view .LVU762
 1942 0046 4FF48033 		mov	r3, #65536
 1943 004a 0993     		str	r3, [sp, #36]
 249:Core/Src/main.c ****   RCC_OscInitStruct.PLL.PLLSource = RCC_PLLSOURCE_HSE;
 1944              		.loc 1 249 3 is_stmt 1 view .LVU763
 249:Core/Src/main.c ****   RCC_OscInitStruct.PLL.PLLSource = RCC_PLLSOURCE_HSE;
 1945              		.loc 1 249 34 is_stmt 0 view .LVU764
 1946 004c 0223     		movs	r3, #2
 1947 004e 0E93     		str	r3, [sp, #56]
 250:Core/Src/main.c ****   RCC_OscInitStruct.PLL.PLLM = 12;
 1948              		.loc 1 250 3 is_stmt 1 view .LVU765
 250:Core/Src/main.c ****   RCC_OscInitStruct.PLL.PLLM = 12;
 1949              		.loc 1 250 35 is_stmt 0 view .LVU766
 1950 0050 4FF48002 		mov	r2, #4194304
 1951 0054 0F92     		str	r2, [sp, #60]
 251:Core/Src/main.c ****   RCC_OscInitStruct.PLL.PLLN = 192;
 1952              		.loc 1 251 3 is_stmt 1 view .LVU767
 251:Core/Src/main.c ****   RCC_OscInitStruct.PLL.PLLN = 192;
 1953              		.loc 1 251 30 is_stmt 0 view .LVU768
 1954 0056 0C22     		movs	r2, #12
 1955 0058 1092     		str	r2, [sp, #64]
 252:Core/Src/main.c ****   RCC_OscInitStruct.PLL.PLLP = RCC_PLLP_DIV2;
 1956              		.loc 1 252 3 is_stmt 1 view .LVU769
 252:Core/Src/main.c ****   RCC_OscInitStruct.PLL.PLLP = RCC_PLLP_DIV2;
 1957              		.loc 1 252 30 is_stmt 0 view .LVU770
 1958 005a C022     		movs	r2, #192
 1959 005c 1192     		str	r2, [sp, #68]
 253:Core/Src/main.c ****   RCC_OscInitStruct.PLL.PLLQ = 8;
 1960              		.loc 1 253 3 is_stmt 1 view .LVU771
 253:Core/Src/main.c ****   RCC_OscInitStruct.PLL.PLLQ = 8;
 1961              		.loc 1 253 30 is_stmt 0 view .LVU772
 1962 005e 1293     		str	r3, [sp, #72]
 254:Core/Src/main.c ****   if (HAL_RCC_OscConfig(&RCC_OscInitStruct) != HAL_OK)
 1963              		.loc 1 254 3 is_stmt 1 view .LVU773
 254:Core/Src/main.c ****   if (HAL_RCC_OscConfig(&RCC_OscInitStruct) != HAL_OK)
 1964              		.loc 1 254 30 is_stmt 0 view .LVU774
 1965 0060 0823     		movs	r3, #8
 1966 0062 1393     		str	r3, [sp, #76]
 255:Core/Src/main.c ****   {
 1967              		.loc 1 255 3 is_stmt 1 view .LVU775
 255:Core/Src/main.c ****   {
 1968              		.loc 1 255 7 is_stmt 0 view .LVU776
 1969 0064 08A8     		add	r0, sp, #32
 1970 0066 FFF7FEFF 		bl	HAL_RCC_OscConfig
 1971              	.LVL83:
 255:Core/Src/main.c ****   {
 1972              		.loc 1 255 6 view .LVU777
 1973 006a B0B9     		cbnz	r0, .L65
ARM GAS  /var/folders/fz/x0kldt2j7vs_j4slv3pyc44m0000gp/T//ccJSrhYz.s 			page 58


 262:Core/Src/main.c ****   {
 1974              		.loc 1 262 3 is_stmt 1 view .LVU778
 262:Core/Src/main.c ****   {
 1975              		.loc 1 262 7 is_stmt 0 view .LVU779
 1976 006c FFF7FEFF 		bl	HAL_PWREx_EnableOverDrive
 1977              	.LVL84:
 262:Core/Src/main.c ****   {
 1978              		.loc 1 262 6 view .LVU780
 1979 0070 A8B9     		cbnz	r0, .L66
 269:Core/Src/main.c ****                               |RCC_CLOCKTYPE_PCLK1|RCC_CLOCKTYPE_PCLK2;
 1980              		.loc 1 269 3 is_stmt 1 view .LVU781
 269:Core/Src/main.c ****                               |RCC_CLOCKTYPE_PCLK1|RCC_CLOCKTYPE_PCLK2;
 1981              		.loc 1 269 31 is_stmt 0 view .LVU782
 1982 0072 0F23     		movs	r3, #15
 1983 0074 0393     		str	r3, [sp, #12]
 271:Core/Src/main.c ****   RCC_ClkInitStruct.AHBCLKDivider = RCC_SYSCLK_DIV1;
 1984              		.loc 1 271 3 is_stmt 1 view .LVU783
 271:Core/Src/main.c ****   RCC_ClkInitStruct.AHBCLKDivider = RCC_SYSCLK_DIV1;
 1985              		.loc 1 271 34 is_stmt 0 view .LVU784
 1986 0076 0223     		movs	r3, #2
 1987 0078 0493     		str	r3, [sp, #16]
 272:Core/Src/main.c ****   RCC_ClkInitStruct.APB1CLKDivider = RCC_HCLK_DIV4;
 1988              		.loc 1 272 3 is_stmt 1 view .LVU785
 272:Core/Src/main.c ****   RCC_ClkInitStruct.APB1CLKDivider = RCC_HCLK_DIV4;
 1989              		.loc 1 272 35 is_stmt 0 view .LVU786
 1990 007a 0023     		movs	r3, #0
 1991 007c 0593     		str	r3, [sp, #20]
 273:Core/Src/main.c ****   RCC_ClkInitStruct.APB2CLKDivider = RCC_HCLK_DIV2;
 1992              		.loc 1 273 3 is_stmt 1 view .LVU787
 273:Core/Src/main.c ****   RCC_ClkInitStruct.APB2CLKDivider = RCC_HCLK_DIV2;
 1993              		.loc 1 273 36 is_stmt 0 view .LVU788
 1994 007e 4FF4A053 		mov	r3, #5120
 1995 0082 0693     		str	r3, [sp, #24]
 274:Core/Src/main.c **** 
 1996              		.loc 1 274 3 is_stmt 1 view .LVU789
 274:Core/Src/main.c **** 
 1997              		.loc 1 274 36 is_stmt 0 view .LVU790
 1998 0084 4FF48053 		mov	r3, #4096
 1999 0088 0793     		str	r3, [sp, #28]
 276:Core/Src/main.c ****   {
 2000              		.loc 1 276 3 is_stmt 1 view .LVU791
 276:Core/Src/main.c ****   {
 2001              		.loc 1 276 7 is_stmt 0 view .LVU792
 2002 008a 0621     		movs	r1, #6
 2003 008c 03A8     		add	r0, sp, #12
 2004 008e FFF7FEFF 		bl	HAL_RCC_ClockConfig
 2005              	.LVL85:
 276:Core/Src/main.c ****   {
 2006              		.loc 1 276 6 view .LVU793
 2007 0092 30B9     		cbnz	r0, .L67
 280:Core/Src/main.c **** 
 2008              		.loc 1 280 1 view .LVU794
 2009 0094 15B0     		add	sp, sp, #84
 2010              		.cfi_remember_state
 2011              		.cfi_def_cfa_offset 4
 2012              		@ sp needed
 2013 0096 5DF804FB 		ldr	pc, [sp], #4
ARM GAS  /var/folders/fz/x0kldt2j7vs_j4slv3pyc44m0000gp/T//ccJSrhYz.s 			page 59


 2014              	.L65:
 2015              		.cfi_restore_state
 257:Core/Src/main.c ****   }
 2016              		.loc 1 257 5 is_stmt 1 view .LVU795
 2017 009a FFF7FEFF 		bl	Error_Handler
 2018              	.LVL86:
 2019              	.L66:
 264:Core/Src/main.c ****   }
 2020              		.loc 1 264 5 view .LVU796
 2021 009e FFF7FEFF 		bl	Error_Handler
 2022              	.LVL87:
 2023              	.L67:
 278:Core/Src/main.c ****   }
 2024              		.loc 1 278 5 view .LVU797
 2025 00a2 FFF7FEFF 		bl	Error_Handler
 2026              	.LVL88:
 2027              	.L69:
 2028 00a6 00BF     		.align	2
 2029              	.L68:
 2030 00a8 00380240 		.word	1073887232
 2031 00ac 00700040 		.word	1073770496
 2032              		.cfi_endproc
 2033              	.LFE146:
 2035              		.section	.rodata.main.str1.4,"aMS",%progbits,1
 2036              		.align	2
 2037              	.LC0:
 2038 0000 6661696C 		.ascii	"failed to mount card, code: %i.\012\000"
 2038      65642074 
 2038      6F206D6F 
 2038      756E7420 
 2038      63617264 
 2039 0021 000000   		.align	2
 2040              	.LC1:
 2041 0024 65786974 		.ascii	"exiting.\000"
 2041      696E672E 
 2041      00
 2042 002d 000000   		.align	2
 2043              	.LC2:
 2044 0030 636F6E74 		.ascii	"continuing.\000"
 2044      696E7569 
 2044      6E672E00 
 2045              		.align	2
 2046              	.LC3:
 2047 003c 33383835 		.ascii	"3885.mp4\000"
 2047      2E6D7034 
 2047      00
 2048 0045 000000   		.align	2
 2049              	.LC4:
 2050 0048 6661696C 		.ascii	"failed to open file, code: %i.\012\000"
 2050      65642074 
 2050      6F206F70 
 2050      656E2066 
 2050      696C652C 
 2051              		.section	.text.main,"ax",%progbits
 2052              		.align	1
 2053              		.global	main
 2054              		.syntax unified
ARM GAS  /var/folders/fz/x0kldt2j7vs_j4slv3pyc44m0000gp/T//ccJSrhYz.s 			page 60


 2055              		.thumb
 2056              		.thumb_func
 2058              	main:
 2059              	.LFB145:
 136:Core/Src/main.c ****   /* USER CODE BEGIN 1 */
 2060              		.loc 1 136 1 view -0
 2061              		.cfi_startproc
 2062              		@ Volatile: function does not return.
 2063              		@ args = 0, pretend = 0, frame = 8
 2064              		@ frame_needed = 0, uses_anonymous_args = 0
 2065 0000 00B5     		push	{lr}
 2066              		.cfi_def_cfa_offset 4
 2067              		.cfi_offset 14, -4
 2068 0002 87B0     		sub	sp, sp, #28
 2069              		.cfi_def_cfa_offset 32
 144:Core/Src/main.c **** 
 2070              		.loc 1 144 3 view .LVU799
 2071 0004 FFF7FEFF 		bl	HAL_Init
 2072              	.LVL89:
 151:Core/Src/main.c **** 
 2073              		.loc 1 151 3 view .LVU800
 2074 0008 FFF7FEFF 		bl	SystemClock_Config
 2075              	.LVL90:
 158:Core/Src/main.c ****   MX_DMA_Init();
 2076              		.loc 1 158 3 view .LVU801
 2077 000c FFF7FEFF 		bl	MX_GPIO_Init
 2078              	.LVL91:
 159:Core/Src/main.c ****   MX_I2C1_Init();
 2079              		.loc 1 159 3 view .LVU802
 2080 0010 FFF7FEFF 		bl	MX_DMA_Init
 2081              	.LVL92:
 160:Core/Src/main.c ****   MX_DCMI_Init();
 2082              		.loc 1 160 3 view .LVU803
 2083 0014 FFF7FEFF 		bl	MX_I2C1_Init
 2084              	.LVL93:
 161:Core/Src/main.c ****   MX_USB_OTG_HS_PCD_Init();
 2085              		.loc 1 161 3 view .LVU804
 2086 0018 FFF7FEFF 		bl	MX_DCMI_Init
 2087              	.LVL94:
 162:Core/Src/main.c ****   MX_FATFS_Init();
 2088              		.loc 1 162 3 view .LVU805
 2089 001c FFF7FEFF 		bl	MX_USB_OTG_HS_PCD_Init
 2090              	.LVL95:
 163:Core/Src/main.c ****   MX_SDMMC1_SD_Init();
 2091              		.loc 1 163 3 view .LVU806
 2092 0020 FFF7FEFF 		bl	MX_FATFS_Init
 2093              	.LVL96:
 164:Core/Src/main.c ****   MX_TIM3_Init();
 2094              		.loc 1 164 3 view .LVU807
 2095 0024 FFF7FEFF 		bl	MX_SDMMC1_SD_Init
 2096              	.LVL97:
 165:Core/Src/main.c ****   /* USER CODE BEGIN 2 */
 2097              		.loc 1 165 3 view .LVU808
 2098 0028 FFF7FEFF 		bl	MX_TIM3_Init
 2099              	.LVL98:
 168:Core/Src/main.c ****   {
 2100              		.loc 1 168 5 view .LVU809
ARM GAS  /var/folders/fz/x0kldt2j7vs_j4slv3pyc44m0000gp/T//ccJSrhYz.s 			page 61


 168:Core/Src/main.c ****   {
 2101              		.loc 1 168 9 is_stmt 0 view .LVU810
 2102 002c 3148     		ldr	r0, .L79
 2103 002e FFF7FEFF 		bl	HAL_TIM_Base_Start_IT
 2104              	.LVL99:
 168:Core/Src/main.c ****   {
 2105              		.loc 1 168 8 view .LVU811
 2106 0032 08B1     		cbz	r0, .L71
 171:Core/Src/main.c ****   }
 2107              		.loc 1 171 5 is_stmt 1 view .LVU812
 2108 0034 FFF7FEFF 		bl	Error_Handler
 2109              	.LVL100:
 2110              	.L71:
 174:Core/Src/main.c ****   if (fatfs_err != FR_OK) {
 2111              		.loc 1 174 3 view .LVU813
 174:Core/Src/main.c ****   if (fatfs_err != FR_OK) {
 2112              		.loc 1 174 15 is_stmt 0 view .LVU814
 2113 0038 0122     		movs	r2, #1
 2114 003a 2F49     		ldr	r1, .L79+4
 2115 003c 2F48     		ldr	r0, .L79+8
 2116 003e FFF7FEFF 		bl	f_mount
 2117              	.LVL101:
 174:Core/Src/main.c ****   if (fatfs_err != FR_OK) {
 2118              		.loc 1 174 13 view .LVU815
 2119 0042 2F4B     		ldr	r3, .L79+12
 2120 0044 1870     		strb	r0, [r3]
 175:Core/Src/main.c ****     printf("failed to mount card, code: %i.\n", fatfs_err);
 2121              		.loc 1 175 3 is_stmt 1 view .LVU816
 175:Core/Src/main.c ****     printf("failed to mount card, code: %i.\n", fatfs_err);
 2122              		.loc 1 175 6 is_stmt 0 view .LVU817
 2123 0046 88B1     		cbz	r0, .L72
 176:Core/Src/main.c ****     if (fatfs_err != FR_NOT_READY) {
 2124              		.loc 1 176 5 is_stmt 1 view .LVU818
 2125 0048 0146     		mov	r1, r0
 2126 004a 2E48     		ldr	r0, .L79+16
 2127 004c FFF7FEFF 		bl	printf
 2128              	.LVL102:
 177:Core/Src/main.c ****       printf("exiting.\n");
 2129              		.loc 1 177 5 view .LVU819
 177:Core/Src/main.c ****       printf("exiting.\n");
 2130              		.loc 1 177 19 is_stmt 0 view .LVU820
 2131 0050 2B4B     		ldr	r3, .L79+12
 2132 0052 1B78     		ldrb	r3, [r3]	@ zero_extendqisi2
 177:Core/Src/main.c ****       printf("exiting.\n");
 2133              		.loc 1 177 8 view .LVU821
 2134 0054 032B     		cmp	r3, #3
 2135 0056 06D0     		beq	.L73
 178:Core/Src/main.c ****       exit(fatfs_err);
 2136              		.loc 1 178 7 is_stmt 1 view .LVU822
 2137 0058 2B48     		ldr	r0, .L79+20
 2138 005a FFF7FEFF 		bl	puts
 2139              	.LVL103:
 179:Core/Src/main.c ****     }
 2140              		.loc 1 179 7 view .LVU823
 2141 005e 284B     		ldr	r3, .L79+12
 2142 0060 1878     		ldrb	r0, [r3]	@ zero_extendqisi2
 2143 0062 FFF7FEFF 		bl	exit
ARM GAS  /var/folders/fz/x0kldt2j7vs_j4slv3pyc44m0000gp/T//ccJSrhYz.s 			page 62


 2144              	.LVL104:
 2145              	.L73:
 181:Core/Src/main.c ****   }
 2146              		.loc 1 181 5 view .LVU824
 2147 0066 2948     		ldr	r0, .L79+24
 2148 0068 FFF7FEFF 		bl	puts
 2149              	.LVL105:
 2150              	.L72:
 185:Core/Src/main.c ****   if (fatfs_err != FR_OK) {
 2151              		.loc 1 185 3 view .LVU825
 185:Core/Src/main.c ****   if (fatfs_err != FR_OK) {
 2152              		.loc 1 185 15 is_stmt 0 view .LVU826
 2153 006c 0A22     		movs	r2, #10
 2154 006e 2849     		ldr	r1, .L79+28
 2155 0070 2848     		ldr	r0, .L79+32
 2156 0072 FFF7FEFF 		bl	f_open
 2157              	.LVL106:
 185:Core/Src/main.c ****   if (fatfs_err != FR_OK) {
 2158              		.loc 1 185 13 view .LVU827
 2159 0076 224B     		ldr	r3, .L79+12
 2160 0078 1870     		strb	r0, [r3]
 186:Core/Src/main.c ****     printf("failed to open file, code: %i.\n", fatfs_err);
 2161              		.loc 1 186 3 is_stmt 1 view .LVU828
 186:Core/Src/main.c ****     printf("failed to open file, code: %i.\n", fatfs_err);
 2162              		.loc 1 186 6 is_stmt 0 view .LVU829
 2163 007a 50B1     		cbz	r0, .L74
 187:Core/Src/main.c ****     printf("exiting.\n");
 2164              		.loc 1 187 5 is_stmt 1 view .LVU830
 2165 007c 0146     		mov	r1, r0
 2166 007e 2648     		ldr	r0, .L79+36
 2167 0080 FFF7FEFF 		bl	printf
 2168              	.LVL107:
 188:Core/Src/main.c ****     exit(fatfs_err);
 2169              		.loc 1 188 5 view .LVU831
 2170 0084 2048     		ldr	r0, .L79+20
 2171 0086 FFF7FEFF 		bl	puts
 2172              	.LVL108:
 189:Core/Src/main.c ****   }
 2173              		.loc 1 189 5 view .LVU832
 2174 008a 1D4B     		ldr	r3, .L79+12
 2175 008c 1878     		ldrb	r0, [r3]	@ zero_extendqisi2
 2176 008e FFF7FEFF 		bl	exit
 2177              	.LVL109:
 2178              	.L74:
 192:Core/Src/main.c ****   container_set_resolution(default_settings.x_res, default_settings.y_res);
 2179              		.loc 1 192 3 view .LVU833
 192:Core/Src/main.c ****   container_set_resolution(default_settings.x_res, default_settings.y_res);
 2180              		.loc 1 192 44 is_stmt 0 view .LVU834
 2181 0092 224C     		ldr	r4, .L79+40
 192:Core/Src/main.c ****   container_set_resolution(default_settings.x_res, default_settings.y_res);
 2182              		.loc 1 192 3 view .LVU835
 2183 0094 A079     		ldrb	r0, [r4, #6]	@ zero_extendqisi2
 2184 0096 FFF7FEFF 		bl	container_set_frame_rate
 2185              	.LVL110:
 193:Core/Src/main.c ****   container_set_format(MuTFF_FOURCC('j', 'p', 'e', 'g'));
 2186              		.loc 1 193 3 is_stmt 1 view .LVU836
 2187 009a A188     		ldrh	r1, [r4, #4]
ARM GAS  /var/folders/fz/x0kldt2j7vs_j4slv3pyc44m0000gp/T//ccJSrhYz.s 			page 63


 2188 009c 6088     		ldrh	r0, [r4, #2]
 2189 009e FFF7FEFF 		bl	container_set_resolution
 2190              	.LVL111:
 194:Core/Src/main.c ****   container_init(&SDFile);
 2191              		.loc 1 194 3 view .LVU837
 2192 00a2 1F48     		ldr	r0, .L79+44
 2193 00a4 FFF7FEFF 		bl	container_set_format
 2194              	.LVL112:
 195:Core/Src/main.c **** 
 2195              		.loc 1 195 3 view .LVU838
 2196 00a8 1A48     		ldr	r0, .L79+32
 2197 00aa FFF7FEFF 		bl	container_init
 2198              	.LVL113:
 197:Core/Src/main.c ****            default_settings.x_res,
 2199              		.loc 1 197 3 view .LVU839
 2200 00ae 637B     		ldrb	r3, [r4, #13]	@ zero_extendqisi2
 2201 00b0 0393     		str	r3, [sp, #12]
 2202 00b2 237B     		ldrb	r3, [r4, #12]	@ zero_extendqisi2
 2203 00b4 0293     		str	r3, [sp, #8]
 2204 00b6 6389     		ldrh	r3, [r4, #10]
 2205 00b8 0193     		str	r3, [sp, #4]
 2206 00ba 2389     		ldrh	r3, [r4, #8]
 2207 00bc 0093     		str	r3, [sp]
 2208 00be A379     		ldrb	r3, [r4, #6]	@ zero_extendqisi2
 2209 00c0 A288     		ldrh	r2, [r4, #4]
 2210 00c2 6188     		ldrh	r1, [r4, #2]
 2211 00c4 2078     		ldrb	r0, [r4]	@ zero_extendqisi2
 2212 00c6 FFF7FEFF 		bl	CAM_Init
 2213              	.LVL114:
 206:Core/Src/main.c ****   /* USER CODE END 2 */
 2214              		.loc 1 206 3 view .LVU840
 2215 00ca FFF7FEFF 		bl	BSP_CAMERA_ContinuousStart
 2216              	.LVL115:
 2217              	.L77:
 211:Core/Src/main.c ****   {
 2218              		.loc 1 211 3 view .LVU841
 2219              	.LBB22:
 215:Core/Src/main.c ****     HAL_PWR_EnterSLEEPMode(PWR_MAINREGULATOR_ON, PWR_SLEEPENTRY_WFI);
 2220              		.loc 1 215 5 view .LVU842
 2221 00ce FFF7FEFF 		bl	HAL_SuspendTick
 2222              	.LVL116:
 216:Core/Src/main.c ****     HAL_ResumeTick();
 2223              		.loc 1 216 5 view .LVU843
 2224 00d2 0121     		movs	r1, #1
 2225 00d4 0020     		movs	r0, #0
 2226 00d6 FFF7FEFF 		bl	HAL_PWR_EnterSLEEPMode
 2227              	.LVL117:
 217:Core/Src/main.c ****     /* USER CODE END WHILE */
 2228              		.loc 1 217 5 view .LVU844
 2229 00da FFF7FEFF 		bl	HAL_ResumeTick
 2230              	.LVL118:
 222:Core/Src/main.c ****     while (pop_event_queue(&event)) {
 2231              		.loc 1 222 5 view .LVU845
 223:Core/Src/main.c ****       handle_event(event);
 2232              		.loc 1 223 5 view .LVU846
 2233              	.L75:
 223:Core/Src/main.c ****       handle_event(event);
ARM GAS  /var/folders/fz/x0kldt2j7vs_j4slv3pyc44m0000gp/T//ccJSrhYz.s 			page 64


 2234              		.loc 1 223 12 view .LVU847
 2235 00de 04A8     		add	r0, sp, #16
 2236 00e0 FFF7FEFF 		bl	pop_event_queue
 2237              	.LVL119:
 2238 00e4 0028     		cmp	r0, #0
 2239 00e6 F2D0     		beq	.L77
 224:Core/Src/main.c ****     }
 2240              		.loc 1 224 7 view .LVU848
 2241 00e8 06AB     		add	r3, sp, #24
 2242 00ea 13E90300 		ldmdb	r3, {r0, r1}
 2243 00ee FFF7FEFF 		bl	handle_event
 2244              	.LVL120:
 2245 00f2 F4E7     		b	.L75
 2246              	.L80:
 2247              		.align	2
 2248              	.L79:
 2249 00f4 00000000 		.word	htim3
 2250 00f8 00000000 		.word	SDPath
 2251 00fc 00000000 		.word	SDFatFS
 2252 0100 00000000 		.word	fatfs_err
 2253 0104 00000000 		.word	.LC0
 2254 0108 24000000 		.word	.LC1
 2255 010c 30000000 		.word	.LC2
 2256 0110 3C000000 		.word	.LC3
 2257 0114 00000000 		.word	SDFile
 2258 0118 48000000 		.word	.LC4
 2259 011c 00000000 		.word	default_settings
 2260 0120 6765706A 		.word	1785750887
 2261              	.LBE22:
 2262              		.cfi_endproc
 2263              	.LFE145:
 2265              		.global	default_settings
 2266              		.section	.data.default_settings,"aw"
 2267              		.align	2
 2270              	default_settings:
 2271 0000 00       		.byte	0
 2272 0001 00       		.space	1
 2273 0002 4001     		.short	320
 2274 0004 F000     		.short	240
 2275 0006 05       		.byte	5
 2276 0007 00       		.space	1
 2277 0008 0090     		.short	-28672
 2278 000a 0004     		.short	1024
 2279 000c 14       		.byte	20
 2280 000d 0C       		.byte	12
 2281              		.section	.bss.fatfs_err,"aw",%nobits
 2284              	fatfs_err:
 2285 0000 00       		.space	1
 2286              		.global	hpcd_USB_OTG_HS
 2287              		.section	.bss.hpcd_USB_OTG_HS,"aw",%nobits
 2288              		.align	2
 2291              	hpcd_USB_OTG_HS:
 2292 0000 00000000 		.space	1288
 2292      00000000 
 2292      00000000 
 2292      00000000 
 2292      00000000 
ARM GAS  /var/folders/fz/x0kldt2j7vs_j4slv3pyc44m0000gp/T//ccJSrhYz.s 			page 65


 2293              		.global	htim3
 2294              		.section	.bss.htim3,"aw",%nobits
 2295              		.align	2
 2298              	htim3:
 2299 0000 00000000 		.space	76
 2299      00000000 
 2299      00000000 
 2299      00000000 
 2299      00000000 
 2300              		.global	hdma_sdmmc1
 2301              		.section	.bss.hdma_sdmmc1,"aw",%nobits
 2302              		.align	2
 2305              	hdma_sdmmc1:
 2306 0000 00000000 		.space	96
 2306      00000000 
 2306      00000000 
 2306      00000000 
 2306      00000000 
 2307              		.global	hsd1
 2308              		.section	.bss.hsd1,"aw",%nobits
 2309              		.align	2
 2312              	hsd1:
 2313 0000 00000000 		.space	132
 2313      00000000 
 2313      00000000 
 2313      00000000 
 2313      00000000 
 2314              		.global	hi2c1
 2315              		.section	.bss.hi2c1,"aw",%nobits
 2316              		.align	2
 2319              	hi2c1:
 2320 0000 00000000 		.space	84
 2320      00000000 
 2320      00000000 
 2320      00000000 
 2320      00000000 
 2321              		.global	hdma_dcmi
 2322              		.section	.bss.hdma_dcmi,"aw",%nobits
 2323              		.align	2
 2326              	hdma_dcmi:
 2327 0000 00000000 		.space	96
 2327      00000000 
 2327      00000000 
 2327      00000000 
 2327      00000000 
 2328              		.global	hdcmi
 2329              		.section	.bss.hdcmi,"aw",%nobits
 2330              		.align	2
 2333              	hdcmi:
 2334 0000 00000000 		.space	80
 2334      00000000 
 2334      00000000 
 2334      00000000 
 2334      00000000 
 2335              		.text
 2336              	.Letext0:
 2337              		.file 3 "Drivers/CMSIS/Device/ST/STM32F7xx/Include/stm32f746xx.h"
ARM GAS  /var/folders/fz/x0kldt2j7vs_j4slv3pyc44m0000gp/T//ccJSrhYz.s 			page 66


 2338              		.file 4 "/Users/sol/Library/Application Support/Code/User/globalStorage/bmd.stm32-for-vscode/@xpac
 2339              		.file 5 "/Users/sol/Library/Application Support/Code/User/globalStorage/bmd.stm32-for-vscode/@xpac
 2340              		.file 6 "Drivers/CMSIS/Device/ST/STM32F7xx/Include/stm32f7xx.h"
 2341              		.file 7 "/Users/sol/Library/Application Support/Code/User/globalStorage/bmd.stm32-for-vscode/@xpac
 2342              		.file 8 "Drivers/STM32F7xx_HAL_Driver/Inc/stm32f7xx_hal_def.h"
 2343              		.file 9 "Drivers/STM32F7xx_HAL_Driver/Inc/stm32f7xx_hal_rcc_ex.h"
 2344              		.file 10 "Drivers/STM32F7xx_HAL_Driver/Inc/stm32f7xx_hal_rcc.h"
 2345              		.file 11 "Drivers/STM32F7xx_HAL_Driver/Inc/stm32f7xx_hal_gpio.h"
 2346              		.file 12 "Drivers/STM32F7xx_HAL_Driver/Inc/stm32f7xx_hal_dma.h"
 2347              		.file 13 "Drivers/STM32F7xx_HAL_Driver/Inc/stm32f7xx_hal_dcmi.h"
 2348              		.file 14 "Drivers/STM32F7xx_HAL_Driver/Inc/stm32f7xx_hal_i2c.h"
 2349              		.file 15 "Drivers/STM32F7xx_HAL_Driver/Inc/stm32f7xx_ll_sdmmc.h"
 2350              		.file 16 "Drivers/STM32F7xx_HAL_Driver/Inc/stm32f7xx_hal_sd.h"
 2351              		.file 17 "Drivers/STM32F7xx_HAL_Driver/Inc/stm32f7xx_hal_tim.h"
 2352              		.file 18 "Drivers/STM32F7xx_HAL_Driver/Inc/stm32f7xx_ll_usb.h"
 2353              		.file 19 "Drivers/STM32F7xx_HAL_Driver/Inc/stm32f7xx_hal_pcd.h"
 2354              		.file 20 "Core/Inc/events.h"
 2355              		.file 21 "Core/Inc/main.h"
 2356              		.file 22 "Middlewares/Third_Party/FatFs/src/integer.h"
 2357              		.file 23 "Middlewares/Third_Party/FatFs/src/ff.h"
 2358              		.file 24 "FATFS/App/fatfs.h"
 2359              		.file 25 "Drivers/STM32F7xx_HAL_Driver/Inc/stm32f7xx_hal_tim_ex.h"
 2360              		.file 26 "Drivers/STM32F7xx_HAL_Driver/Inc/stm32f7xx_hal_i2c_ex.h"
 2361              		.file 27 "Drivers/STM32F7xx_HAL_Driver/Inc/stm32f7xx_hal_cortex.h"
 2362              		.file 28 "Drivers/STM32F7xx_HAL_Driver/Inc/stm32f7xx_hal_pwr.h"
 2363              		.file 29 "Drivers/STM32F7xx_HAL_Driver/Inc/stm32f7xx_hal.h"
 2364              		.file 30 "Cam/Inc/F7Cam_Driver.h"
 2365              		.file 31 "Container/Inc/container.h"
 2366              		.file 32 "/Users/sol/Library/Application Support/Code/User/globalStorage/bmd.stm32-for-vscode/@xpa
 2367              		.file 33 "/Users/sol/Library/Application Support/Code/User/globalStorage/bmd.stm32-for-vscode/@xpa
 2368              		.file 34 "Drivers/STM32F7xx_HAL_Driver/Inc/stm32f7xx_hal_pwr_ex.h"
 2369              		.file 35 "<built-in>"
ARM GAS  /var/folders/fz/x0kldt2j7vs_j4slv3pyc44m0000gp/T//ccJSrhYz.s 			page 67

