ARM GAS  /var/folders/fz/x0kldt2j7vs_j4slv3pyc44m0000gp/T//ccIigdcK.s 			page 1


   1              		.cpu cortex-m7
   2              		.arch armv7e-m
   3              		.fpu fpv5-sp-d16
   4              		.eabi_attribute 27, 1
   5              		.eabi_attribute 28, 1
   6              		.eabi_attribute 20, 1
   7              		.eabi_attribute 21, 1
   8              		.eabi_attribute 23, 3
   9              		.eabi_attribute 24, 1
  10              		.eabi_attribute 25, 1
  11              		.eabi_attribute 26, 1
  12              		.eabi_attribute 30, 1
  13              		.eabi_attribute 34, 1
  14              		.eabi_attribute 18, 4
  15              		.file	"mutff_default.c"
  16              		.text
  17              	.Ltext0:
  18              		.cfi_sections	.debug_frame
  19              		.file 1 "mutff/src/mutff_default.c"
  20              		.section	.text.mutff_ntoh_16,"ax",%progbits
  21              		.align	1
  22              		.syntax unified
  23              		.thumb
  24              		.thumb_func
  26              	mutff_ntoh_16:
  27              	.LVL0:
  28              	.LFB0:
   1:mutff/src/mutff_default.c **** ///
   2:mutff/src/mutff_default.c **** /// @file      mutff_default.c
   3:mutff/src/mutff_default.c **** /// @author    Frank Plowman <post@frankplowman.com>
   4:mutff/src/mutff_default.c **** /// @brief     MuTFF MP4/QTFF library default driver source file
   5:mutff/src/mutff_default.c **** /// @copyright 2022 Frank Plowman
   6:mutff/src/mutff_default.c **** /// @license   This project is released under the GNU Public License Version 3.
   7:mutff/src/mutff_default.c **** ///            For the terms of this license, see [LICENSE.md](LICENSE.md)
   8:mutff/src/mutff_default.c **** ///
   9:mutff/src/mutff_default.c **** 
  10:mutff/src/mutff_default.c **** #include "mutff_default.h"
  11:mutff/src/mutff_default.c **** 
  12:mutff/src/mutff_default.c **** #include <stdbool.h>
  13:mutff/src/mutff_default.c **** #include <stddef.h>
  14:mutff/src/mutff_default.c **** #include <stdint.h>
  15:mutff/src/mutff_default.c **** #include <stdlib.h>
  16:mutff/src/mutff_default.c **** #include <string.h>
  17:mutff/src/mutff_default.c **** 
  18:mutff/src/mutff_default.c **** #include "mutff.h"
  19:mutff/src/mutff_default.c **** #include "mutff_error.h"
  20:mutff/src/mutff_default.c **** 
  21:mutff/src/mutff_default.c **** #define MuTFF_FN(func, ...)               \
  22:mutff/src/mutff_default.c ****   do {                                    \
  23:mutff/src/mutff_default.c ****     err = func(ctx, &bytes, __VA_ARGS__); \
  24:mutff/src/mutff_default.c ****     if (err != MuTFFErrorNone) {          \
  25:mutff/src/mutff_default.c ****       return err;                         \
  26:mutff/src/mutff_default.c ****     }                                     \
  27:mutff/src/mutff_default.c ****     *(n) += (bytes);                      \
  28:mutff/src/mutff_default.c ****   } while (0);
  29:mutff/src/mutff_default.c **** 
  30:mutff/src/mutff_default.c **** #define MuTFF_READ_CHILD(func, field, flag) \
ARM GAS  /var/folders/fz/x0kldt2j7vs_j4slv3pyc44m0000gp/T//ccIigdcK.s 			page 2


  31:mutff/src/mutff_default.c ****   do {                                      \
  32:mutff/src/mutff_default.c ****     if (flag == true) {                     \
  33:mutff/src/mutff_default.c ****       return MuTFFErrorBadFormat;           \
  34:mutff/src/mutff_default.c ****     }                                       \
  35:mutff/src/mutff_default.c ****     MuTFF_FN(func, field);                  \
  36:mutff/src/mutff_default.c ****     (flag) = true;                          \
  37:mutff/src/mutff_default.c ****   } while (0);
  38:mutff/src/mutff_default.c **** 
  39:mutff/src/mutff_default.c **** #define MuTFF_SEEK_CUR(offset)     \
  40:mutff/src/mutff_default.c ****   do {                             \
  41:mutff/src/mutff_default.c ****     err = mutff_seek(ctx, offset); \
  42:mutff/src/mutff_default.c ****     if (err != MuTFFErrorNone) {   \
  43:mutff/src/mutff_default.c ****       return err;                  \
  44:mutff/src/mutff_default.c ****     }                              \
  45:mutff/src/mutff_default.c ****     *(n) += (offset);              \
  46:mutff/src/mutff_default.c ****   } while (0);
  47:mutff/src/mutff_default.c **** 
  48:mutff/src/mutff_default.c **** // Convert a number from network (big) endian to host endian.
  49:mutff/src/mutff_default.c **** // These must be implemented here as newlib does not provide the
  50:mutff/src/mutff_default.c **** // standard library implementations ntohs & ntohl (arpa/inet.h).
  51:mutff/src/mutff_default.c **** //
  52:mutff/src/mutff_default.c **** // taken from:
  53:mutff/src/mutff_default.c **** // https://stackoverflow.com/questions/2100331/macro-definition-to-determine-big-endian-or-little-e
  54:mutff/src/mutff_default.c **** static uint16_t mutff_ntoh_16(unsigned char *no) {
  29              		.loc 1 54 50 view -0
  30              		.cfi_startproc
  31              		@ args = 0, pretend = 0, frame = 0
  32              		@ frame_needed = 0, uses_anonymous_args = 0
  33              		@ link register save eliminated.
  55:mutff/src/mutff_default.c ****   return ((uint16_t)no[0] << 8) | (uint16_t)no[1];
  34              		.loc 1 55 3 view .LVU1
  35              		.loc 1 55 23 is_stmt 0 view .LVU2
  36 0000 0278     		ldrb	r2, [r0]	@ zero_extendqisi2
  37              		.loc 1 55 47 view .LVU3
  38 0002 4078     		ldrb	r0, [r0, #1]	@ zero_extendqisi2
  39              	.LVL1:
  56:mutff/src/mutff_default.c **** }
  40              		.loc 1 56 1 view .LVU4
  41 0004 40EA0220 		orr	r0, r0, r2, lsl #8
  42 0008 7047     		bx	lr
  43              		.cfi_endproc
  44              	.LFE0:
  46              		.section	.text.mutff_hton_16,"ax",%progbits
  47              		.align	1
  48              		.syntax unified
  49              		.thumb
  50              		.thumb_func
  52              	mutff_hton_16:
  53              	.LVL2:
  54              	.LFB1:
  57:mutff/src/mutff_default.c **** 
  58:mutff/src/mutff_default.c **** static void mutff_hton_16(unsigned char *dest, uint16_t n) {
  55              		.loc 1 58 60 is_stmt 1 view -0
  56              		.cfi_startproc
  57              		@ args = 0, pretend = 0, frame = 0
  58              		@ frame_needed = 0, uses_anonymous_args = 0
  59              		@ link register save eliminated.
ARM GAS  /var/folders/fz/x0kldt2j7vs_j4slv3pyc44m0000gp/T//ccIigdcK.s 			page 3


  59:mutff/src/mutff_default.c ****   dest[0] = n >> 8;
  60              		.loc 1 59 3 view .LVU6
  61              		.loc 1 59 11 is_stmt 0 view .LVU7
  62 0000 0B0A     		lsrs	r3, r1, #8
  63 0002 0370     		strb	r3, [r0]
  60:mutff/src/mutff_default.c ****   dest[1] = n;
  64              		.loc 1 60 3 is_stmt 1 view .LVU8
  65              		.loc 1 60 11 is_stmt 0 view .LVU9
  66 0004 4170     		strb	r1, [r0, #1]
  61:mutff/src/mutff_default.c **** }
  67              		.loc 1 61 1 view .LVU10
  68 0006 7047     		bx	lr
  69              		.cfi_endproc
  70              	.LFE1:
  72              		.section	.text.mutff_ntoh_24,"ax",%progbits
  73              		.align	1
  74              		.syntax unified
  75              		.thumb
  76              		.thumb_func
  78              	mutff_ntoh_24:
  79              	.LVL3:
  80              	.LFB2:
  62:mutff/src/mutff_default.c **** 
  63:mutff/src/mutff_default.c **** static mutff_uint24_t mutff_ntoh_24(unsigned char *no) {
  81              		.loc 1 63 56 is_stmt 1 view -0
  82              		.cfi_startproc
  83              		@ args = 0, pretend = 0, frame = 0
  84              		@ frame_needed = 0, uses_anonymous_args = 0
  85              		@ link register save eliminated.
  64:mutff/src/mutff_default.c ****   return ((mutff_uint24_t)no[0] << 16) | ((mutff_uint24_t)no[1] << 8) |
  86              		.loc 1 64 3 view .LVU12
  87              		.loc 1 64 29 is_stmt 0 view .LVU13
  88 0000 0278     		ldrb	r2, [r0]	@ zero_extendqisi2
  89              		.loc 1 64 61 view .LVU14
  90 0002 4378     		ldrb	r3, [r0, #1]	@ zero_extendqisi2
  91              		.loc 1 64 65 view .LVU15
  92 0004 1B02     		lsls	r3, r3, #8
  93              		.loc 1 64 40 view .LVU16
  94 0006 43EA0243 		orr	r3, r3, r2, lsl #16
  65:mutff/src/mutff_default.c ****          (mutff_uint24_t)no[2];
  95              		.loc 1 65 28 view .LVU17
  96 000a 8078     		ldrb	r0, [r0, #2]	@ zero_extendqisi2
  97              	.LVL4:
  66:mutff/src/mutff_default.c **** }
  98              		.loc 1 66 1 view .LVU18
  99 000c 1843     		orrs	r0, r0, r3
 100 000e 7047     		bx	lr
 101              		.cfi_endproc
 102              	.LFE2:
 104              		.section	.text.mutff_hton_24,"ax",%progbits
 105              		.align	1
 106              		.syntax unified
 107              		.thumb
 108              		.thumb_func
 110              	mutff_hton_24:
 111              	.LVL5:
 112              	.LFB3:
ARM GAS  /var/folders/fz/x0kldt2j7vs_j4slv3pyc44m0000gp/T//ccIigdcK.s 			page 4


  67:mutff/src/mutff_default.c **** 
  68:mutff/src/mutff_default.c **** static void mutff_hton_24(unsigned char *dest, mutff_uint24_t n) {
 113              		.loc 1 68 66 is_stmt 1 view -0
 114              		.cfi_startproc
 115              		@ args = 0, pretend = 0, frame = 0
 116              		@ frame_needed = 0, uses_anonymous_args = 0
 117              		@ link register save eliminated.
  69:mutff/src/mutff_default.c ****   // note this is using implicit truncation
  70:mutff/src/mutff_default.c ****   dest[0] = n >> 16;
 118              		.loc 1 70 3 view .LVU20
 119              		.loc 1 70 15 is_stmt 0 view .LVU21
 120 0000 0B0C     		lsrs	r3, r1, #16
 121              		.loc 1 70 11 view .LVU22
 122 0002 0370     		strb	r3, [r0]
  71:mutff/src/mutff_default.c ****   dest[1] = n >> 8;
 123              		.loc 1 71 3 is_stmt 1 view .LVU23
 124              		.loc 1 71 15 is_stmt 0 view .LVU24
 125 0004 0B0A     		lsrs	r3, r1, #8
 126              		.loc 1 71 11 view .LVU25
 127 0006 4370     		strb	r3, [r0, #1]
  72:mutff/src/mutff_default.c ****   dest[2] = n;
 128              		.loc 1 72 3 is_stmt 1 view .LVU26
 129              		.loc 1 72 11 is_stmt 0 view .LVU27
 130 0008 8170     		strb	r1, [r0, #2]
  73:mutff/src/mutff_default.c **** }
 131              		.loc 1 73 1 view .LVU28
 132 000a 7047     		bx	lr
 133              		.cfi_endproc
 134              	.LFE3:
 136              		.section	.text.mutff_ntoh_32,"ax",%progbits
 137              		.align	1
 138              		.syntax unified
 139              		.thumb
 140              		.thumb_func
 142              	mutff_ntoh_32:
 143              	.LVL6:
 144              	.LFB4:
  74:mutff/src/mutff_default.c **** 
  75:mutff/src/mutff_default.c **** static uint32_t mutff_ntoh_32(unsigned char *no) {
 145              		.loc 1 75 50 is_stmt 1 view -0
 146              		.cfi_startproc
 147              		@ args = 0, pretend = 0, frame = 0
 148              		@ frame_needed = 0, uses_anonymous_args = 0
 149              		@ link register save eliminated.
  76:mutff/src/mutff_default.c ****   return ((uint32_t)no[0] << 24) | ((uint32_t)no[1] << 16) |
 150              		.loc 1 76 3 view .LVU30
 151              		.loc 1 76 23 is_stmt 0 view .LVU31
 152 0000 0278     		ldrb	r2, [r0]	@ zero_extendqisi2
 153              		.loc 1 76 49 view .LVU32
 154 0002 4378     		ldrb	r3, [r0, #1]	@ zero_extendqisi2
 155              		.loc 1 76 53 view .LVU33
 156 0004 1B04     		lsls	r3, r3, #16
 157              		.loc 1 76 34 view .LVU34
 158 0006 43EA0263 		orr	r3, r3, r2, lsl #24
  77:mutff/src/mutff_default.c ****          ((uint32_t)no[2] << 8) | (uint32_t)no[3];
 159              		.loc 1 77 23 view .LVU35
 160 000a 8278     		ldrb	r2, [r0, #2]	@ zero_extendqisi2
ARM GAS  /var/folders/fz/x0kldt2j7vs_j4slv3pyc44m0000gp/T//ccIigdcK.s 			page 5


  76:mutff/src/mutff_default.c ****   return ((uint32_t)no[0] << 24) | ((uint32_t)no[1] << 16) |
 161              		.loc 1 76 60 view .LVU36
 162 000c 43EA0223 		orr	r3, r3, r2, lsl #8
 163              		.loc 1 77 47 view .LVU37
 164 0010 C078     		ldrb	r0, [r0, #3]	@ zero_extendqisi2
 165              	.LVL7:
  78:mutff/src/mutff_default.c **** }
 166              		.loc 1 78 1 view .LVU38
 167 0012 1843     		orrs	r0, r0, r3
 168 0014 7047     		bx	lr
 169              		.cfi_endproc
 170              	.LFE4:
 172              		.section	.text.mutff_hton_32,"ax",%progbits
 173              		.align	1
 174              		.syntax unified
 175              		.thumb
 176              		.thumb_func
 178              	mutff_hton_32:
 179              	.LVL8:
 180              	.LFB5:
  79:mutff/src/mutff_default.c **** 
  80:mutff/src/mutff_default.c **** static void mutff_hton_32(unsigned char *dest, uint32_t n) {
 181              		.loc 1 80 60 is_stmt 1 view -0
 182              		.cfi_startproc
 183              		@ args = 0, pretend = 0, frame = 0
 184              		@ frame_needed = 0, uses_anonymous_args = 0
 185              		@ link register save eliminated.
  81:mutff/src/mutff_default.c ****   // note this is using implicit truncation
  82:mutff/src/mutff_default.c ****   dest[0] = n >> 24;
 186              		.loc 1 82 3 view .LVU40
 187              		.loc 1 82 15 is_stmt 0 view .LVU41
 188 0000 0B0E     		lsrs	r3, r1, #24
 189              		.loc 1 82 11 view .LVU42
 190 0002 0370     		strb	r3, [r0]
  83:mutff/src/mutff_default.c ****   dest[1] = n >> 16;
 191              		.loc 1 83 3 is_stmt 1 view .LVU43
 192              		.loc 1 83 15 is_stmt 0 view .LVU44
 193 0004 0B0C     		lsrs	r3, r1, #16
 194              		.loc 1 83 11 view .LVU45
 195 0006 4370     		strb	r3, [r0, #1]
  84:mutff/src/mutff_default.c ****   dest[2] = n >> 8;
 196              		.loc 1 84 3 is_stmt 1 view .LVU46
 197              		.loc 1 84 15 is_stmt 0 view .LVU47
 198 0008 0B0A     		lsrs	r3, r1, #8
 199              		.loc 1 84 11 view .LVU48
 200 000a 8370     		strb	r3, [r0, #2]
  85:mutff/src/mutff_default.c ****   dest[3] = n;
 201              		.loc 1 85 3 is_stmt 1 view .LVU49
 202              		.loc 1 85 11 is_stmt 0 view .LVU50
 203 000c C170     		strb	r1, [r0, #3]
  86:mutff/src/mutff_default.c **** }
 204              		.loc 1 86 1 view .LVU51
 205 000e 7047     		bx	lr
 206              		.cfi_endproc
 207              	.LFE5:
 209              		.section	.text.mutff_ntoh_64,"ax",%progbits
 210              		.align	1
ARM GAS  /var/folders/fz/x0kldt2j7vs_j4slv3pyc44m0000gp/T//ccIigdcK.s 			page 6


 211              		.syntax unified
 212              		.thumb
 213              		.thumb_func
 215              	mutff_ntoh_64:
 216              	.LVL9:
 217              	.LFB6:
  87:mutff/src/mutff_default.c **** 
  88:mutff/src/mutff_default.c **** static uint64_t mutff_ntoh_64(unsigned char *no) {
 218              		.loc 1 88 50 is_stmt 1 view -0
 219              		.cfi_startproc
 220              		@ args = 0, pretend = 0, frame = 0
 221              		@ frame_needed = 0, uses_anonymous_args = 0
 222              		@ link register save eliminated.
  89:mutff/src/mutff_default.c ****   return ((uint64_t)no[0] << 56) | ((uint64_t)no[1] << 48) |
 223              		.loc 1 89 3 view .LVU53
 224              		.loc 1 89 23 is_stmt 0 view .LVU54
 225 0000 0278     		ldrb	r2, [r0]	@ zero_extendqisi2
 226              		.loc 1 89 49 view .LVU55
 227 0002 4378     		ldrb	r3, [r0, #1]	@ zero_extendqisi2
 228              		.loc 1 89 53 view .LVU56
 229 0004 1B04     		lsls	r3, r3, #16
 230              		.loc 1 89 34 view .LVU57
 231 0006 43EA0263 		orr	r3, r3, r2, lsl #24
  90:mutff/src/mutff_default.c ****          ((uint64_t)no[2] << 40) | ((uint64_t)no[3] << 32) |
 232              		.loc 1 90 23 view .LVU58
 233 000a 8278     		ldrb	r2, [r0, #2]	@ zero_extendqisi2
  89:mutff/src/mutff_default.c ****   return ((uint64_t)no[0] << 56) | ((uint64_t)no[1] << 48) |
 234              		.loc 1 89 60 view .LVU59
 235 000c 43EA0223 		orr	r3, r3, r2, lsl #8
 236              		.loc 1 90 49 view .LVU60
 237 0010 C178     		ldrb	r1, [r0, #3]	@ zero_extendqisi2
  91:mutff/src/mutff_default.c ****          ((uint64_t)no[4] << 24) | ((uint64_t)no[5] << 16) |
 238              		.loc 1 91 23 view .LVU61
 239 0012 90F804C0 		ldrb	ip, [r0, #4]	@ zero_extendqisi2
 240              		.loc 1 91 49 view .LVU62
 241 0016 4279     		ldrb	r2, [r0, #5]	@ zero_extendqisi2
 242              		.loc 1 91 53 view .LVU63
 243 0018 1204     		lsls	r2, r2, #16
 244              		.loc 1 91 34 view .LVU64
 245 001a 42EA0C62 		orr	r2, r2, ip, lsl #24
  92:mutff/src/mutff_default.c ****          ((uint64_t)no[6] << 8) | (uint64_t)no[7];
 246              		.loc 1 92 23 view .LVU65
 247 001e 90F806C0 		ldrb	ip, [r0, #6]	@ zero_extendqisi2
  91:mutff/src/mutff_default.c ****          ((uint64_t)no[4] << 24) | ((uint64_t)no[5] << 16) |
 248              		.loc 1 91 60 view .LVU66
 249 0022 42EA0C22 		orr	r2, r2, ip, lsl #8
 250              		.loc 1 92 47 view .LVU67
 251 0026 C079     		ldrb	r0, [r0, #7]	@ zero_extendqisi2
 252              	.LVL10:
  93:mutff/src/mutff_default.c **** }
 253              		.loc 1 93 1 view .LVU68
 254 0028 1043     		orrs	r0, r0, r2
 255 002a 1943     		orrs	r1, r1, r3
 256 002c 7047     		bx	lr
 257              		.cfi_endproc
 258              	.LFE6:
 260              		.section	.text.mutff_hton_64,"ax",%progbits
ARM GAS  /var/folders/fz/x0kldt2j7vs_j4slv3pyc44m0000gp/T//ccIigdcK.s 			page 7


 261              		.align	1
 262              		.syntax unified
 263              		.thumb
 264              		.thumb_func
 266              	mutff_hton_64:
 267              	.LVL11:
 268              	.LFB7:
  94:mutff/src/mutff_default.c **** 
  95:mutff/src/mutff_default.c **** static void mutff_hton_64(unsigned char *dest, uint64_t n) {
 269              		.loc 1 95 60 is_stmt 1 view -0
 270              		.cfi_startproc
 271              		@ args = 0, pretend = 0, frame = 0
 272              		@ frame_needed = 0, uses_anonymous_args = 0
 273              		@ link register save eliminated.
  96:mutff/src/mutff_default.c ****   // note this is using implicit truncation
  97:mutff/src/mutff_default.c ****   dest[0] = n >> 56;
 274              		.loc 1 97 3 view .LVU70
 275              		.loc 1 97 15 is_stmt 0 view .LVU71
 276 0000 190E     		lsrs	r1, r3, #24
 277              		.loc 1 97 11 view .LVU72
 278 0002 0170     		strb	r1, [r0]
  98:mutff/src/mutff_default.c ****   dest[1] = n >> 48;
 279              		.loc 1 98 3 is_stmt 1 view .LVU73
 280              		.loc 1 98 15 is_stmt 0 view .LVU74
 281 0004 190C     		lsrs	r1, r3, #16
 282              		.loc 1 98 11 view .LVU75
 283 0006 4170     		strb	r1, [r0, #1]
  99:mutff/src/mutff_default.c ****   dest[2] = n >> 40;
 284              		.loc 1 99 3 is_stmt 1 view .LVU76
 285              		.loc 1 99 15 is_stmt 0 view .LVU77
 286 0008 190A     		lsrs	r1, r3, #8
 287              		.loc 1 99 11 view .LVU78
 288 000a 8170     		strb	r1, [r0, #2]
 100:mutff/src/mutff_default.c ****   dest[3] = n >> 32;
 289              		.loc 1 100 3 is_stmt 1 view .LVU79
 290              		.loc 1 100 11 is_stmt 0 view .LVU80
 291 000c C370     		strb	r3, [r0, #3]
 101:mutff/src/mutff_default.c ****   dest[4] = n >> 24;
 292              		.loc 1 101 3 is_stmt 1 view .LVU81
 293              		.loc 1 101 15 is_stmt 0 view .LVU82
 294 000e 130E     		lsrs	r3, r2, #24
 295              		.loc 1 101 11 view .LVU83
 296 0010 0371     		strb	r3, [r0, #4]
 102:mutff/src/mutff_default.c ****   dest[5] = n >> 16;
 297              		.loc 1 102 3 is_stmt 1 view .LVU84
 298              		.loc 1 102 15 is_stmt 0 view .LVU85
 299 0012 130C     		lsrs	r3, r2, #16
 300              		.loc 1 102 11 view .LVU86
 301 0014 4371     		strb	r3, [r0, #5]
 103:mutff/src/mutff_default.c ****   dest[6] = n >> 8;
 302              		.loc 1 103 3 is_stmt 1 view .LVU87
 303              		.loc 1 103 15 is_stmt 0 view .LVU88
 304 0016 130A     		lsrs	r3, r2, #8
 305              		.loc 1 103 11 view .LVU89
 306 0018 8371     		strb	r3, [r0, #6]
 104:mutff/src/mutff_default.c ****   dest[7] = n;
 307              		.loc 1 104 3 is_stmt 1 view .LVU90
ARM GAS  /var/folders/fz/x0kldt2j7vs_j4slv3pyc44m0000gp/T//ccIigdcK.s 			page 8


 308              		.loc 1 104 11 is_stmt 0 view .LVU91
 309 001a C271     		strb	r2, [r0, #7]
 105:mutff/src/mutff_default.c **** }
 310              		.loc 1 105 1 view .LVU92
 311 001c 7047     		bx	lr
 312              		.cfi_endproc
 313              	.LFE7:
 315              		.section	.text.mutff_user_data_atom_size,"ax",%progbits
 316              		.align	1
 317              		.syntax unified
 318              		.thumb
 319              		.thumb_func
 321              	mutff_user_data_atom_size:
 322              	.LVL12:
 323              	.LFB75:
 106:mutff/src/mutff_default.c **** 
 107:mutff/src/mutff_default.c **** static MuTFFError mutff_read_u8(MuTFFContext *ctx, size_t *n, uint8_t *data) {
 108:mutff/src/mutff_default.c ****   const MuTFFError err = mutff_read(ctx, data, 1);
 109:mutff/src/mutff_default.c ****   if (err != MuTFFErrorNone) {
 110:mutff/src/mutff_default.c ****     return err;
 111:mutff/src/mutff_default.c ****   }
 112:mutff/src/mutff_default.c ****   *n = 1U;
 113:mutff/src/mutff_default.c ****   return MuTFFErrorNone;
 114:mutff/src/mutff_default.c **** }
 115:mutff/src/mutff_default.c **** 
 116:mutff/src/mutff_default.c **** static MuTFFError mutff_read_i8(MuTFFContext *ctx, size_t *n, int8_t *dest) {
 117:mutff/src/mutff_default.c ****   MuTFFError err;
 118:mutff/src/mutff_default.c ****   uint8_t twos;
 119:mutff/src/mutff_default.c ****   size_t bytes;
 120:mutff/src/mutff_default.c ****   *n = 0;
 121:mutff/src/mutff_default.c ****   *n = 0;
 122:mutff/src/mutff_default.c **** 
 123:mutff/src/mutff_default.c ****   MuTFF_FN(mutff_read_u8, &twos);
 124:mutff/src/mutff_default.c ****   // convert from twos complement to implementation-defined
 125:mutff/src/mutff_default.c ****   *dest = (twos & 0x7FU) - (twos & 0x80U);
 126:mutff/src/mutff_default.c **** 
 127:mutff/src/mutff_default.c ****   return MuTFFErrorNone;
 128:mutff/src/mutff_default.c **** }
 129:mutff/src/mutff_default.c **** 
 130:mutff/src/mutff_default.c **** static MuTFFError mutff_read_u16(MuTFFContext *ctx, size_t *n, uint16_t *dest) {
 131:mutff/src/mutff_default.c ****   unsigned char data[2];
 132:mutff/src/mutff_default.c ****   const MuTFFError err = mutff_read(ctx, data, 2);
 133:mutff/src/mutff_default.c ****   if (err != MuTFFErrorNone) {
 134:mutff/src/mutff_default.c ****     return err;
 135:mutff/src/mutff_default.c ****   }
 136:mutff/src/mutff_default.c ****   // Convert from network order (big-endian)
 137:mutff/src/mutff_default.c ****   // to host order (implementation-defined).
 138:mutff/src/mutff_default.c ****   *dest = mutff_ntoh_16(data);
 139:mutff/src/mutff_default.c ****   *n = 2U;
 140:mutff/src/mutff_default.c ****   return MuTFFErrorNone;
 141:mutff/src/mutff_default.c **** }
 142:mutff/src/mutff_default.c **** 
 143:mutff/src/mutff_default.c **** static MuTFFError mutff_read_i16(MuTFFContext *ctx, size_t *n, int16_t *dest) {
 144:mutff/src/mutff_default.c ****   MuTFFError err;
 145:mutff/src/mutff_default.c ****   uint16_t twos;
 146:mutff/src/mutff_default.c ****   size_t bytes;
 147:mutff/src/mutff_default.c ****   *n = 0;
ARM GAS  /var/folders/fz/x0kldt2j7vs_j4slv3pyc44m0000gp/T//ccIigdcK.s 			page 9


 148:mutff/src/mutff_default.c **** 
 149:mutff/src/mutff_default.c ****   MuTFF_FN(mutff_read_u16, &twos);
 150:mutff/src/mutff_default.c ****   *dest = (twos & 0x7FFFU) - (twos & 0x8000U);
 151:mutff/src/mutff_default.c **** 
 152:mutff/src/mutff_default.c ****   return MuTFFErrorNone;
 153:mutff/src/mutff_default.c **** }
 154:mutff/src/mutff_default.c **** 
 155:mutff/src/mutff_default.c **** static MuTFFError mutff_read_u24(MuTFFContext *ctx, size_t *n,
 156:mutff/src/mutff_default.c ****                                  mutff_uint24_t *dest) {
 157:mutff/src/mutff_default.c ****   unsigned char data[3];
 158:mutff/src/mutff_default.c ****   const MuTFFError err = mutff_read(ctx, data, 3);
 159:mutff/src/mutff_default.c ****   if (err != MuTFFErrorNone) {
 160:mutff/src/mutff_default.c ****     return err;
 161:mutff/src/mutff_default.c ****   }
 162:mutff/src/mutff_default.c ****   *dest = mutff_ntoh_24(data);
 163:mutff/src/mutff_default.c ****   *n = 3U;
 164:mutff/src/mutff_default.c ****   return MuTFFErrorNone;
 165:mutff/src/mutff_default.c **** }
 166:mutff/src/mutff_default.c **** 
 167:mutff/src/mutff_default.c **** static MuTFFError mutff_read_u32(MuTFFContext *ctx, size_t *n, uint32_t *dest) {
 168:mutff/src/mutff_default.c ****   unsigned char data[4];
 169:mutff/src/mutff_default.c ****   const MuTFFError err = mutff_read(ctx, data, 4);
 170:mutff/src/mutff_default.c ****   if (err != MuTFFErrorNone) {
 171:mutff/src/mutff_default.c ****     return err;
 172:mutff/src/mutff_default.c ****   }
 173:mutff/src/mutff_default.c ****   *dest = mutff_ntoh_32(data);
 174:mutff/src/mutff_default.c ****   *n = 4U;
 175:mutff/src/mutff_default.c ****   return MuTFFErrorNone;
 176:mutff/src/mutff_default.c **** }
 177:mutff/src/mutff_default.c **** 
 178:mutff/src/mutff_default.c **** static MuTFFError mutff_read_i32(MuTFFContext *ctx, size_t *n, int32_t *dest) {
 179:mutff/src/mutff_default.c ****   MuTFFError err;
 180:mutff/src/mutff_default.c ****   uint32_t twos;
 181:mutff/src/mutff_default.c ****   size_t bytes;
 182:mutff/src/mutff_default.c ****   *n = 0;
 183:mutff/src/mutff_default.c **** 
 184:mutff/src/mutff_default.c ****   MuTFF_FN(mutff_read_u32, &twos);
 185:mutff/src/mutff_default.c ****   *dest = (twos & 0x7FFFFFFFU) - (twos & 0x80000000U);
 186:mutff/src/mutff_default.c **** 
 187:mutff/src/mutff_default.c ****   *n = bytes;
 188:mutff/src/mutff_default.c ****   return MuTFFErrorNone;
 189:mutff/src/mutff_default.c **** }
 190:mutff/src/mutff_default.c **** 
 191:mutff/src/mutff_default.c **** static MuTFFError mutff_read_u64(MuTFFContext *ctx, size_t *n, uint64_t *dest) {
 192:mutff/src/mutff_default.c ****   unsigned char data[8];
 193:mutff/src/mutff_default.c ****   const MuTFFError err = mutff_read(ctx, data, 8);
 194:mutff/src/mutff_default.c ****   if (err != MuTFFErrorNone) {
 195:mutff/src/mutff_default.c ****     return err;
 196:mutff/src/mutff_default.c ****   }
 197:mutff/src/mutff_default.c ****   *dest = mutff_ntoh_64(data);
 198:mutff/src/mutff_default.c ****   *n = 8U;
 199:mutff/src/mutff_default.c ****   return MuTFFErrorNone;
 200:mutff/src/mutff_default.c **** }
 201:mutff/src/mutff_default.c **** 
 202:mutff/src/mutff_default.c **** static MuTFFError mutff_write_u8(MuTFFContext *ctx, size_t *n, uint8_t data) {
 203:mutff/src/mutff_default.c ****   const MuTFFError err = mutff_write(ctx, &data, 1);
 204:mutff/src/mutff_default.c ****   if (err != MuTFFErrorNone) {
ARM GAS  /var/folders/fz/x0kldt2j7vs_j4slv3pyc44m0000gp/T//ccIigdcK.s 			page 10


 205:mutff/src/mutff_default.c ****     return err;
 206:mutff/src/mutff_default.c ****   }
 207:mutff/src/mutff_default.c ****   *n = 1U;
 208:mutff/src/mutff_default.c ****   return MuTFFErrorNone;
 209:mutff/src/mutff_default.c **** }
 210:mutff/src/mutff_default.c **** 
 211:mutff/src/mutff_default.c **** static MuTFFError mutff_write_i8(MuTFFContext *ctx, size_t *n, int8_t x) {
 212:mutff/src/mutff_default.c ****   MuTFFError err;
 213:mutff/src/mutff_default.c ****   size_t bytes;
 214:mutff/src/mutff_default.c ****   *n = 0;
 215:mutff/src/mutff_default.c ****   // ensure number is stored as two's complement
 216:mutff/src/mutff_default.c ****   x = x >= 0 ? x : ~abs(x) + 1;
 217:mutff/src/mutff_default.c ****   MuTFF_FN(mutff_write_u8, x);
 218:mutff/src/mutff_default.c ****   return MuTFFErrorNone;
 219:mutff/src/mutff_default.c **** }
 220:mutff/src/mutff_default.c **** 
 221:mutff/src/mutff_default.c **** static MuTFFError mutff_write_u16(MuTFFContext *ctx, size_t *n, uint16_t x) {
 222:mutff/src/mutff_default.c ****   unsigned char data[2];
 223:mutff/src/mutff_default.c ****   // convert number to network order
 224:mutff/src/mutff_default.c ****   mutff_hton_16(data, x);
 225:mutff/src/mutff_default.c ****   const MuTFFError err = mutff_write(ctx, &data, 2);
 226:mutff/src/mutff_default.c ****   if (err != MuTFFErrorNone) {
 227:mutff/src/mutff_default.c ****     return err;
 228:mutff/src/mutff_default.c ****   }
 229:mutff/src/mutff_default.c ****   *n = 2U;
 230:mutff/src/mutff_default.c ****   return MuTFFErrorNone;
 231:mutff/src/mutff_default.c **** }
 232:mutff/src/mutff_default.c **** 
 233:mutff/src/mutff_default.c **** static inline MuTFFError mutff_write_i16(MuTFFContext *ctx, size_t *n,
 234:mutff/src/mutff_default.c ****                                          int16_t x) {
 235:mutff/src/mutff_default.c ****   MuTFFError err;
 236:mutff/src/mutff_default.c ****   size_t bytes;
 237:mutff/src/mutff_default.c ****   *n = 0;
 238:mutff/src/mutff_default.c ****   x = x >= 0 ? x : ~abs(x) + 1;
 239:mutff/src/mutff_default.c ****   MuTFF_FN(mutff_write_u16, x);
 240:mutff/src/mutff_default.c ****   return MuTFFErrorNone;
 241:mutff/src/mutff_default.c **** }
 242:mutff/src/mutff_default.c **** 
 243:mutff/src/mutff_default.c **** static MuTFFError mutff_write_u24(MuTFFContext *ctx, size_t *n,
 244:mutff/src/mutff_default.c ****                                   mutff_uint24_t x) {
 245:mutff/src/mutff_default.c ****   unsigned char data[3];
 246:mutff/src/mutff_default.c ****   mutff_hton_24(data, x);
 247:mutff/src/mutff_default.c ****   const MuTFFError err = mutff_write(ctx, &data, 3);
 248:mutff/src/mutff_default.c ****   if (err != MuTFFErrorNone) {
 249:mutff/src/mutff_default.c ****     return err;
 250:mutff/src/mutff_default.c ****   }
 251:mutff/src/mutff_default.c ****   *n = 3U;
 252:mutff/src/mutff_default.c ****   return MuTFFErrorNone;
 253:mutff/src/mutff_default.c **** }
 254:mutff/src/mutff_default.c **** 
 255:mutff/src/mutff_default.c **** static MuTFFError mutff_write_u32(MuTFFContext *ctx, size_t *n, uint32_t x) {
 256:mutff/src/mutff_default.c ****   unsigned char data[4];
 257:mutff/src/mutff_default.c ****   mutff_hton_32(data, x);
 258:mutff/src/mutff_default.c ****   const MuTFFError err = mutff_write(ctx, &data, 4);
 259:mutff/src/mutff_default.c ****   if (err != MuTFFErrorNone) {
 260:mutff/src/mutff_default.c ****     return err;
 261:mutff/src/mutff_default.c ****   }
ARM GAS  /var/folders/fz/x0kldt2j7vs_j4slv3pyc44m0000gp/T//ccIigdcK.s 			page 11


 262:mutff/src/mutff_default.c ****   *n = 4U;
 263:mutff/src/mutff_default.c ****   return MuTFFErrorNone;
 264:mutff/src/mutff_default.c **** }
 265:mutff/src/mutff_default.c **** 
 266:mutff/src/mutff_default.c **** static inline MuTFFError mutff_write_i32(MuTFFContext *ctx, size_t *n,
 267:mutff/src/mutff_default.c ****                                          int32_t x) {
 268:mutff/src/mutff_default.c ****   return mutff_write_u32(ctx, n, x >= 0 ? x : ~abs(x) + 1);
 269:mutff/src/mutff_default.c **** }
 270:mutff/src/mutff_default.c **** 
 271:mutff/src/mutff_default.c **** static MuTFFError mutff_write_u64(MuTFFContext *ctx, size_t *n, uint64_t x) {
 272:mutff/src/mutff_default.c ****   unsigned char data[8];
 273:mutff/src/mutff_default.c ****   mutff_hton_64(data, x);
 274:mutff/src/mutff_default.c ****   const MuTFFError err = mutff_write(ctx, &data, 8);
 275:mutff/src/mutff_default.c ****   if (err != MuTFFErrorNone) {
 276:mutff/src/mutff_default.c ****     return err;
 277:mutff/src/mutff_default.c ****   }
 278:mutff/src/mutff_default.c ****   *n = 8U;
 279:mutff/src/mutff_default.c ****   return MuTFFErrorNone;
 280:mutff/src/mutff_default.c **** }
 281:mutff/src/mutff_default.c **** 
 282:mutff/src/mutff_default.c **** static MuTFFError mutff_read_q8_8(MuTFFContext *ctx, size_t *n,
 283:mutff/src/mutff_default.c ****                                   mutff_q8_8_t *data) {
 284:mutff/src/mutff_default.c ****   MuTFFError err;
 285:mutff/src/mutff_default.c ****   size_t bytes;
 286:mutff/src/mutff_default.c ****   *n = 0;
 287:mutff/src/mutff_default.c ****   MuTFF_FN(mutff_read_i8, &data->integral);
 288:mutff/src/mutff_default.c ****   MuTFF_FN(mutff_read_u8, &data->fractional);
 289:mutff/src/mutff_default.c ****   return MuTFFErrorNone;
 290:mutff/src/mutff_default.c **** }
 291:mutff/src/mutff_default.c **** 
 292:mutff/src/mutff_default.c **** static MuTFFError mutff_write_q8_8(MuTFFContext *ctx, size_t *n,
 293:mutff/src/mutff_default.c ****                                    mutff_q8_8_t data) {
 294:mutff/src/mutff_default.c ****   MuTFFError err;
 295:mutff/src/mutff_default.c ****   size_t bytes;
 296:mutff/src/mutff_default.c ****   *n = 0;
 297:mutff/src/mutff_default.c ****   MuTFF_FN(mutff_write_i8, data.integral);
 298:mutff/src/mutff_default.c ****   MuTFF_FN(mutff_write_u8, data.fractional);
 299:mutff/src/mutff_default.c ****   return MuTFFErrorNone;
 300:mutff/src/mutff_default.c **** }
 301:mutff/src/mutff_default.c **** 
 302:mutff/src/mutff_default.c **** static MuTFFError mutff_read_q16_16(MuTFFContext *ctx, size_t *n,
 303:mutff/src/mutff_default.c ****                                     mutff_q16_16_t *data) {
 304:mutff/src/mutff_default.c ****   MuTFFError err;
 305:mutff/src/mutff_default.c ****   size_t bytes;
 306:mutff/src/mutff_default.c ****   *n = 0;
 307:mutff/src/mutff_default.c ****   MuTFF_FN(mutff_read_i16, &data->integral);
 308:mutff/src/mutff_default.c ****   MuTFF_FN(mutff_read_u16, &data->fractional);
 309:mutff/src/mutff_default.c ****   return MuTFFErrorNone;
 310:mutff/src/mutff_default.c **** }
 311:mutff/src/mutff_default.c **** 
 312:mutff/src/mutff_default.c **** static MuTFFError mutff_write_q16_16(MuTFFContext *ctx, size_t *n,
 313:mutff/src/mutff_default.c ****                                      mutff_q16_16_t data) {
 314:mutff/src/mutff_default.c ****   MuTFFError err;
 315:mutff/src/mutff_default.c ****   size_t bytes;
 316:mutff/src/mutff_default.c ****   *n = 0;
 317:mutff/src/mutff_default.c ****   MuTFF_FN(mutff_write_i16, data.integral);
 318:mutff/src/mutff_default.c ****   MuTFF_FN(mutff_write_u16, data.fractional);
ARM GAS  /var/folders/fz/x0kldt2j7vs_j4slv3pyc44m0000gp/T//ccIigdcK.s 			page 12


 319:mutff/src/mutff_default.c ****   return MuTFFErrorNone;
 320:mutff/src/mutff_default.c **** }
 321:mutff/src/mutff_default.c **** 
 322:mutff/src/mutff_default.c **** static MuTFFError mutff_read_q2_30(MuTFFContext *ctx, size_t *n,
 323:mutff/src/mutff_default.c ****                                    mutff_q2_30_t *data) {
 324:mutff/src/mutff_default.c ****   MuTFFError err;
 325:mutff/src/mutff_default.c ****   size_t bytes;
 326:mutff/src/mutff_default.c ****   *n = 0;
 327:mutff/src/mutff_default.c **** 
 328:mutff/src/mutff_default.c ****   uint32_t x;
 329:mutff/src/mutff_default.c ****   MuTFF_FN(mutff_read_u32, &x);
 330:mutff/src/mutff_default.c ****   data->integral = ((x & 0x40000000U) >> 30U) - ((x & 0x80000000U) >> 30U);
 331:mutff/src/mutff_default.c ****   data->fractional = x & 0x3FFFFFFFU;
 332:mutff/src/mutff_default.c **** 
 333:mutff/src/mutff_default.c ****   return MuTFFErrorNone;
 334:mutff/src/mutff_default.c **** }
 335:mutff/src/mutff_default.c **** 
 336:mutff/src/mutff_default.c **** static MuTFFError mutff_write_q2_30(MuTFFContext *ctx, size_t *n,
 337:mutff/src/mutff_default.c ****                                     mutff_q2_30_t data) {
 338:mutff/src/mutff_default.c ****   MuTFFError err;
 339:mutff/src/mutff_default.c ****   size_t bytes;
 340:mutff/src/mutff_default.c ****   *n = 0;
 341:mutff/src/mutff_default.c **** 
 342:mutff/src/mutff_default.c ****   uint32_t x = 0;
 343:mutff/src/mutff_default.c ****   x += (mutff_int_least30_t)(data.integral >= 0
 344:mutff/src/mutff_default.c ****                                  ? (data.integral & 0x1)
 345:mutff/src/mutff_default.c ****                                  : (~abs(data.integral) & 0x1 + 1))
 346:mutff/src/mutff_default.c ****        << 30U;
 347:mutff/src/mutff_default.c ****   x += data.fractional;
 348:mutff/src/mutff_default.c ****   MuTFF_FN(mutff_write_u32, x);
 349:mutff/src/mutff_default.c **** 
 350:mutff/src/mutff_default.c ****   return MuTFFErrorNone;
 351:mutff/src/mutff_default.c **** }
 352:mutff/src/mutff_default.c **** 
 353:mutff/src/mutff_default.c **** static MuTFFError mutff_read_matrix(MuTFFContext *ctx, size_t *n,
 354:mutff/src/mutff_default.c ****                                     MuTFFMatrix *matrix) {
 355:mutff/src/mutff_default.c ****   MuTFFError err;
 356:mutff/src/mutff_default.c ****   size_t bytes;
 357:mutff/src/mutff_default.c ****   *n = 0;
 358:mutff/src/mutff_default.c ****   MuTFF_FN(mutff_read_q16_16, &matrix->a);
 359:mutff/src/mutff_default.c ****   MuTFF_FN(mutff_read_q16_16, &matrix->b);
 360:mutff/src/mutff_default.c ****   MuTFF_FN(mutff_read_q2_30, &matrix->u);
 361:mutff/src/mutff_default.c ****   MuTFF_FN(mutff_read_q16_16, &matrix->c);
 362:mutff/src/mutff_default.c ****   MuTFF_FN(mutff_read_q16_16, &matrix->d);
 363:mutff/src/mutff_default.c ****   MuTFF_FN(mutff_read_q2_30, &matrix->v);
 364:mutff/src/mutff_default.c ****   MuTFF_FN(mutff_read_q16_16, &matrix->tx);
 365:mutff/src/mutff_default.c ****   MuTFF_FN(mutff_read_q16_16, &matrix->ty);
 366:mutff/src/mutff_default.c ****   MuTFF_FN(mutff_read_q2_30, &matrix->w);
 367:mutff/src/mutff_default.c ****   return MuTFFErrorNone;
 368:mutff/src/mutff_default.c **** }
 369:mutff/src/mutff_default.c **** 
 370:mutff/src/mutff_default.c **** static MuTFFError mutff_write_matrix(MuTFFContext *ctx, size_t *n,
 371:mutff/src/mutff_default.c ****                                      MuTFFMatrix matrix) {
 372:mutff/src/mutff_default.c ****   MuTFFError err;
 373:mutff/src/mutff_default.c ****   size_t bytes;
 374:mutff/src/mutff_default.c ****   *n = 0;
 375:mutff/src/mutff_default.c ****   MuTFF_FN(mutff_write_q16_16, matrix.a);
ARM GAS  /var/folders/fz/x0kldt2j7vs_j4slv3pyc44m0000gp/T//ccIigdcK.s 			page 13


 376:mutff/src/mutff_default.c ****   MuTFF_FN(mutff_write_q16_16, matrix.b);
 377:mutff/src/mutff_default.c ****   MuTFF_FN(mutff_write_q2_30, matrix.u);
 378:mutff/src/mutff_default.c ****   MuTFF_FN(mutff_write_q16_16, matrix.c);
 379:mutff/src/mutff_default.c ****   MuTFF_FN(mutff_write_q16_16, matrix.d);
 380:mutff/src/mutff_default.c ****   MuTFF_FN(mutff_write_q2_30, matrix.v);
 381:mutff/src/mutff_default.c ****   MuTFF_FN(mutff_write_q16_16, matrix.tx);
 382:mutff/src/mutff_default.c ****   MuTFF_FN(mutff_write_q16_16, matrix.ty);
 383:mutff/src/mutff_default.c ****   MuTFF_FN(mutff_write_q2_30, matrix.w);
 384:mutff/src/mutff_default.c ****   return MuTFFErrorNone;
 385:mutff/src/mutff_default.c **** }
 386:mutff/src/mutff_default.c **** 
 387:mutff/src/mutff_default.c **** // return the size of an atom including its header, given the size of the data
 388:mutff/src/mutff_default.c **** // in it
 389:mutff/src/mutff_default.c **** static inline uint64_t mutff_atom_size(uint64_t data_size) {
 390:mutff/src/mutff_default.c ****   return data_size + 8U <= UINT32_MAX ? data_size + 8U : data_size + 16U;
 391:mutff/src/mutff_default.c **** }
 392:mutff/src/mutff_default.c **** 
 393:mutff/src/mutff_default.c **** // return the size of the data in an atom, given the size of the entire atom
 394:mutff/src/mutff_default.c **** // including its header in it
 395:mutff/src/mutff_default.c **** static inline uint64_t mutff_data_size(uint64_t atom_size) {
 396:mutff/src/mutff_default.c ****   return atom_size <= UINT32_MAX ? atom_size - 8U : atom_size - 16U;
 397:mutff/src/mutff_default.c **** }
 398:mutff/src/mutff_default.c **** 
 399:mutff/src/mutff_default.c **** static MuTFFError mutff_read_header(MuTFFContext *ctx, size_t *n,
 400:mutff/src/mutff_default.c ****                                     uint64_t *size, uint32_t *type) {
 401:mutff/src/mutff_default.c ****   MuTFFError err;
 402:mutff/src/mutff_default.c ****   size_t bytes;
 403:mutff/src/mutff_default.c ****   *n = 0;
 404:mutff/src/mutff_default.c ****   uint32_t short_size;
 405:mutff/src/mutff_default.c **** 
 406:mutff/src/mutff_default.c ****   MuTFF_FN(mutff_read_u32, &short_size);
 407:mutff/src/mutff_default.c ****   MuTFF_FN(mutff_read_u32, type);
 408:mutff/src/mutff_default.c ****   if (short_size == 1U) {
 409:mutff/src/mutff_default.c ****     MuTFF_FN(mutff_read_u64, size);
 410:mutff/src/mutff_default.c ****   } else {
 411:mutff/src/mutff_default.c ****     *size = short_size;
 412:mutff/src/mutff_default.c ****   }
 413:mutff/src/mutff_default.c **** 
 414:mutff/src/mutff_default.c ****   return MuTFFErrorNone;
 415:mutff/src/mutff_default.c **** }
 416:mutff/src/mutff_default.c **** 
 417:mutff/src/mutff_default.c **** static MuTFFError mutff_peek_atom_header(MuTFFContext *ctx, size_t *n,
 418:mutff/src/mutff_default.c ****                                          uint64_t *size, uint32_t *type) {
 419:mutff/src/mutff_default.c ****   MuTFFError err;
 420:mutff/src/mutff_default.c ****   size_t bytes;
 421:mutff/src/mutff_default.c ****   *n = 0;
 422:mutff/src/mutff_default.c **** 
 423:mutff/src/mutff_default.c ****   MuTFF_FN(mutff_read_header, size, type);
 424:mutff/src/mutff_default.c ****   MuTFF_SEEK_CUR(-bytes);
 425:mutff/src/mutff_default.c **** 
 426:mutff/src/mutff_default.c ****   return MuTFFErrorNone;
 427:mutff/src/mutff_default.c **** }
 428:mutff/src/mutff_default.c **** 
 429:mutff/src/mutff_default.c **** static MuTFFError mutff_write_header(MuTFFContext *ctx, size_t *n,
 430:mutff/src/mutff_default.c ****                                      uint64_t size, uint32_t type) {
 431:mutff/src/mutff_default.c ****   MuTFFError err;
 432:mutff/src/mutff_default.c ****   size_t bytes;
ARM GAS  /var/folders/fz/x0kldt2j7vs_j4slv3pyc44m0000gp/T//ccIigdcK.s 			page 14


 433:mutff/src/mutff_default.c ****   *n = 0;
 434:mutff/src/mutff_default.c **** 
 435:mutff/src/mutff_default.c ****   if (size > UINT32_MAX) {
 436:mutff/src/mutff_default.c ****     MuTFF_FN(mutff_write_u32, 1);
 437:mutff/src/mutff_default.c ****     MuTFF_FN(mutff_write_u32, type);
 438:mutff/src/mutff_default.c ****     MuTFF_FN(mutff_write_u64, size);
 439:mutff/src/mutff_default.c ****   } else {
 440:mutff/src/mutff_default.c ****     MuTFF_FN(mutff_write_u32, size);
 441:mutff/src/mutff_default.c ****     MuTFF_FN(mutff_write_u32, type);
 442:mutff/src/mutff_default.c ****   }
 443:mutff/src/mutff_default.c **** 
 444:mutff/src/mutff_default.c ****   return MuTFFErrorNone;
 445:mutff/src/mutff_default.c **** }
 446:mutff/src/mutff_default.c **** 
 447:mutff/src/mutff_default.c **** MuTFFError mutff_read_quickdraw_rect(MuTFFContext *ctx, size_t *n,
 448:mutff/src/mutff_default.c ****                                      MuTFFQuickDrawRect *out) {
 449:mutff/src/mutff_default.c ****   MuTFFError err;
 450:mutff/src/mutff_default.c ****   size_t bytes;
 451:mutff/src/mutff_default.c ****   *n = 0;
 452:mutff/src/mutff_default.c **** 
 453:mutff/src/mutff_default.c ****   MuTFF_FN(mutff_read_u16, &out->top);
 454:mutff/src/mutff_default.c ****   MuTFF_FN(mutff_read_u16, &out->left);
 455:mutff/src/mutff_default.c ****   MuTFF_FN(mutff_read_u16, &out->bottom);
 456:mutff/src/mutff_default.c ****   MuTFF_FN(mutff_read_u16, &out->right);
 457:mutff/src/mutff_default.c **** 
 458:mutff/src/mutff_default.c ****   return MuTFFErrorNone;
 459:mutff/src/mutff_default.c **** }
 460:mutff/src/mutff_default.c **** 
 461:mutff/src/mutff_default.c **** MuTFFError mutff_write_quickdraw_rect(MuTFFContext *ctx, size_t *n,
 462:mutff/src/mutff_default.c ****                                       const MuTFFQuickDrawRect *in) {
 463:mutff/src/mutff_default.c ****   MuTFFError err;
 464:mutff/src/mutff_default.c ****   size_t bytes;
 465:mutff/src/mutff_default.c ****   *n = 0;
 466:mutff/src/mutff_default.c **** 
 467:mutff/src/mutff_default.c ****   MuTFF_FN(mutff_write_u16, in->top);
 468:mutff/src/mutff_default.c ****   MuTFF_FN(mutff_write_u16, in->left);
 469:mutff/src/mutff_default.c ****   MuTFF_FN(mutff_write_u16, in->bottom);
 470:mutff/src/mutff_default.c ****   MuTFF_FN(mutff_write_u16, in->right);
 471:mutff/src/mutff_default.c **** 
 472:mutff/src/mutff_default.c ****   return MuTFFErrorNone;
 473:mutff/src/mutff_default.c **** }
 474:mutff/src/mutff_default.c **** 
 475:mutff/src/mutff_default.c **** MuTFFError mutff_read_quickdraw_region(MuTFFContext *ctx, size_t *n,
 476:mutff/src/mutff_default.c ****                                        MuTFFQuickDrawRegion *out) {
 477:mutff/src/mutff_default.c ****   MuTFFError err;
 478:mutff/src/mutff_default.c ****   size_t bytes;
 479:mutff/src/mutff_default.c ****   *n = 0;
 480:mutff/src/mutff_default.c **** 
 481:mutff/src/mutff_default.c ****   MuTFF_FN(mutff_read_u16, &out->size);
 482:mutff/src/mutff_default.c ****   MuTFF_FN(mutff_read_quickdraw_rect, &out->rect);
 483:mutff/src/mutff_default.c ****   const uint16_t data_size = out->size - *n;
 484:mutff/src/mutff_default.c ****   for (uint16_t i = 0; i < data_size; ++i) {
 485:mutff/src/mutff_default.c ****     MuTFF_FN(mutff_read_u8, (uint8_t *)&out->data[i]);
 486:mutff/src/mutff_default.c ****   }
 487:mutff/src/mutff_default.c **** 
 488:mutff/src/mutff_default.c ****   return MuTFFErrorNone;
 489:mutff/src/mutff_default.c **** }
ARM GAS  /var/folders/fz/x0kldt2j7vs_j4slv3pyc44m0000gp/T//ccIigdcK.s 			page 15


 490:mutff/src/mutff_default.c **** 
 491:mutff/src/mutff_default.c **** MuTFFError mutff_write_quickdraw_region(MuTFFContext *ctx, size_t *n,
 492:mutff/src/mutff_default.c ****                                         const MuTFFQuickDrawRegion *in) {
 493:mutff/src/mutff_default.c ****   MuTFFError err;
 494:mutff/src/mutff_default.c ****   size_t bytes;
 495:mutff/src/mutff_default.c ****   *n = 0;
 496:mutff/src/mutff_default.c **** 
 497:mutff/src/mutff_default.c ****   MuTFF_FN(mutff_write_u16, in->size);
 498:mutff/src/mutff_default.c ****   MuTFF_FN(mutff_write_quickdraw_rect, &in->rect);
 499:mutff/src/mutff_default.c ****   for (uint16_t i = 0; i < in->size - 10U; ++i) {
 500:mutff/src/mutff_default.c ****     MuTFF_FN(mutff_write_u8, in->data[i]);
 501:mutff/src/mutff_default.c ****   }
 502:mutff/src/mutff_default.c **** 
 503:mutff/src/mutff_default.c ****   return MuTFFErrorNone;
 504:mutff/src/mutff_default.c **** }
 505:mutff/src/mutff_default.c **** 
 506:mutff/src/mutff_default.c **** MuTFFError mutff_read_file_type_atom(MuTFFContext *ctx, size_t *n,
 507:mutff/src/mutff_default.c ****                                      MuTFFFileTypeAtom *out) {
 508:mutff/src/mutff_default.c ****   MuTFFError err;
 509:mutff/src/mutff_default.c ****   size_t bytes;
 510:mutff/src/mutff_default.c ****   *n = 0;
 511:mutff/src/mutff_default.c ****   uint64_t size;
 512:mutff/src/mutff_default.c ****   uint32_t type;
 513:mutff/src/mutff_default.c **** 
 514:mutff/src/mutff_default.c ****   MuTFF_FN(mutff_read_header, &size, &type);
 515:mutff/src/mutff_default.c ****   if (type != MuTFF_FOURCC('f', 't', 'y', 'p')) {
 516:mutff/src/mutff_default.c ****     return MuTFFErrorBadFormat;
 517:mutff/src/mutff_default.c ****   }
 518:mutff/src/mutff_default.c ****   MuTFF_FN(mutff_read_u32, &out->major_brand);
 519:mutff/src/mutff_default.c ****   MuTFF_FN(mutff_read_u32, &out->minor_version);
 520:mutff/src/mutff_default.c **** 
 521:mutff/src/mutff_default.c ****   // read variable-length data
 522:mutff/src/mutff_default.c ****   out->compatible_brands_count = (size - *n) / 4U;
 523:mutff/src/mutff_default.c ****   if (out->compatible_brands_count > MuTFF_MAX_COMPATIBLE_BRANDS) {
 524:mutff/src/mutff_default.c ****     return MuTFFErrorOutOfMemory;
 525:mutff/src/mutff_default.c ****   }
 526:mutff/src/mutff_default.c ****   for (size_t i = 0; i < out->compatible_brands_count; ++i) {
 527:mutff/src/mutff_default.c ****     MuTFF_FN(mutff_read_u32, &out->compatible_brands[i]);
 528:mutff/src/mutff_default.c ****   }
 529:mutff/src/mutff_default.c ****   MuTFF_SEEK_CUR(size - *n);
 530:mutff/src/mutff_default.c **** 
 531:mutff/src/mutff_default.c ****   return MuTFFErrorNone;
 532:mutff/src/mutff_default.c **** }
 533:mutff/src/mutff_default.c **** 
 534:mutff/src/mutff_default.c **** static inline MuTFFError mutff_file_type_atom_size(
 535:mutff/src/mutff_default.c ****     uint64_t *out, const MuTFFFileTypeAtom *atom) {
 536:mutff/src/mutff_default.c ****   *out = mutff_atom_size(8U + 4U * atom->compatible_brands_count);
 537:mutff/src/mutff_default.c ****   return MuTFFErrorNone;
 538:mutff/src/mutff_default.c **** }
 539:mutff/src/mutff_default.c **** 
 540:mutff/src/mutff_default.c **** MuTFFError mutff_write_file_type_atom(MuTFFContext *ctx, size_t *n,
 541:mutff/src/mutff_default.c ****                                       const MuTFFFileTypeAtom *in) {
 542:mutff/src/mutff_default.c ****   MuTFFError err;
 543:mutff/src/mutff_default.c ****   size_t bytes;
 544:mutff/src/mutff_default.c ****   *n = 0;
 545:mutff/src/mutff_default.c ****   uint64_t size;
 546:mutff/src/mutff_default.c ****   err = mutff_file_type_atom_size(&size, in);
ARM GAS  /var/folders/fz/x0kldt2j7vs_j4slv3pyc44m0000gp/T//ccIigdcK.s 			page 16


 547:mutff/src/mutff_default.c ****   if (err != MuTFFErrorNone) {
 548:mutff/src/mutff_default.c ****     return err;
 549:mutff/src/mutff_default.c ****   }
 550:mutff/src/mutff_default.c **** 
 551:mutff/src/mutff_default.c ****   MuTFF_FN(mutff_write_header, size, MuTFF_FOURCC('f', 't', 'y', 'p'));
 552:mutff/src/mutff_default.c ****   MuTFF_FN(mutff_write_u32, in->major_brand);
 553:mutff/src/mutff_default.c ****   MuTFF_FN(mutff_write_u32, in->minor_version);
 554:mutff/src/mutff_default.c ****   for (size_t i = 0; i < in->compatible_brands_count; ++i) {
 555:mutff/src/mutff_default.c ****     MuTFF_FN(mutff_write_u32, in->compatible_brands[i]);
 556:mutff/src/mutff_default.c ****   }
 557:mutff/src/mutff_default.c **** 
 558:mutff/src/mutff_default.c ****   return MuTFFErrorNone;
 559:mutff/src/mutff_default.c **** }
 560:mutff/src/mutff_default.c **** 
 561:mutff/src/mutff_default.c **** MuTFFError mutff_read_movie_data_atom(MuTFFContext *ctx, size_t *n,
 562:mutff/src/mutff_default.c ****                                       MuTFFMovieDataAtom *out) {
 563:mutff/src/mutff_default.c ****   MuTFFError err;
 564:mutff/src/mutff_default.c ****   size_t bytes;
 565:mutff/src/mutff_default.c ****   *n = 0;
 566:mutff/src/mutff_default.c ****   uint64_t size;
 567:mutff/src/mutff_default.c ****   uint32_t type;
 568:mutff/src/mutff_default.c **** 
 569:mutff/src/mutff_default.c ****   MuTFF_FN(mutff_read_header, &size, &type);
 570:mutff/src/mutff_default.c ****   if (type != MuTFF_FOURCC('m', 'd', 'a', 't')) {
 571:mutff/src/mutff_default.c ****     return MuTFFErrorBadFormat;
 572:mutff/src/mutff_default.c ****   }
 573:mutff/src/mutff_default.c ****   out->data_size = mutff_data_size(size);
 574:mutff/src/mutff_default.c ****   MuTFF_SEEK_CUR(size - *n);
 575:mutff/src/mutff_default.c ****   return MuTFFErrorNone;
 576:mutff/src/mutff_default.c **** }
 577:mutff/src/mutff_default.c **** 
 578:mutff/src/mutff_default.c **** static inline MuTFFError mutff_movie_data_atom_size(
 579:mutff/src/mutff_default.c ****     uint64_t *out, const MuTFFMovieDataAtom *atom) {
 580:mutff/src/mutff_default.c ****   *out = mutff_atom_size(atom->data_size);
 581:mutff/src/mutff_default.c ****   return MuTFFErrorNone;
 582:mutff/src/mutff_default.c **** }
 583:mutff/src/mutff_default.c **** 
 584:mutff/src/mutff_default.c **** MuTFFError mutff_write_movie_data_atom(MuTFFContext *ctx, size_t *n,
 585:mutff/src/mutff_default.c ****                                        const MuTFFMovieDataAtom *in) {
 586:mutff/src/mutff_default.c ****   MuTFFError err;
 587:mutff/src/mutff_default.c ****   size_t bytes;
 588:mutff/src/mutff_default.c ****   *n = 0;
 589:mutff/src/mutff_default.c ****   uint64_t size;
 590:mutff/src/mutff_default.c ****   err = mutff_movie_data_atom_size(&size, in);
 591:mutff/src/mutff_default.c ****   if (err != MuTFFErrorNone) {
 592:mutff/src/mutff_default.c ****     return err;
 593:mutff/src/mutff_default.c ****   }
 594:mutff/src/mutff_default.c ****   MuTFF_FN(mutff_write_header, size, MuTFF_FOURCC('m', 'd', 'a', 't'));
 595:mutff/src/mutff_default.c ****   /* for (uint64_t i = 0; i < in->data_size; ++i) { */
 596:mutff/src/mutff_default.c ****   /*   MuTFF_FN(mutff_write_u8, 0); */
 597:mutff/src/mutff_default.c ****   /* } */
 598:mutff/src/mutff_default.c ****   return MuTFFErrorNone;
 599:mutff/src/mutff_default.c **** }
 600:mutff/src/mutff_default.c **** 
 601:mutff/src/mutff_default.c **** MuTFFError mutff_read_free_atom(MuTFFContext *ctx, size_t *n,
 602:mutff/src/mutff_default.c ****                                 MuTFFFreeAtom *out) {
 603:mutff/src/mutff_default.c ****   MuTFFError err;
ARM GAS  /var/folders/fz/x0kldt2j7vs_j4slv3pyc44m0000gp/T//ccIigdcK.s 			page 17


 604:mutff/src/mutff_default.c ****   size_t bytes;
 605:mutff/src/mutff_default.c ****   *n = 0;
 606:mutff/src/mutff_default.c ****   uint64_t size;
 607:mutff/src/mutff_default.c ****   uint32_t type;
 608:mutff/src/mutff_default.c ****   MuTFF_FN(mutff_read_header, &size, &type);
 609:mutff/src/mutff_default.c ****   if (type != MuTFF_FOURCC('f', 'r', 'e', 'e')) {
 610:mutff/src/mutff_default.c ****     return MuTFFErrorBadFormat;
 611:mutff/src/mutff_default.c ****   }
 612:mutff/src/mutff_default.c ****   out->atom_size = size;
 613:mutff/src/mutff_default.c ****   MuTFF_SEEK_CUR(size - *n);
 614:mutff/src/mutff_default.c ****   return MuTFFErrorNone;
 615:mutff/src/mutff_default.c **** }
 616:mutff/src/mutff_default.c **** 
 617:mutff/src/mutff_default.c **** static inline MuTFFError mutff_free_atom_size(uint64_t *out,
 618:mutff/src/mutff_default.c ****                                               const MuTFFFreeAtom *atom) {
 619:mutff/src/mutff_default.c ****   *out = atom->atom_size;
 620:mutff/src/mutff_default.c ****   return MuTFFErrorNone;
 621:mutff/src/mutff_default.c **** }
 622:mutff/src/mutff_default.c **** 
 623:mutff/src/mutff_default.c **** MuTFFError mutff_write_free_atom(MuTFFContext *ctx, size_t *n,
 624:mutff/src/mutff_default.c ****                                  const MuTFFFreeAtom *in) {
 625:mutff/src/mutff_default.c ****   MuTFFError err;
 626:mutff/src/mutff_default.c ****   size_t bytes;
 627:mutff/src/mutff_default.c ****   *n = 0;
 628:mutff/src/mutff_default.c ****   uint64_t size;
 629:mutff/src/mutff_default.c ****   err = mutff_free_atom_size(&size, in);
 630:mutff/src/mutff_default.c ****   if (err != MuTFFErrorNone) {
 631:mutff/src/mutff_default.c ****     return err;
 632:mutff/src/mutff_default.c ****   }
 633:mutff/src/mutff_default.c ****   MuTFF_FN(mutff_write_header, size, MuTFF_FOURCC('f', 'r', 'e', 'e'));
 634:mutff/src/mutff_default.c ****   for (uint64_t i = 0; i < mutff_data_size(in->atom_size); ++i) {
 635:mutff/src/mutff_default.c ****     MuTFF_FN(mutff_write_u8, 0);
 636:mutff/src/mutff_default.c ****   }
 637:mutff/src/mutff_default.c ****   return MuTFFErrorNone;
 638:mutff/src/mutff_default.c **** }
 639:mutff/src/mutff_default.c **** 
 640:mutff/src/mutff_default.c **** MuTFFError mutff_read_skip_atom(MuTFFContext *ctx, size_t *n,
 641:mutff/src/mutff_default.c ****                                 MuTFFSkipAtom *out) {
 642:mutff/src/mutff_default.c ****   MuTFFError err;
 643:mutff/src/mutff_default.c ****   size_t bytes;
 644:mutff/src/mutff_default.c ****   *n = 0;
 645:mutff/src/mutff_default.c ****   uint64_t size;
 646:mutff/src/mutff_default.c ****   uint32_t type;
 647:mutff/src/mutff_default.c ****   MuTFF_FN(mutff_read_header, &size, &type);
 648:mutff/src/mutff_default.c ****   if (type != MuTFF_FOURCC('s', 'k', 'i', 'p')) {
 649:mutff/src/mutff_default.c ****     return MuTFFErrorBadFormat;
 650:mutff/src/mutff_default.c ****   }
 651:mutff/src/mutff_default.c ****   out->atom_size = size;
 652:mutff/src/mutff_default.c ****   MuTFF_SEEK_CUR(size - *n);
 653:mutff/src/mutff_default.c ****   return MuTFFErrorNone;
 654:mutff/src/mutff_default.c **** }
 655:mutff/src/mutff_default.c **** 
 656:mutff/src/mutff_default.c **** static inline MuTFFError mutff_skip_atom_size(uint64_t *out,
 657:mutff/src/mutff_default.c ****                                               const MuTFFSkipAtom *atom) {
 658:mutff/src/mutff_default.c ****   *out = atom->atom_size;
 659:mutff/src/mutff_default.c ****   return MuTFFErrorNone;
 660:mutff/src/mutff_default.c **** }
ARM GAS  /var/folders/fz/x0kldt2j7vs_j4slv3pyc44m0000gp/T//ccIigdcK.s 			page 18


 661:mutff/src/mutff_default.c **** 
 662:mutff/src/mutff_default.c **** MuTFFError mutff_write_skip_atom(MuTFFContext *ctx, size_t *n,
 663:mutff/src/mutff_default.c ****                                  const MuTFFSkipAtom *in) {
 664:mutff/src/mutff_default.c ****   MuTFFError err;
 665:mutff/src/mutff_default.c ****   size_t bytes;
 666:mutff/src/mutff_default.c ****   *n = 0;
 667:mutff/src/mutff_default.c ****   uint64_t size;
 668:mutff/src/mutff_default.c ****   err = mutff_skip_atom_size(&size, in);
 669:mutff/src/mutff_default.c ****   if (err != MuTFFErrorNone) {
 670:mutff/src/mutff_default.c ****     return err;
 671:mutff/src/mutff_default.c ****   }
 672:mutff/src/mutff_default.c ****   MuTFF_FN(mutff_write_header, size, MuTFF_FOURCC('s', 'k', 'i', 'p'));
 673:mutff/src/mutff_default.c ****   for (uint64_t i = 0; i < mutff_data_size(in->atom_size); ++i) {
 674:mutff/src/mutff_default.c ****     MuTFF_FN(mutff_write_u8, 0);
 675:mutff/src/mutff_default.c ****   }
 676:mutff/src/mutff_default.c ****   return MuTFFErrorNone;
 677:mutff/src/mutff_default.c **** }
 678:mutff/src/mutff_default.c **** 
 679:mutff/src/mutff_default.c **** MuTFFError mutff_read_wide_atom(MuTFFContext *ctx, size_t *n,
 680:mutff/src/mutff_default.c ****                                 MuTFFWideAtom *out) {
 681:mutff/src/mutff_default.c ****   MuTFFError err;
 682:mutff/src/mutff_default.c ****   size_t bytes;
 683:mutff/src/mutff_default.c ****   *n = 0;
 684:mutff/src/mutff_default.c ****   uint64_t size;
 685:mutff/src/mutff_default.c ****   uint32_t type;
 686:mutff/src/mutff_default.c ****   MuTFF_FN(mutff_read_header, &size, &type);
 687:mutff/src/mutff_default.c ****   if (type != MuTFF_FOURCC('w', 'i', 'd', 'e')) {
 688:mutff/src/mutff_default.c ****     return MuTFFErrorBadFormat;
 689:mutff/src/mutff_default.c ****   }
 690:mutff/src/mutff_default.c ****   out->atom_size = size;
 691:mutff/src/mutff_default.c ****   MuTFF_SEEK_CUR(size - *n);
 692:mutff/src/mutff_default.c ****   return MuTFFErrorNone;
 693:mutff/src/mutff_default.c **** }
 694:mutff/src/mutff_default.c **** 
 695:mutff/src/mutff_default.c **** static inline MuTFFError mutff_wide_atom_size(uint64_t *out,
 696:mutff/src/mutff_default.c ****                                               const MuTFFWideAtom *atom) {
 697:mutff/src/mutff_default.c ****   *out = atom->atom_size;
 698:mutff/src/mutff_default.c ****   return MuTFFErrorNone;
 699:mutff/src/mutff_default.c **** }
 700:mutff/src/mutff_default.c **** 
 701:mutff/src/mutff_default.c **** MuTFFError mutff_write_wide_atom(MuTFFContext *ctx, size_t *n,
 702:mutff/src/mutff_default.c ****                                  const MuTFFWideAtom *in) {
 703:mutff/src/mutff_default.c ****   MuTFFError err;
 704:mutff/src/mutff_default.c ****   size_t bytes;
 705:mutff/src/mutff_default.c ****   *n = 0;
 706:mutff/src/mutff_default.c ****   uint64_t size;
 707:mutff/src/mutff_default.c ****   err = mutff_wide_atom_size(&size, in);
 708:mutff/src/mutff_default.c ****   if (err != MuTFFErrorNone) {
 709:mutff/src/mutff_default.c ****     return err;
 710:mutff/src/mutff_default.c ****   }
 711:mutff/src/mutff_default.c ****   MuTFF_FN(mutff_write_header, size, MuTFF_FOURCC('w', 'i', 'd', 'e'));
 712:mutff/src/mutff_default.c ****   for (uint64_t i = 0; i < mutff_data_size(in->atom_size); ++i) {
 713:mutff/src/mutff_default.c ****     MuTFF_FN(mutff_write_u8, 0);
 714:mutff/src/mutff_default.c ****   }
 715:mutff/src/mutff_default.c ****   return MuTFFErrorNone;
 716:mutff/src/mutff_default.c **** }
 717:mutff/src/mutff_default.c **** 
ARM GAS  /var/folders/fz/x0kldt2j7vs_j4slv3pyc44m0000gp/T//ccIigdcK.s 			page 19


 718:mutff/src/mutff_default.c **** MuTFFError mutff_read_preview_atom(MuTFFContext *ctx, size_t *n,
 719:mutff/src/mutff_default.c ****                                    MuTFFPreviewAtom *out) {
 720:mutff/src/mutff_default.c ****   MuTFFError err;
 721:mutff/src/mutff_default.c ****   size_t bytes;
 722:mutff/src/mutff_default.c ****   *n = 0;
 723:mutff/src/mutff_default.c ****   uint64_t size;
 724:mutff/src/mutff_default.c ****   uint32_t type;
 725:mutff/src/mutff_default.c ****   MuTFF_FN(mutff_read_header, &size, &type);
 726:mutff/src/mutff_default.c ****   if (type != MuTFF_FOURCC('p', 'n', 'o', 't')) {
 727:mutff/src/mutff_default.c ****     return MuTFFErrorBadFormat;
 728:mutff/src/mutff_default.c ****   }
 729:mutff/src/mutff_default.c ****   MuTFF_FN(mutff_read_u32, &out->modification_time);
 730:mutff/src/mutff_default.c ****   MuTFF_FN(mutff_read_u16, &out->version);
 731:mutff/src/mutff_default.c ****   MuTFF_FN(mutff_read_u32, &out->atom_type);
 732:mutff/src/mutff_default.c ****   MuTFF_FN(mutff_read_u16, &out->atom_index);
 733:mutff/src/mutff_default.c ****   MuTFF_SEEK_CUR(size - *n);
 734:mutff/src/mutff_default.c ****   return MuTFFErrorNone;
 735:mutff/src/mutff_default.c **** }
 736:mutff/src/mutff_default.c **** 
 737:mutff/src/mutff_default.c **** static inline MuTFFError mutff_preview_atom_size(uint64_t *out,
 738:mutff/src/mutff_default.c ****                                                  const MuTFFPreviewAtom *atom) {
 739:mutff/src/mutff_default.c ****   *out = mutff_atom_size(12);
 740:mutff/src/mutff_default.c ****   return MuTFFErrorNone;
 741:mutff/src/mutff_default.c **** }
 742:mutff/src/mutff_default.c **** 
 743:mutff/src/mutff_default.c **** MuTFFError mutff_write_preview_atom(MuTFFContext *ctx, size_t *n,
 744:mutff/src/mutff_default.c ****                                     const MuTFFPreviewAtom *in) {
 745:mutff/src/mutff_default.c ****   MuTFFError err;
 746:mutff/src/mutff_default.c ****   size_t bytes;
 747:mutff/src/mutff_default.c ****   *n = 0;
 748:mutff/src/mutff_default.c ****   uint64_t size;
 749:mutff/src/mutff_default.c ****   err = mutff_preview_atom_size(&size, in);
 750:mutff/src/mutff_default.c ****   if (err != MuTFFErrorNone) {
 751:mutff/src/mutff_default.c ****     return err;
 752:mutff/src/mutff_default.c ****   }
 753:mutff/src/mutff_default.c ****   MuTFF_FN(mutff_write_header, size, MuTFF_FOURCC('p', 'n', 'o', 't'));
 754:mutff/src/mutff_default.c ****   MuTFF_FN(mutff_write_u32, in->modification_time);
 755:mutff/src/mutff_default.c ****   MuTFF_FN(mutff_write_u16, in->version);
 756:mutff/src/mutff_default.c ****   MuTFF_FN(mutff_write_u32, in->atom_type);
 757:mutff/src/mutff_default.c ****   MuTFF_FN(mutff_write_u16, in->atom_index);
 758:mutff/src/mutff_default.c ****   return MuTFFErrorNone;
 759:mutff/src/mutff_default.c **** }
 760:mutff/src/mutff_default.c **** 
 761:mutff/src/mutff_default.c **** MuTFFError mutff_read_movie_header_atom(MuTFFContext *ctx, size_t *n,
 762:mutff/src/mutff_default.c ****                                         MuTFFMovieHeaderAtom *out) {
 763:mutff/src/mutff_default.c ****   MuTFFError err;
 764:mutff/src/mutff_default.c ****   size_t bytes;
 765:mutff/src/mutff_default.c ****   *n = 0;
 766:mutff/src/mutff_default.c ****   uint64_t size;
 767:mutff/src/mutff_default.c ****   uint32_t type;
 768:mutff/src/mutff_default.c ****   MuTFF_FN(mutff_read_header, &size, &type);
 769:mutff/src/mutff_default.c ****   if (type != MuTFF_FOURCC('m', 'v', 'h', 'd')) {
 770:mutff/src/mutff_default.c ****     return MuTFFErrorBadFormat;
 771:mutff/src/mutff_default.c ****   }
 772:mutff/src/mutff_default.c ****   MuTFF_FN(mutff_read_u8, &out->version);
 773:mutff/src/mutff_default.c ****   MuTFF_FN(mutff_read_u24, &out->flags);
 774:mutff/src/mutff_default.c ****   MuTFF_FN(mutff_read_u32, &out->creation_time);
ARM GAS  /var/folders/fz/x0kldt2j7vs_j4slv3pyc44m0000gp/T//ccIigdcK.s 			page 20


 775:mutff/src/mutff_default.c ****   MuTFF_FN(mutff_read_u32, &out->modification_time);
 776:mutff/src/mutff_default.c ****   MuTFF_FN(mutff_read_u32, &out->time_scale);
 777:mutff/src/mutff_default.c ****   MuTFF_FN(mutff_read_u32, &out->duration);
 778:mutff/src/mutff_default.c ****   MuTFF_FN(mutff_read_q16_16, &out->preferred_rate);
 779:mutff/src/mutff_default.c ****   MuTFF_FN(mutff_read_q8_8, &out->preferred_volume);
 780:mutff/src/mutff_default.c ****   MuTFF_SEEK_CUR(10U);
 781:mutff/src/mutff_default.c ****   MuTFF_FN(mutff_read_matrix, &out->matrix_structure);
 782:mutff/src/mutff_default.c ****   MuTFF_FN(mutff_read_u32, &out->preview_time);
 783:mutff/src/mutff_default.c ****   MuTFF_FN(mutff_read_u32, &out->preview_duration);
 784:mutff/src/mutff_default.c ****   MuTFF_FN(mutff_read_u32, &out->poster_time);
 785:mutff/src/mutff_default.c ****   MuTFF_FN(mutff_read_u32, &out->selection_time);
 786:mutff/src/mutff_default.c ****   MuTFF_FN(mutff_read_u32, &out->selection_duration);
 787:mutff/src/mutff_default.c ****   MuTFF_FN(mutff_read_u32, &out->current_time);
 788:mutff/src/mutff_default.c ****   MuTFF_FN(mutff_read_u32, &out->next_track_id);
 789:mutff/src/mutff_default.c ****   MuTFF_SEEK_CUR(size - *n);
 790:mutff/src/mutff_default.c ****   return MuTFFErrorNone;
 791:mutff/src/mutff_default.c **** }
 792:mutff/src/mutff_default.c **** 
 793:mutff/src/mutff_default.c **** static inline MuTFFError mutff_movie_header_atom_size(
 794:mutff/src/mutff_default.c ****     uint64_t *out, const MuTFFMovieHeaderAtom *atom) {
 795:mutff/src/mutff_default.c ****   *out = mutff_atom_size(100);
 796:mutff/src/mutff_default.c ****   return MuTFFErrorNone;
 797:mutff/src/mutff_default.c **** }
 798:mutff/src/mutff_default.c **** 
 799:mutff/src/mutff_default.c **** MuTFFError mutff_write_movie_header_atom(MuTFFContext *ctx, size_t *n,
 800:mutff/src/mutff_default.c ****                                          const MuTFFMovieHeaderAtom *in) {
 801:mutff/src/mutff_default.c ****   MuTFFError err;
 802:mutff/src/mutff_default.c ****   size_t bytes;
 803:mutff/src/mutff_default.c ****   *n = 0;
 804:mutff/src/mutff_default.c ****   uint64_t size;
 805:mutff/src/mutff_default.c ****   err = mutff_movie_header_atom_size(&size, in);
 806:mutff/src/mutff_default.c ****   if (err != MuTFFErrorNone) {
 807:mutff/src/mutff_default.c ****     return err;
 808:mutff/src/mutff_default.c ****   }
 809:mutff/src/mutff_default.c ****   MuTFF_FN(mutff_write_header, size, MuTFF_FOURCC('m', 'v', 'h', 'd'));
 810:mutff/src/mutff_default.c ****   MuTFF_FN(mutff_write_u8, in->version);
 811:mutff/src/mutff_default.c ****   MuTFF_FN(mutff_write_u24, in->flags);
 812:mutff/src/mutff_default.c ****   MuTFF_FN(mutff_write_u32, in->creation_time);
 813:mutff/src/mutff_default.c ****   MuTFF_FN(mutff_write_u32, in->modification_time);
 814:mutff/src/mutff_default.c ****   MuTFF_FN(mutff_write_u32, in->time_scale);
 815:mutff/src/mutff_default.c ****   MuTFF_FN(mutff_write_u32, in->duration);
 816:mutff/src/mutff_default.c ****   MuTFF_FN(mutff_write_q16_16, in->preferred_rate);
 817:mutff/src/mutff_default.c ****   MuTFF_FN(mutff_write_q8_8, in->preferred_volume);
 818:mutff/src/mutff_default.c ****   for (size_t i = 0; i < 10U; ++i) {
 819:mutff/src/mutff_default.c ****     MuTFF_FN(mutff_write_u8, 0);
 820:mutff/src/mutff_default.c ****   }
 821:mutff/src/mutff_default.c ****   MuTFF_FN(mutff_write_matrix, in->matrix_structure);
 822:mutff/src/mutff_default.c ****   MuTFF_FN(mutff_write_u32, in->preview_time);
 823:mutff/src/mutff_default.c ****   MuTFF_FN(mutff_write_u32, in->preview_duration);
 824:mutff/src/mutff_default.c ****   MuTFF_FN(mutff_write_u32, in->poster_time);
 825:mutff/src/mutff_default.c ****   MuTFF_FN(mutff_write_u32, in->selection_time);
 826:mutff/src/mutff_default.c ****   MuTFF_FN(mutff_write_u32, in->selection_duration);
 827:mutff/src/mutff_default.c ****   MuTFF_FN(mutff_write_u32, in->current_time);
 828:mutff/src/mutff_default.c ****   MuTFF_FN(mutff_write_u32, in->next_track_id);
 829:mutff/src/mutff_default.c ****   return MuTFFErrorNone;
 830:mutff/src/mutff_default.c **** }
 831:mutff/src/mutff_default.c **** 
ARM GAS  /var/folders/fz/x0kldt2j7vs_j4slv3pyc44m0000gp/T//ccIigdcK.s 			page 21


 832:mutff/src/mutff_default.c **** MuTFFError mutff_read_clipping_region_atom(MuTFFContext *ctx, size_t *n,
 833:mutff/src/mutff_default.c ****                                            MuTFFClippingRegionAtom *out) {
 834:mutff/src/mutff_default.c ****   MuTFFError err;
 835:mutff/src/mutff_default.c ****   size_t bytes;
 836:mutff/src/mutff_default.c ****   *n = 0;
 837:mutff/src/mutff_default.c ****   uint64_t size;
 838:mutff/src/mutff_default.c ****   uint32_t type;
 839:mutff/src/mutff_default.c **** 
 840:mutff/src/mutff_default.c ****   MuTFF_FN(mutff_read_header, &size, &type);
 841:mutff/src/mutff_default.c ****   if (type != MuTFF_FOURCC('c', 'r', 'g', 'n')) {
 842:mutff/src/mutff_default.c ****     return MuTFFErrorBadFormat;
 843:mutff/src/mutff_default.c ****   }
 844:mutff/src/mutff_default.c ****   MuTFF_FN(mutff_read_quickdraw_region, &out->region);
 845:mutff/src/mutff_default.c ****   MuTFF_SEEK_CUR(size - *n);
 846:mutff/src/mutff_default.c **** 
 847:mutff/src/mutff_default.c ****   return MuTFFErrorNone;
 848:mutff/src/mutff_default.c **** }
 849:mutff/src/mutff_default.c **** 
 850:mutff/src/mutff_default.c **** static inline MuTFFError mutff_clipping_region_atom_size(
 851:mutff/src/mutff_default.c ****     uint64_t *out, const MuTFFClippingRegionAtom *atom) {
 852:mutff/src/mutff_default.c ****   *out = mutff_atom_size(atom->region.size);
 853:mutff/src/mutff_default.c ****   return MuTFFErrorNone;
 854:mutff/src/mutff_default.c **** }
 855:mutff/src/mutff_default.c **** 
 856:mutff/src/mutff_default.c **** MuTFFError mutff_write_clipping_region_atom(MuTFFContext *ctx, size_t *n,
 857:mutff/src/mutff_default.c ****                                             const MuTFFClippingRegionAtom *in) {
 858:mutff/src/mutff_default.c ****   MuTFFError err;
 859:mutff/src/mutff_default.c ****   size_t bytes;
 860:mutff/src/mutff_default.c ****   *n = 0;
 861:mutff/src/mutff_default.c ****   uint64_t size;
 862:mutff/src/mutff_default.c ****   err = mutff_clipping_region_atom_size(&size, in);
 863:mutff/src/mutff_default.c ****   if (err != MuTFFErrorNone) {
 864:mutff/src/mutff_default.c ****     return err;
 865:mutff/src/mutff_default.c ****   }
 866:mutff/src/mutff_default.c ****   MuTFF_FN(mutff_write_header, size, MuTFF_FOURCC('c', 'r', 'g', 'n'));
 867:mutff/src/mutff_default.c ****   MuTFF_FN(mutff_write_quickdraw_region, &in->region);
 868:mutff/src/mutff_default.c ****   return MuTFFErrorNone;
 869:mutff/src/mutff_default.c **** }
 870:mutff/src/mutff_default.c **** 
 871:mutff/src/mutff_default.c **** MuTFFError mutff_read_clipping_atom(MuTFFContext *ctx, size_t *n,
 872:mutff/src/mutff_default.c ****                                     MuTFFClippingAtom *out) {
 873:mutff/src/mutff_default.c ****   MuTFFError err;
 874:mutff/src/mutff_default.c ****   size_t bytes;
 875:mutff/src/mutff_default.c ****   *n = 0;
 876:mutff/src/mutff_default.c ****   uint64_t size;
 877:mutff/src/mutff_default.c ****   uint32_t type;
 878:mutff/src/mutff_default.c ****   bool clipping_region_present = false;
 879:mutff/src/mutff_default.c **** 
 880:mutff/src/mutff_default.c ****   MuTFF_FN(mutff_read_header, &size, &type);
 881:mutff/src/mutff_default.c ****   if (type != MuTFF_FOURCC('c', 'l', 'i', 'p')) {
 882:mutff/src/mutff_default.c ****     return MuTFFErrorBadFormat;
 883:mutff/src/mutff_default.c ****   }
 884:mutff/src/mutff_default.c ****   uint64_t child_size;
 885:mutff/src/mutff_default.c ****   uint32_t child_type;
 886:mutff/src/mutff_default.c ****   while (*n < size) {
 887:mutff/src/mutff_default.c ****     MuTFF_FN(mutff_peek_atom_header, &child_size, &child_type);
 888:mutff/src/mutff_default.c ****     if (size == 0U) {
ARM GAS  /var/folders/fz/x0kldt2j7vs_j4slv3pyc44m0000gp/T//ccIigdcK.s 			page 22


 889:mutff/src/mutff_default.c ****       return MuTFFErrorBadFormat;
 890:mutff/src/mutff_default.c ****     }
 891:mutff/src/mutff_default.c ****     if (*n + child_size > size) {
 892:mutff/src/mutff_default.c ****       return MuTFFErrorBadFormat;
 893:mutff/src/mutff_default.c ****     }
 894:mutff/src/mutff_default.c ****     if (child_type == MuTFF_FOURCC('c', 'r', 'g', 'n')) {
 895:mutff/src/mutff_default.c ****       MuTFF_READ_CHILD(mutff_read_clipping_region_atom, &out->clipping_region,
 896:mutff/src/mutff_default.c ****                        clipping_region_present);
 897:mutff/src/mutff_default.c ****     } else {
 898:mutff/src/mutff_default.c ****       MuTFF_SEEK_CUR(child_size);
 899:mutff/src/mutff_default.c ****     }
 900:mutff/src/mutff_default.c ****   }
 901:mutff/src/mutff_default.c **** 
 902:mutff/src/mutff_default.c ****   if (!clipping_region_present) {
 903:mutff/src/mutff_default.c ****     return MuTFFErrorBadFormat;
 904:mutff/src/mutff_default.c ****   }
 905:mutff/src/mutff_default.c **** 
 906:mutff/src/mutff_default.c ****   return MuTFFErrorNone;
 907:mutff/src/mutff_default.c **** }
 908:mutff/src/mutff_default.c **** 
 909:mutff/src/mutff_default.c **** static inline MuTFFError mutff_clipping_atom_size(
 910:mutff/src/mutff_default.c ****     uint64_t *out, const MuTFFClippingAtom *atom) {
 911:mutff/src/mutff_default.c ****   uint64_t size;
 912:mutff/src/mutff_default.c ****   const MuTFFError err =
 913:mutff/src/mutff_default.c ****       mutff_clipping_region_atom_size(&size, &atom->clipping_region);
 914:mutff/src/mutff_default.c ****   if (err != MuTFFErrorNone) {
 915:mutff/src/mutff_default.c ****     return err;
 916:mutff/src/mutff_default.c ****   }
 917:mutff/src/mutff_default.c ****   *out = mutff_atom_size(size);
 918:mutff/src/mutff_default.c ****   return MuTFFErrorNone;
 919:mutff/src/mutff_default.c **** }
 920:mutff/src/mutff_default.c **** 
 921:mutff/src/mutff_default.c **** MuTFFError mutff_write_clipping_atom(MuTFFContext *ctx, size_t *n,
 922:mutff/src/mutff_default.c ****                                      const MuTFFClippingAtom *in) {
 923:mutff/src/mutff_default.c ****   MuTFFError err;
 924:mutff/src/mutff_default.c ****   size_t bytes;
 925:mutff/src/mutff_default.c ****   *n = 0;
 926:mutff/src/mutff_default.c ****   uint64_t size;
 927:mutff/src/mutff_default.c ****   err = mutff_clipping_atom_size(&size, in);
 928:mutff/src/mutff_default.c ****   if (err != MuTFFErrorNone) {
 929:mutff/src/mutff_default.c ****     return err;
 930:mutff/src/mutff_default.c ****   }
 931:mutff/src/mutff_default.c ****   MuTFF_FN(mutff_write_header, size, MuTFF_FOURCC('c', 'l', 'i', 'p'));
 932:mutff/src/mutff_default.c ****   MuTFF_FN(mutff_write_clipping_region_atom, &in->clipping_region);
 933:mutff/src/mutff_default.c ****   return MuTFFErrorNone;
 934:mutff/src/mutff_default.c **** }
 935:mutff/src/mutff_default.c **** 
 936:mutff/src/mutff_default.c **** MuTFFError mutff_read_color_table_atom(MuTFFContext *ctx, size_t *n,
 937:mutff/src/mutff_default.c ****                                        MuTFFColorTableAtom *out) {
 938:mutff/src/mutff_default.c ****   MuTFFError err;
 939:mutff/src/mutff_default.c ****   size_t bytes;
 940:mutff/src/mutff_default.c ****   *n = 0;
 941:mutff/src/mutff_default.c ****   uint64_t size;
 942:mutff/src/mutff_default.c ****   uint32_t type;
 943:mutff/src/mutff_default.c ****   MuTFF_FN(mutff_read_header, &size, &type);
 944:mutff/src/mutff_default.c ****   if (type != MuTFF_FOURCC('c', 't', 'a', 'b')) {
 945:mutff/src/mutff_default.c ****     return MuTFFErrorBadFormat;
ARM GAS  /var/folders/fz/x0kldt2j7vs_j4slv3pyc44m0000gp/T//ccIigdcK.s 			page 23


 946:mutff/src/mutff_default.c ****   }
 947:mutff/src/mutff_default.c ****   MuTFF_FN(mutff_read_u32, &out->color_table_seed);
 948:mutff/src/mutff_default.c ****   MuTFF_FN(mutff_read_u16, &out->color_table_flags);
 949:mutff/src/mutff_default.c ****   MuTFF_FN(mutff_read_u16, &out->color_table_size);
 950:mutff/src/mutff_default.c **** 
 951:mutff/src/mutff_default.c ****   // read color array
 952:mutff/src/mutff_default.c ****   const size_t array_size = (out->color_table_size + 1U) * 8U;
 953:mutff/src/mutff_default.c ****   if (array_size != mutff_data_size(size) - 8U) {
 954:mutff/src/mutff_default.c ****     return MuTFFErrorBadFormat;
 955:mutff/src/mutff_default.c ****   }
 956:mutff/src/mutff_default.c ****   for (size_t i = 0; i <= out->color_table_size; ++i) {
 957:mutff/src/mutff_default.c ****     for (size_t j = 0; j < 4U; ++j) {
 958:mutff/src/mutff_default.c ****       MuTFF_FN(mutff_read_u16, &out->color_array[i][j]);
 959:mutff/src/mutff_default.c ****     }
 960:mutff/src/mutff_default.c ****   }
 961:mutff/src/mutff_default.c ****   MuTFF_SEEK_CUR(size - *n);
 962:mutff/src/mutff_default.c **** 
 963:mutff/src/mutff_default.c ****   return MuTFFErrorNone;
 964:mutff/src/mutff_default.c **** }
 965:mutff/src/mutff_default.c **** 
 966:mutff/src/mutff_default.c **** static inline MuTFFError mutff_color_table_atom_size(
 967:mutff/src/mutff_default.c ****     uint64_t *out, const MuTFFColorTableAtom *atom) {
 968:mutff/src/mutff_default.c ****   *out = mutff_atom_size(8U + (atom->color_table_size + 1U) * 8U);
 969:mutff/src/mutff_default.c ****   return MuTFFErrorNone;
 970:mutff/src/mutff_default.c **** }
 971:mutff/src/mutff_default.c **** 
 972:mutff/src/mutff_default.c **** MuTFFError mutff_write_color_table_atom(MuTFFContext *ctx, size_t *n,
 973:mutff/src/mutff_default.c ****                                         const MuTFFColorTableAtom *in) {
 974:mutff/src/mutff_default.c ****   MuTFFError err;
 975:mutff/src/mutff_default.c ****   size_t bytes;
 976:mutff/src/mutff_default.c ****   *n = 0;
 977:mutff/src/mutff_default.c ****   uint64_t size;
 978:mutff/src/mutff_default.c ****   err = mutff_color_table_atom_size(&size, in);
 979:mutff/src/mutff_default.c ****   if (err != MuTFFErrorNone) {
 980:mutff/src/mutff_default.c ****     return err;
 981:mutff/src/mutff_default.c ****   }
 982:mutff/src/mutff_default.c ****   MuTFF_FN(mutff_write_header, size, MuTFF_FOURCC('c', 't', 'a', 'b'));
 983:mutff/src/mutff_default.c ****   MuTFF_FN(mutff_write_u32, in->color_table_seed);
 984:mutff/src/mutff_default.c ****   MuTFF_FN(mutff_write_u16, in->color_table_flags);
 985:mutff/src/mutff_default.c ****   MuTFF_FN(mutff_write_u16, in->color_table_size);
 986:mutff/src/mutff_default.c ****   for (uint16_t i = 0; i <= in->color_table_size; ++i) {
 987:mutff/src/mutff_default.c ****     MuTFF_FN(mutff_write_u16, in->color_array[i][0]);
 988:mutff/src/mutff_default.c ****     MuTFF_FN(mutff_write_u16, in->color_array[i][1]);
 989:mutff/src/mutff_default.c ****     MuTFF_FN(mutff_write_u16, in->color_array[i][2]);
 990:mutff/src/mutff_default.c ****     MuTFF_FN(mutff_write_u16, in->color_array[i][3]);
 991:mutff/src/mutff_default.c ****   }
 992:mutff/src/mutff_default.c ****   return MuTFFErrorNone;
 993:mutff/src/mutff_default.c **** }
 994:mutff/src/mutff_default.c **** 
 995:mutff/src/mutff_default.c **** MuTFFError mutff_read_user_data_list_entry(MuTFFContext *ctx, size_t *n,
 996:mutff/src/mutff_default.c ****                                            MuTFFUserDataListEntry *out) {
 997:mutff/src/mutff_default.c ****   MuTFFError err;
 998:mutff/src/mutff_default.c ****   size_t bytes;
 999:mutff/src/mutff_default.c ****   *n = 0;
1000:mutff/src/mutff_default.c ****   uint64_t size;
1001:mutff/src/mutff_default.c ****   MuTFF_FN(mutff_read_header, &size, &out->type);
1002:mutff/src/mutff_default.c **** 
ARM GAS  /var/folders/fz/x0kldt2j7vs_j4slv3pyc44m0000gp/T//ccIigdcK.s 			page 24


1003:mutff/src/mutff_default.c ****   // read variable-length data
1004:mutff/src/mutff_default.c ****   out->data_size = mutff_data_size(size);
1005:mutff/src/mutff_default.c ****   if (out->data_size > MuTFF_MAX_USER_DATA_ENTRY_SIZE) {
1006:mutff/src/mutff_default.c ****     return MuTFFErrorOutOfMemory;
1007:mutff/src/mutff_default.c ****   }
1008:mutff/src/mutff_default.c ****   for (uint32_t i = 0; i < out->data_size; ++i) {
1009:mutff/src/mutff_default.c ****     MuTFF_FN(mutff_read_u8, (uint8_t *)&out->data[i]);
1010:mutff/src/mutff_default.c ****   }
1011:mutff/src/mutff_default.c **** 
1012:mutff/src/mutff_default.c ****   return MuTFFErrorNone;
1013:mutff/src/mutff_default.c **** }
1014:mutff/src/mutff_default.c **** 
1015:mutff/src/mutff_default.c **** static inline MuTFFError mutff_user_data_list_entry_size(
1016:mutff/src/mutff_default.c ****     uint64_t *out, const MuTFFUserDataListEntry *entry) {
1017:mutff/src/mutff_default.c ****   *out = mutff_atom_size(entry->data_size);
1018:mutff/src/mutff_default.c ****   return MuTFFErrorNone;
1019:mutff/src/mutff_default.c **** }
1020:mutff/src/mutff_default.c **** 
1021:mutff/src/mutff_default.c **** MuTFFError mutff_write_user_data_list_entry(MuTFFContext *ctx, size_t *n,
1022:mutff/src/mutff_default.c ****                                             const MuTFFUserDataListEntry *in) {
1023:mutff/src/mutff_default.c ****   MuTFFError err;
1024:mutff/src/mutff_default.c ****   size_t bytes;
1025:mutff/src/mutff_default.c ****   *n = 0;
1026:mutff/src/mutff_default.c ****   uint64_t size;
1027:mutff/src/mutff_default.c ****   err = mutff_user_data_list_entry_size(&size, in);
1028:mutff/src/mutff_default.c ****   if (err != MuTFFErrorNone) {
1029:mutff/src/mutff_default.c ****     return err;
1030:mutff/src/mutff_default.c ****   }
1031:mutff/src/mutff_default.c ****   MuTFF_FN(mutff_write_header, size, in->type);
1032:mutff/src/mutff_default.c ****   for (uint32_t i = 0; i < in->data_size; ++i) {
1033:mutff/src/mutff_default.c ****     MuTFF_FN(mutff_write_u8, in->data[i]);
1034:mutff/src/mutff_default.c ****   }
1035:mutff/src/mutff_default.c ****   return MuTFFErrorNone;
1036:mutff/src/mutff_default.c **** }
1037:mutff/src/mutff_default.c **** 
1038:mutff/src/mutff_default.c **** MuTFFError mutff_read_user_data_atom(MuTFFContext *ctx, size_t *n,
1039:mutff/src/mutff_default.c ****                                      MuTFFUserDataAtom *out) {
1040:mutff/src/mutff_default.c ****   MuTFFError err;
1041:mutff/src/mutff_default.c ****   size_t bytes;
1042:mutff/src/mutff_default.c ****   *n = 0;
1043:mutff/src/mutff_default.c **** 
1044:mutff/src/mutff_default.c ****   // read data
1045:mutff/src/mutff_default.c ****   uint64_t size;
1046:mutff/src/mutff_default.c ****   uint32_t type;
1047:mutff/src/mutff_default.c ****   MuTFF_FN(mutff_read_header, &size, &type);
1048:mutff/src/mutff_default.c ****   if (type != MuTFF_FOURCC('u', 'd', 't', 'a')) {
1049:mutff/src/mutff_default.c ****     return MuTFFErrorBadFormat;
1050:mutff/src/mutff_default.c ****   }
1051:mutff/src/mutff_default.c **** 
1052:mutff/src/mutff_default.c ****   // read children
1053:mutff/src/mutff_default.c ****   size_t i = 0;
1054:mutff/src/mutff_default.c ****   uint64_t child_size;
1055:mutff/src/mutff_default.c ****   uint32_t child_type;
1056:mutff/src/mutff_default.c ****   while (*n < size) {
1057:mutff/src/mutff_default.c ****     if (i >= MuTFF_MAX_USER_DATA_ITEMS) {
1058:mutff/src/mutff_default.c ****       return MuTFFErrorOutOfMemory;
1059:mutff/src/mutff_default.c ****     }
ARM GAS  /var/folders/fz/x0kldt2j7vs_j4slv3pyc44m0000gp/T//ccIigdcK.s 			page 25


1060:mutff/src/mutff_default.c ****     MuTFF_FN(mutff_peek_atom_header, &child_size, &child_type);
1061:mutff/src/mutff_default.c ****     if (size == 0U) {
1062:mutff/src/mutff_default.c ****       return MuTFFErrorBadFormat;
1063:mutff/src/mutff_default.c ****     }
1064:mutff/src/mutff_default.c ****     if (*n + child_size > size) {
1065:mutff/src/mutff_default.c ****       return MuTFFErrorBadFormat;
1066:mutff/src/mutff_default.c ****     }
1067:mutff/src/mutff_default.c ****     MuTFF_FN(mutff_read_user_data_list_entry, &out->user_data_list[i]);
1068:mutff/src/mutff_default.c **** 
1069:mutff/src/mutff_default.c ****     i++;
1070:mutff/src/mutff_default.c ****   }
1071:mutff/src/mutff_default.c ****   out->list_entries = i;
1072:mutff/src/mutff_default.c **** 
1073:mutff/src/mutff_default.c ****   return MuTFFErrorNone;
1074:mutff/src/mutff_default.c **** }
1075:mutff/src/mutff_default.c **** 
1076:mutff/src/mutff_default.c **** static inline MuTFFError mutff_user_data_atom_size(
1077:mutff/src/mutff_default.c ****     uint64_t *out, const MuTFFUserDataAtom *atom) {
 324              		.loc 1 1077 51 is_stmt 1 view -0
 325              		.cfi_startproc
 326              		@ args = 0, pretend = 0, frame = 0
 327              		@ frame_needed = 0, uses_anonymous_args = 0
 328              		.loc 1 1077 51 is_stmt 0 view .LVU94
 329 0000 F0B5     		push	{r4, r5, r6, r7, lr}
 330              		.cfi_def_cfa_offset 20
 331              		.cfi_offset 4, -20
 332              		.cfi_offset 5, -16
 333              		.cfi_offset 6, -12
 334              		.cfi_offset 7, -8
 335              		.cfi_offset 14, -4
1078:mutff/src/mutff_default.c ****   MuTFFError err;
 336              		.loc 1 1078 3 is_stmt 1 view .LVU95
1079:mutff/src/mutff_default.c ****   uint64_t size = 0;
 337              		.loc 1 1079 3 view .LVU96
 338              	.LVL13:
1080:mutff/src/mutff_default.c ****   for (size_t i = 0; i < atom->list_entries; ++i) {
 339              		.loc 1 1080 3 view .LVU97
 340              	.LBB480:
 341              		.loc 1 1080 8 view .LVU98
 342              		.loc 1 1080 15 is_stmt 0 view .LVU99
 343 0002 4FF0000C 		mov	ip, #0
 344              	.LBE480:
1079:mutff/src/mutff_default.c ****   uint64_t size = 0;
 345              		.loc 1 1079 12 view .LVU100
 346 0006 E646     		mov	lr, ip
 347 0008 6646     		mov	r6, ip
 348              	.LBB489:
 349              		.loc 1 1080 3 view .LVU101
 350 000a 06E0     		b	.L10
 351              	.LVL14:
 352              	.L11:
 353              	.LBB481:
 354              	.LBB482:
 355              	.LBB483:
1018:mutff/src/mutff_default.c **** }
 356              		.loc 1 1018 3 is_stmt 1 view .LVU102
1018:mutff/src/mutff_default.c **** }
ARM GAS  /var/folders/fz/x0kldt2j7vs_j4slv3pyc44m0000gp/T//ccIigdcK.s 			page 26


 357              		.loc 1 1018 3 is_stmt 0 view .LVU103
 358              	.LBE483:
 359              	.LBE482:
1081:mutff/src/mutff_default.c ****     uint64_t user_data_size;
1082:mutff/src/mutff_default.c ****     err = mutff_user_data_list_entry_size(&user_data_size,
1083:mutff/src/mutff_default.c ****                                           &atom->user_data_list[i]);
1084:mutff/src/mutff_default.c ****     if (err != MuTFFErrorNone) {
 360              		.loc 1 1084 5 is_stmt 1 view .LVU104
1085:mutff/src/mutff_default.c ****       return err;
1086:mutff/src/mutff_default.c ****     }
1087:mutff/src/mutff_default.c ****     size += user_data_size;
 361              		.loc 1 1087 5 view .LVU105
 362              		.loc 1 1087 10 is_stmt 0 view .LVU106
 363 000c 1EEB0303 		adds	r3, lr, r3
 364              	.LVL15:
 365              		.loc 1 1087 10 view .LVU107
 366 0010 9E46     		mov	lr, r3
 367              	.LVL16:
 368              		.loc 1 1087 10 view .LVU108
 369 0012 46EB0406 		adc	r6, r6, r4
 370              	.LVL17:
 371              		.loc 1 1087 10 view .LVU109
 372              	.LBE481:
1080:mutff/src/mutff_default.c ****     uint64_t user_data_size;
 373              		.loc 1 1080 46 is_stmt 1 view .LVU110
 374 0016 0CF1010C 		add	ip, ip, #1
 375              	.LVL18:
 376              	.L10:
1080:mutff/src/mutff_default.c ****     uint64_t user_data_size;
 377              		.loc 1 1080 24 discriminator 1 view .LVU111
1080:mutff/src/mutff_default.c ****     uint64_t user_data_size;
 378              		.loc 1 1080 30 is_stmt 0 discriminator 1 view .LVU112
 379 001a 0B68     		ldr	r3, [r1]
1080:mutff/src/mutff_default.c ****     uint64_t user_data_size;
 380              		.loc 1 1080 24 discriminator 1 view .LVU113
 381 001c 6345     		cmp	r3, ip
 382 001e 14D9     		bls	.L15
 383              	.LBB488:
1081:mutff/src/mutff_default.c ****     uint64_t user_data_size;
 384              		.loc 1 1081 5 is_stmt 1 view .LVU114
1082:mutff/src/mutff_default.c ****                                           &atom->user_data_list[i]);
 385              		.loc 1 1082 5 view .LVU115
 386              	.LVL19:
 387              	.LBB487:
 388              	.LBI482:
1015:mutff/src/mutff_default.c ****     uint64_t *out, const MuTFFUserDataListEntry *entry) {
 389              		.loc 1 1015 26 view .LVU116
 390              	.LBB486:
1017:mutff/src/mutff_default.c ****   return MuTFFErrorNone;
 391              		.loc 1 1017 3 view .LVU117
1017:mutff/src/mutff_default.c ****   return MuTFFErrorNone;
 392              		.loc 1 1017 31 is_stmt 0 view .LVU118
 393 0020 0CEBCC03 		add	r3, ip, ip, lsl #3
 394 0024 01EBC303 		add	r3, r1, r3, lsl #3
1017:mutff/src/mutff_default.c ****   return MuTFFErrorNone;
 395              		.loc 1 1017 10 view .LVU119
 396 0028 0025     		movs	r5, #0
ARM GAS  /var/folders/fz/x0kldt2j7vs_j4slv3pyc44m0000gp/T//ccIigdcK.s 			page 27


 397 002a 9A68     		ldr	r2, [r3, #8]
 398              	.LVL20:
 399              	.LBB484:
 400              	.LBI484:
 389:mutff/src/mutff_default.c ****   return data_size + 8U <= UINT32_MAX ? data_size + 8U : data_size + 16U;
 401              		.loc 1 389 24 is_stmt 1 view .LVU120
 402              	.LBB485:
 390:mutff/src/mutff_default.c **** }
 403              		.loc 1 390 3 view .LVU121
 390:mutff/src/mutff_default.c **** }
 404              		.loc 1 390 20 is_stmt 0 view .LVU122
 405 002c 12F10803 		adds	r3, r2, #8
 406 0030 45F10004 		adc	r4, r5, #0
 390:mutff/src/mutff_default.c **** }
 407              		.loc 1 390 56 view .LVU123
 408 0034 4FF0FF37 		mov	r7, #-1
 409 0038 9F42     		cmp	r7, r3
 410 003a 75EB0407 		sbcs	r7, r5, r4
 411 003e E5D2     		bcs	.L11
 412 0040 12F11003 		adds	r3, r2, #16
 413 0044 45F10004 		adc	r4, r5, #0
 414 0048 E0E7     		b	.L11
 415              	.LVL21:
 416              	.L15:
 390:mutff/src/mutff_default.c **** }
 417              		.loc 1 390 56 view .LVU124
 418              	.LBE485:
 419              	.LBE484:
 420              	.LBE486:
 421              	.LBE487:
 422              	.LBE488:
 423              	.LBE489:
1088:mutff/src/mutff_default.c ****   }
1089:mutff/src/mutff_default.c ****   *out = mutff_atom_size(size);
 424              		.loc 1 1089 3 is_stmt 1 view .LVU125
 425              	.LBB490:
 426              	.LBI490:
 389:mutff/src/mutff_default.c ****   return data_size + 8U <= UINT32_MAX ? data_size + 8U : data_size + 16U;
 427              		.loc 1 389 24 view .LVU126
 428              	.LBB491:
 390:mutff/src/mutff_default.c **** }
 429              		.loc 1 390 3 view .LVU127
 390:mutff/src/mutff_default.c **** }
 430              		.loc 1 390 20 is_stmt 0 view .LVU128
 431 004a 1EF10802 		adds	r2, lr, #8
 432 004e 46F10003 		adc	r3, r6, #0
 390:mutff/src/mutff_default.c **** }
 433              		.loc 1 390 56 view .LVU129
 434 0052 4FF0FF31 		mov	r1, #-1
 435              	.LVL22:
 390:mutff/src/mutff_default.c **** }
 436              		.loc 1 390 56 view .LVU130
 437 0056 9142     		cmp	r1, r2
 438 0058 4FF00001 		mov	r1, #0
 439 005c 9941     		sbcs	r1, r1, r3
 440 005e 03D2     		bcs	.L13
 441 0060 1EF11002 		adds	r2, lr, #16
ARM GAS  /var/folders/fz/x0kldt2j7vs_j4slv3pyc44m0000gp/T//ccIigdcK.s 			page 28


 442 0064 46F10003 		adc	r3, r6, #0
 443              	.L13:
 444              	.LVL23:
 390:mutff/src/mutff_default.c **** }
 445              		.loc 1 390 56 view .LVU131
 446              	.LBE491:
 447              	.LBE490:
 448              		.loc 1 1089 8 view .LVU132
 449 0068 0260     		str	r2, [r0]
 450 006a 4360     		str	r3, [r0, #4]
1090:mutff/src/mutff_default.c ****   return MuTFFErrorNone;
 451              		.loc 1 1090 3 is_stmt 1 view .LVU133
1091:mutff/src/mutff_default.c **** }
 452              		.loc 1 1091 1 is_stmt 0 view .LVU134
 453 006c 0020     		movs	r0, #0
 454              	.LVL24:
 455              		.loc 1 1091 1 view .LVU135
 456 006e F0BD     		pop	{r4, r5, r6, r7, pc}
 457              		.loc 1 1091 1 view .LVU136
 458              		.cfi_endproc
 459              	.LFE75:
 461              		.section	.text.mutff_movie_extends_atom_size,"ax",%progbits
 462              		.align	1
 463              		.syntax unified
 464              		.thumb
 465              		.thumb_func
 467              	mutff_movie_extends_atom_size:
 468              	.LVL25:
 469              	.LFB84:
1092:mutff/src/mutff_default.c **** 
1093:mutff/src/mutff_default.c **** MuTFFError mutff_write_user_data_atom(MuTFFContext *ctx, size_t *n,
1094:mutff/src/mutff_default.c ****                                       const MuTFFUserDataAtom *in) {
1095:mutff/src/mutff_default.c ****   MuTFFError err;
1096:mutff/src/mutff_default.c ****   size_t bytes;
1097:mutff/src/mutff_default.c ****   *n = 0;
1098:mutff/src/mutff_default.c ****   uint64_t size;
1099:mutff/src/mutff_default.c ****   err = mutff_user_data_atom_size(&size, in);
1100:mutff/src/mutff_default.c ****   if (err != MuTFFErrorNone) {
1101:mutff/src/mutff_default.c ****     return err;
1102:mutff/src/mutff_default.c ****   }
1103:mutff/src/mutff_default.c ****   MuTFF_FN(mutff_write_header, size, MuTFF_FOURCC('u', 'd', 't', 'a'));
1104:mutff/src/mutff_default.c ****   for (size_t i = 0; i < in->list_entries; ++i) {
1105:mutff/src/mutff_default.c ****     MuTFF_FN(mutff_write_user_data_list_entry, &in->user_data_list[i]);
1106:mutff/src/mutff_default.c ****   }
1107:mutff/src/mutff_default.c ****   return MuTFFErrorNone;
1108:mutff/src/mutff_default.c **** }
1109:mutff/src/mutff_default.c **** 
1110:mutff/src/mutff_default.c **** MuTFFError mutff_read_movie_extends_header_atom(
1111:mutff/src/mutff_default.c ****     MuTFFContext *ctx, size_t *n, MuTFFMovieExtendsHeaderAtom *out) {
1112:mutff/src/mutff_default.c ****   MuTFFError err;
1113:mutff/src/mutff_default.c ****   size_t bytes;
1114:mutff/src/mutff_default.c ****   *n = 0;
1115:mutff/src/mutff_default.c ****   uint64_t size;
1116:mutff/src/mutff_default.c ****   uint32_t type;
1117:mutff/src/mutff_default.c ****   MuTFF_FN(mutff_read_header, &size, &type);
1118:mutff/src/mutff_default.c ****   if (type != MuTFF_FOURCC('m', 'e', 'h', 'd')) {
1119:mutff/src/mutff_default.c ****     return MuTFFErrorBadFormat;
ARM GAS  /var/folders/fz/x0kldt2j7vs_j4slv3pyc44m0000gp/T//ccIigdcK.s 			page 29


1120:mutff/src/mutff_default.c ****   }
1121:mutff/src/mutff_default.c ****   MuTFF_FN(mutff_read_u8, &out->version);
1122:mutff/src/mutff_default.c ****   MuTFF_FN(mutff_read_u24, &out->flags);
1123:mutff/src/mutff_default.c ****   switch (out->version) {
1124:mutff/src/mutff_default.c ****     case 0: {
1125:mutff/src/mutff_default.c ****       uint32_t fragment_duration;
1126:mutff/src/mutff_default.c ****       MuTFF_FN(mutff_read_u32, &fragment_duration);
1127:mutff/src/mutff_default.c ****       out->fragment_duration = fragment_duration;
1128:mutff/src/mutff_default.c ****       break;
1129:mutff/src/mutff_default.c ****     }
1130:mutff/src/mutff_default.c ****     case 1:
1131:mutff/src/mutff_default.c ****       MuTFF_FN(mutff_read_u64, &out->fragment_duration);
1132:mutff/src/mutff_default.c ****       break;
1133:mutff/src/mutff_default.c ****     default:
1134:mutff/src/mutff_default.c ****       return MuTFFErrorBadFormat;
1135:mutff/src/mutff_default.c ****   }
1136:mutff/src/mutff_default.c ****   MuTFF_SEEK_CUR(size - *n);
1137:mutff/src/mutff_default.c ****   return MuTFFErrorNone;
1138:mutff/src/mutff_default.c **** }
1139:mutff/src/mutff_default.c **** 
1140:mutff/src/mutff_default.c **** static inline MuTFFError mutff_movie_extends_header_atom_size(
1141:mutff/src/mutff_default.c ****     uint64_t *out, const MuTFFMovieExtendsHeaderAtom *atom) {
1142:mutff/src/mutff_default.c ****   switch (atom->version) {
1143:mutff/src/mutff_default.c ****     case 0:
1144:mutff/src/mutff_default.c ****       *out = mutff_atom_size(8);
1145:mutff/src/mutff_default.c ****       return MuTFFErrorNone;
1146:mutff/src/mutff_default.c ****     case 1:
1147:mutff/src/mutff_default.c ****       *out = mutff_atom_size(12);
1148:mutff/src/mutff_default.c ****       return MuTFFErrorNone;
1149:mutff/src/mutff_default.c ****     default:
1150:mutff/src/mutff_default.c ****       return MuTFFErrorBadFormat;
1151:mutff/src/mutff_default.c ****   }
1152:mutff/src/mutff_default.c **** }
1153:mutff/src/mutff_default.c **** 
1154:mutff/src/mutff_default.c **** MuTFFError mutff_write_movie_extends_header_atom(
1155:mutff/src/mutff_default.c ****     MuTFFContext *ctx, size_t *n, const MuTFFMovieExtendsHeaderAtom *in) {
1156:mutff/src/mutff_default.c ****   MuTFFError err;
1157:mutff/src/mutff_default.c ****   size_t bytes;
1158:mutff/src/mutff_default.c ****   *n = 0;
1159:mutff/src/mutff_default.c ****   uint64_t size;
1160:mutff/src/mutff_default.c ****   err = mutff_movie_extends_header_atom_size(&size, in);
1161:mutff/src/mutff_default.c ****   if (err != MuTFFErrorNone) {
1162:mutff/src/mutff_default.c ****     return err;
1163:mutff/src/mutff_default.c ****   }
1164:mutff/src/mutff_default.c ****   MuTFF_FN(mutff_write_header, size, MuTFF_FOURCC('m', 'e', 'h', 'd'));
1165:mutff/src/mutff_default.c ****   MuTFF_FN(mutff_write_u8, in->version);
1166:mutff/src/mutff_default.c ****   MuTFF_FN(mutff_write_u24, in->flags);
1167:mutff/src/mutff_default.c ****   switch (in->version) {
1168:mutff/src/mutff_default.c ****     case 0:
1169:mutff/src/mutff_default.c ****       // @TODO: should version be deduced from size so this never happens?
1170:mutff/src/mutff_default.c ****       if (in->fragment_duration > UINT32_MAX) {
1171:mutff/src/mutff_default.c ****         return MuTFFErrorBadFormat;
1172:mutff/src/mutff_default.c ****       }
1173:mutff/src/mutff_default.c ****       MuTFF_FN(mutff_write_u32, in->fragment_duration);
1174:mutff/src/mutff_default.c ****       break;
1175:mutff/src/mutff_default.c ****     case 1:
1176:mutff/src/mutff_default.c ****       MuTFF_FN(mutff_write_u64, in->fragment_duration);
ARM GAS  /var/folders/fz/x0kldt2j7vs_j4slv3pyc44m0000gp/T//ccIigdcK.s 			page 30


1177:mutff/src/mutff_default.c ****       break;
1178:mutff/src/mutff_default.c ****     default:
1179:mutff/src/mutff_default.c ****       return MuTFFErrorBadFormat;
1180:mutff/src/mutff_default.c ****   }
1181:mutff/src/mutff_default.c ****   return MuTFFErrorNone;
1182:mutff/src/mutff_default.c **** }
1183:mutff/src/mutff_default.c **** 
1184:mutff/src/mutff_default.c **** MuTFFError mutff_read_track_extends_atom(MuTFFContext *ctx, size_t *n,
1185:mutff/src/mutff_default.c ****                                          MuTFFTrackExtendsAtom *out) {
1186:mutff/src/mutff_default.c ****   MuTFFError err;
1187:mutff/src/mutff_default.c ****   size_t bytes;
1188:mutff/src/mutff_default.c ****   *n = 0;
1189:mutff/src/mutff_default.c ****   uint64_t size;
1190:mutff/src/mutff_default.c ****   uint32_t type;
1191:mutff/src/mutff_default.c ****   MuTFF_FN(mutff_read_header, &size, &type);
1192:mutff/src/mutff_default.c ****   if (type != MuTFF_FOURCC('t', 'r', 'e', 'x')) {
1193:mutff/src/mutff_default.c ****     return MuTFFErrorBadFormat;
1194:mutff/src/mutff_default.c ****   }
1195:mutff/src/mutff_default.c ****   MuTFF_FN(mutff_read_u8, &out->version);
1196:mutff/src/mutff_default.c ****   MuTFF_FN(mutff_read_u24, &out->flags);
1197:mutff/src/mutff_default.c ****   MuTFF_FN(mutff_read_u32, &out->track_id);
1198:mutff/src/mutff_default.c ****   MuTFF_FN(mutff_read_u32, &out->default_sample_description_index);
1199:mutff/src/mutff_default.c ****   MuTFF_FN(mutff_read_u32, &out->default_sample_duration);
1200:mutff/src/mutff_default.c ****   MuTFF_FN(mutff_read_u32, &out->default_sample_size);
1201:mutff/src/mutff_default.c ****   MuTFF_FN(mutff_read_u32, &out->default_sample_flags);
1202:mutff/src/mutff_default.c ****   MuTFF_SEEK_CUR(size - *n);
1203:mutff/src/mutff_default.c ****   return MuTFFErrorNone;
1204:mutff/src/mutff_default.c **** }
1205:mutff/src/mutff_default.c **** 
1206:mutff/src/mutff_default.c **** static inline MuTFFError mutff_track_extends_atom_size(
1207:mutff/src/mutff_default.c ****     uint64_t *out, const MuTFFTrackExtendsAtom *atom) {
1208:mutff/src/mutff_default.c ****   *out = mutff_atom_size(24);
1209:mutff/src/mutff_default.c ****   return MuTFFErrorNone;
1210:mutff/src/mutff_default.c **** }
1211:mutff/src/mutff_default.c **** 
1212:mutff/src/mutff_default.c **** MuTFFError mutff_write_track_extends_atom(MuTFFContext *ctx, size_t *n,
1213:mutff/src/mutff_default.c ****                                           const MuTFFTrackExtendsAtom *in) {
1214:mutff/src/mutff_default.c ****   MuTFFError err;
1215:mutff/src/mutff_default.c ****   size_t bytes;
1216:mutff/src/mutff_default.c ****   *n = 0;
1217:mutff/src/mutff_default.c ****   uint64_t size;
1218:mutff/src/mutff_default.c ****   err = mutff_track_extends_atom_size(&size, in);
1219:mutff/src/mutff_default.c ****   if (err != MuTFFErrorNone) {
1220:mutff/src/mutff_default.c ****     return err;
1221:mutff/src/mutff_default.c ****   }
1222:mutff/src/mutff_default.c ****   MuTFF_FN(mutff_write_header, size, MuTFF_FOURCC('t', 'r', 'e', 'x'));
1223:mutff/src/mutff_default.c ****   MuTFF_FN(mutff_write_u8, in->version);
1224:mutff/src/mutff_default.c ****   MuTFF_FN(mutff_write_u24, in->flags);
1225:mutff/src/mutff_default.c ****   MuTFF_FN(mutff_write_u32, in->track_id);
1226:mutff/src/mutff_default.c ****   MuTFF_FN(mutff_write_u32, in->default_sample_description_index);
1227:mutff/src/mutff_default.c ****   MuTFF_FN(mutff_write_u32, in->default_sample_duration);
1228:mutff/src/mutff_default.c ****   MuTFF_FN(mutff_write_u32, in->default_sample_size);
1229:mutff/src/mutff_default.c ****   MuTFF_FN(mutff_write_u32, in->default_sample_flags);
1230:mutff/src/mutff_default.c ****   return MuTFFErrorNone;
1231:mutff/src/mutff_default.c **** }
1232:mutff/src/mutff_default.c **** 
1233:mutff/src/mutff_default.c **** MuTFFError mutff_read_movie_extends_atom(MuTFFContext *ctx, size_t *n,
ARM GAS  /var/folders/fz/x0kldt2j7vs_j4slv3pyc44m0000gp/T//ccIigdcK.s 			page 31


1234:mutff/src/mutff_default.c ****                                          MuTFFMovieExtendsAtom *out) {
1235:mutff/src/mutff_default.c ****   MuTFFError err;
1236:mutff/src/mutff_default.c ****   size_t bytes;
1237:mutff/src/mutff_default.c ****   *n = 0;
1238:mutff/src/mutff_default.c ****   uint64_t size;
1239:mutff/src/mutff_default.c ****   uint32_t type;
1240:mutff/src/mutff_default.c ****   uint64_t child_size;
1241:mutff/src/mutff_default.c ****   uint32_t child_type;
1242:mutff/src/mutff_default.c **** 
1243:mutff/src/mutff_default.c ****   out->movie_extends_header_present = false;
1244:mutff/src/mutff_default.c ****   out->track_extends_count = 0;
1245:mutff/src/mutff_default.c **** 
1246:mutff/src/mutff_default.c ****   MuTFF_FN(mutff_read_header, &size, &type);
1247:mutff/src/mutff_default.c ****   if (type != MuTFF_FOURCC('m', 'v', 'e', 'x')) {
1248:mutff/src/mutff_default.c ****     return MuTFFErrorBadFormat;
1249:mutff/src/mutff_default.c ****   }
1250:mutff/src/mutff_default.c ****   while (*n < size) {
1251:mutff/src/mutff_default.c ****     MuTFF_FN(mutff_peek_atom_header, &child_size, &child_type);
1252:mutff/src/mutff_default.c ****     if (size == 0U) {
1253:mutff/src/mutff_default.c ****       return MuTFFErrorBadFormat;
1254:mutff/src/mutff_default.c ****     }
1255:mutff/src/mutff_default.c ****     if (*n + child_size > size) {
1256:mutff/src/mutff_default.c ****       return MuTFFErrorBadFormat;
1257:mutff/src/mutff_default.c ****     }
1258:mutff/src/mutff_default.c **** 
1259:mutff/src/mutff_default.c ****     switch (child_type) {
1260:mutff/src/mutff_default.c ****       case MuTFF_FOURCC('m', 'e', 'h', 'd'):
1261:mutff/src/mutff_default.c ****         MuTFF_READ_CHILD(mutff_read_movie_extends_header_atom,
1262:mutff/src/mutff_default.c ****                          &out->movie_extends_header,
1263:mutff/src/mutff_default.c ****                          out->movie_extends_header_present);
1264:mutff/src/mutff_default.c ****         break;
1265:mutff/src/mutff_default.c ****       case MuTFF_FOURCC('t', 'r', 'e', 'x'):
1266:mutff/src/mutff_default.c ****         if (out->track_extends_count >= MuTFF_MAX_TRACK_ATOMS) {
1267:mutff/src/mutff_default.c ****           return MuTFFErrorOutOfMemory;
1268:mutff/src/mutff_default.c ****         }
1269:mutff/src/mutff_default.c ****         MuTFF_FN(mutff_read_track_extends_atom,
1270:mutff/src/mutff_default.c ****                  &out->track_extends[out->track_extends_count]);
1271:mutff/src/mutff_default.c ****         out->track_extends_count++;
1272:mutff/src/mutff_default.c ****         break;
1273:mutff/src/mutff_default.c ****       default:
1274:mutff/src/mutff_default.c ****         MuTFF_SEEK_CUR(child_size);
1275:mutff/src/mutff_default.c ****         break;
1276:mutff/src/mutff_default.c ****     }
1277:mutff/src/mutff_default.c ****   }
1278:mutff/src/mutff_default.c ****   return MuTFFErrorNone;
1279:mutff/src/mutff_default.c **** }
1280:mutff/src/mutff_default.c **** 
1281:mutff/src/mutff_default.c **** static inline MuTFFError mutff_movie_extends_atom_size(
1282:mutff/src/mutff_default.c ****     uint64_t *out, const MuTFFMovieExtendsAtom *atom) {
 470              		.loc 1 1282 55 is_stmt 1 view -0
 471              		.cfi_startproc
 472              		@ args = 0, pretend = 0, frame = 0
 473              		@ frame_needed = 0, uses_anonymous_args = 0
 474              		@ link register save eliminated.
1283:mutff/src/mutff_default.c ****   MuTFFError err;
 475              		.loc 1 1283 3 view .LVU138
1284:mutff/src/mutff_default.c ****   uint64_t child_size;
ARM GAS  /var/folders/fz/x0kldt2j7vs_j4slv3pyc44m0000gp/T//ccIigdcK.s 			page 32


 476              		.loc 1 1284 3 view .LVU139
1285:mutff/src/mutff_default.c ****   *out = 0;
 477              		.loc 1 1285 3 view .LVU140
 478              		.loc 1 1285 8 is_stmt 0 view .LVU141
 479 0000 0022     		movs	r2, #0
 480 0002 0023     		movs	r3, #0
 481 0004 C0E90023 		strd	r2, [r0]
1286:mutff/src/mutff_default.c ****   if (atom->movie_extends_header_present) {
 482              		.loc 1 1286 3 is_stmt 1 view .LVU142
 483              		.loc 1 1286 11 is_stmt 0 view .LVU143
 484 0008 0B78     		ldrb	r3, [r1]	@ zero_extendqisi2
 485              		.loc 1 1286 6 view .LVU144
 486 000a 3BB1     		cbz	r3, .L17
1287:mutff/src/mutff_default.c ****     err = mutff_movie_extends_header_atom_size(&child_size,
 487              		.loc 1 1287 5 is_stmt 1 view .LVU145
 488              	.LVL26:
 489              	.LBB492:
 490              	.LBI492:
1140:mutff/src/mutff_default.c ****     uint64_t *out, const MuTFFMovieExtendsHeaderAtom *atom) {
 491              		.loc 1 1140 26 view .LVU146
 492              	.LBB493:
1142:mutff/src/mutff_default.c ****     case 0:
 493              		.loc 1 1142 3 view .LVU147
1142:mutff/src/mutff_default.c ****     case 0:
 494              		.loc 1 1142 15 is_stmt 0 view .LVU148
 495 000c 0B7A     		ldrb	r3, [r1, #8]	@ zero_extendqisi2
1142:mutff/src/mutff_default.c ****     case 0:
 496              		.loc 1 1142 3 view .LVU149
 497 000e 4BB1     		cbz	r3, .L23
 498 0010 012B     		cmp	r3, #1
 499 0012 2ED1     		bne	.L24
1147:mutff/src/mutff_default.c ****       return MuTFFErrorNone;
 500              		.loc 1 1147 12 view .LVU150
 501 0014 1422     		movs	r2, #20
 502 0016 0023     		movs	r3, #0
 503              	.L18:
 504              	.LVL27:
1147:mutff/src/mutff_default.c ****       return MuTFFErrorNone;
 505              		.loc 1 1147 12 view .LVU151
 506              	.LBE493:
 507              	.LBE492:
1288:mutff/src/mutff_default.c ****                                                &atom->movie_extends_header);
1289:mutff/src/mutff_default.c ****     if (err != MuTFFErrorNone) {
1290:mutff/src/mutff_default.c ****       return err;
1291:mutff/src/mutff_default.c ****     }
1292:mutff/src/mutff_default.c ****     *out += child_size;
 508              		.loc 1 1292 5 is_stmt 1 view .LVU152
 509              		.loc 1 1292 10 is_stmt 0 view .LVU153
 510 0018 C0E90023 		strd	r2, [r0]
 511              	.L17:
1282:mutff/src/mutff_default.c ****   MuTFFError err;
 512              		.loc 1 1282 55 discriminator 1 view .LVU154
 513 001c 10B4     		push	{r4}
 514              		.cfi_def_cfa_offset 4
 515              		.cfi_offset 4, -4
 516              	.LBB496:
 517              	.LBB494:
ARM GAS  /var/folders/fz/x0kldt2j7vs_j4slv3pyc44m0000gp/T//ccIigdcK.s 			page 33


1147:mutff/src/mutff_default.c ****       return MuTFFErrorNone;
 518              		.loc 1 1147 12 discriminator 1 view .LVU155
 519 001e 4FF0000C 		mov	ip, #0
 520 0022 0BE0     		b	.L20
 521              	.LVL28:
 522              	.L23:
 523              		.cfi_def_cfa_offset 0
 524              		.cfi_restore 4
1142:mutff/src/mutff_default.c ****     case 0:
 525              		.loc 1 1142 3 view .LVU156
 526 0024 1022     		movs	r2, #16
 527 0026 0023     		movs	r3, #0
 528 0028 F6E7     		b	.L18
 529              	.LVL29:
 530              	.L21:
 531              		.cfi_def_cfa_offset 4
 532              		.cfi_offset 4, -4
1142:mutff/src/mutff_default.c ****     case 0:
 533              		.loc 1 1142 3 view .LVU157
 534              	.LBE494:
 535              	.LBE496:
 536              	.LBB497:
1293:mutff/src/mutff_default.c ****   }
1294:mutff/src/mutff_default.c ****   for (size_t i = 0; i < atom->track_extends_count; ++i) {
1295:mutff/src/mutff_default.c ****     err = mutff_track_extends_atom_size(&child_size, &atom->track_extends[i]);
 537              		.loc 1 1295 5 is_stmt 1 view .LVU158
1296:mutff/src/mutff_default.c ****     if (err != MuTFFErrorNone) {
 538              		.loc 1 1296 5 view .LVU159
1297:mutff/src/mutff_default.c ****       return err;
1298:mutff/src/mutff_default.c ****     }
1299:mutff/src/mutff_default.c ****     *out += child_size;
 539              		.loc 1 1299 5 view .LVU160
 540 002a 0368     		ldr	r3, [r0]
 541 002c 4268     		ldr	r2, [r0, #4]
 542              		.loc 1 1299 10 is_stmt 0 view .LVU161
 543 002e 2033     		adds	r3, r3, #32
 544 0030 42F10002 		adc	r2, r2, #0
 545 0034 0360     		str	r3, [r0]
 546 0036 4260     		str	r2, [r0, #4]
1294:mutff/src/mutff_default.c ****     err = mutff_track_extends_atom_size(&child_size, &atom->track_extends[i]);
 547              		.loc 1 1294 53 is_stmt 1 view .LVU162
 548 0038 0CF1010C 		add	ip, ip, #1
 549              	.LVL30:
 550              	.L20:
1294:mutff/src/mutff_default.c ****     err = mutff_track_extends_atom_size(&child_size, &atom->track_extends[i]);
 551              		.loc 1 1294 24 discriminator 1 view .LVU163
1294:mutff/src/mutff_default.c ****     err = mutff_track_extends_atom_size(&child_size, &atom->track_extends[i]);
 552              		.loc 1 1294 30 is_stmt 0 discriminator 1 view .LVU164
 553 003c 8B69     		ldr	r3, [r1, #24]
1294:mutff/src/mutff_default.c ****     err = mutff_track_extends_atom_size(&child_size, &atom->track_extends[i]);
 554              		.loc 1 1294 24 discriminator 1 view .LVU165
 555 003e 6345     		cmp	r3, ip
 556 0040 F3D8     		bhi	.L21
 557              	.LBE497:
1300:mutff/src/mutff_default.c ****   }
1301:mutff/src/mutff_default.c ****   *out = mutff_atom_size(*out);
 558              		.loc 1 1301 3 is_stmt 1 view .LVU166
ARM GAS  /var/folders/fz/x0kldt2j7vs_j4slv3pyc44m0000gp/T//ccIigdcK.s 			page 34


 559              		.loc 1 1301 10 is_stmt 0 view .LVU167
 560 0042 0368     		ldr	r3, [r0]
 561 0044 4468     		ldr	r4, [r0, #4]
 562              	.LVL31:
 563              	.LBB498:
 564              	.LBI498:
 389:mutff/src/mutff_default.c ****   return data_size + 8U <= UINT32_MAX ? data_size + 8U : data_size + 16U;
 565              		.loc 1 389 24 is_stmt 1 view .LVU168
 566              	.LBB499:
 390:mutff/src/mutff_default.c **** }
 567              		.loc 1 390 3 view .LVU169
 390:mutff/src/mutff_default.c **** }
 568              		.loc 1 390 20 is_stmt 0 view .LVU170
 569 0046 13F10801 		adds	r1, r3, #8
 570              	.LVL32:
 390:mutff/src/mutff_default.c **** }
 571              		.loc 1 390 20 view .LVU171
 572 004a 44F10002 		adc	r2, r4, #0
 390:mutff/src/mutff_default.c **** }
 573              		.loc 1 390 56 view .LVU172
 574 004e 4FF0FF3C 		mov	ip, #-1
 575              	.LVL33:
 390:mutff/src/mutff_default.c **** }
 576              		.loc 1 390 56 view .LVU173
 577 0052 8C45     		cmp	ip, r1
 578 0054 4FF0000C 		mov	ip, #0
 579 0058 7CEB020C 		sbcs	ip, ip, r2
 580 005c 03D2     		bcs	.L22
 581 005e 13F11001 		adds	r1, r3, #16
 582 0062 44F10002 		adc	r2, r4, #0
 583              	.L22:
 584              	.LVL34:
 390:mutff/src/mutff_default.c **** }
 585              		.loc 1 390 56 view .LVU174
 586              	.LBE499:
 587              	.LBE498:
 588              		.loc 1 1301 8 view .LVU175
 589 0066 0160     		str	r1, [r0]
 590 0068 4260     		str	r2, [r0, #4]
1302:mutff/src/mutff_default.c ****   return MuTFFErrorNone;
 591              		.loc 1 1302 3 is_stmt 1 view .LVU176
 592              		.loc 1 1302 10 is_stmt 0 view .LVU177
 593 006a 0020     		movs	r0, #0
 594              	.LVL35:
1303:mutff/src/mutff_default.c **** }
 595              		.loc 1 1303 1 view .LVU178
 596 006c 5DF8044B 		ldr	r4, [sp], #4
 597              		.cfi_restore 4
 598              		.cfi_def_cfa_offset 0
 599 0070 7047     		bx	lr
 600              	.LVL36:
 601              	.L24:
 602              	.LBB500:
 603              	.LBB495:
1142:mutff/src/mutff_default.c ****     case 0:
 604              		.loc 1 1142 3 view .LVU179
 605 0072 0320     		movs	r0, #3
ARM GAS  /var/folders/fz/x0kldt2j7vs_j4slv3pyc44m0000gp/T//ccIigdcK.s 			page 35


 606              	.LVL37:
1142:mutff/src/mutff_default.c ****     case 0:
 607              		.loc 1 1142 3 view .LVU180
 608              	.LBE495:
 609              	.LBE500:
 610              		.loc 1 1303 1 view .LVU181
 611 0074 7047     		bx	lr
 612              		.cfi_endproc
 613              	.LFE84:
 615              		.section	.text.mutff_video_sample_description_size,"ax",%progbits
 616              		.align	1
 617              		.global	mutff_video_sample_description_size
 618              		.syntax unified
 619              		.thumb
 620              		.thumb_func
 622              	mutff_video_sample_description_size:
 623              	.LVL38:
 624              	.LFB105:
1304:mutff/src/mutff_default.c **** 
1305:mutff/src/mutff_default.c **** MuTFFError mutff_write_movie_extends_atom(MuTFFContext *ctx, size_t *n,
1306:mutff/src/mutff_default.c ****                                           const MuTFFMovieExtendsAtom *in) {
1307:mutff/src/mutff_default.c ****   MuTFFError err;
1308:mutff/src/mutff_default.c ****   size_t bytes;
1309:mutff/src/mutff_default.c ****   *n = 0;
1310:mutff/src/mutff_default.c ****   uint64_t size;
1311:mutff/src/mutff_default.c ****   err = mutff_movie_extends_atom_size(&size, in);
1312:mutff/src/mutff_default.c ****   if (err != MuTFFErrorNone) {
1313:mutff/src/mutff_default.c ****     return err;
1314:mutff/src/mutff_default.c ****   }
1315:mutff/src/mutff_default.c ****   MuTFF_FN(mutff_write_header, size, MuTFF_FOURCC('m', 'v', 'e', 'x'));
1316:mutff/src/mutff_default.c ****   if (in->movie_extends_header_present) {
1317:mutff/src/mutff_default.c ****     MuTFF_FN(mutff_write_movie_extends_header_atom, &in->movie_extends_header);
1318:mutff/src/mutff_default.c ****   }
1319:mutff/src/mutff_default.c ****   for (size_t i = 0; i < in->track_extends_count; ++i) {
1320:mutff/src/mutff_default.c ****     MuTFF_FN(mutff_write_track_extends_atom, &in->track_extends[i]);
1321:mutff/src/mutff_default.c ****   }
1322:mutff/src/mutff_default.c ****   return MuTFFErrorNone;
1323:mutff/src/mutff_default.c **** }
1324:mutff/src/mutff_default.c **** 
1325:mutff/src/mutff_default.c **** MuTFFError mutff_read_track_header_atom(MuTFFContext *ctx, size_t *n,
1326:mutff/src/mutff_default.c ****                                         MuTFFTrackHeaderAtom *out) {
1327:mutff/src/mutff_default.c ****   MuTFFError err;
1328:mutff/src/mutff_default.c ****   size_t bytes;
1329:mutff/src/mutff_default.c ****   *n = 0;
1330:mutff/src/mutff_default.c ****   uint64_t size;
1331:mutff/src/mutff_default.c ****   uint32_t type;
1332:mutff/src/mutff_default.c ****   MuTFF_FN(mutff_read_header, &size, &type);
1333:mutff/src/mutff_default.c ****   if (type != MuTFF_FOURCC('t', 'k', 'h', 'd')) {
1334:mutff/src/mutff_default.c ****     return MuTFFErrorBadFormat;
1335:mutff/src/mutff_default.c ****   }
1336:mutff/src/mutff_default.c ****   MuTFF_FN(mutff_read_u8, &out->version);
1337:mutff/src/mutff_default.c ****   MuTFF_FN(mutff_read_u24, &out->flags);
1338:mutff/src/mutff_default.c ****   MuTFF_FN(mutff_read_u32, &out->creation_time);
1339:mutff/src/mutff_default.c ****   MuTFF_FN(mutff_read_u32, &out->modification_time);
1340:mutff/src/mutff_default.c ****   MuTFF_FN(mutff_read_u32, &out->track_id);
1341:mutff/src/mutff_default.c ****   MuTFF_SEEK_CUR(4U);
1342:mutff/src/mutff_default.c ****   MuTFF_FN(mutff_read_u32, &out->duration);
ARM GAS  /var/folders/fz/x0kldt2j7vs_j4slv3pyc44m0000gp/T//ccIigdcK.s 			page 36


1343:mutff/src/mutff_default.c ****   MuTFF_SEEK_CUR(8U);
1344:mutff/src/mutff_default.c ****   MuTFF_FN(mutff_read_u16, &out->layer);
1345:mutff/src/mutff_default.c ****   MuTFF_FN(mutff_read_u16, &out->alternate_group);
1346:mutff/src/mutff_default.c ****   MuTFF_FN(mutff_read_q8_8, &out->volume);
1347:mutff/src/mutff_default.c ****   MuTFF_SEEK_CUR(2U);
1348:mutff/src/mutff_default.c ****   MuTFF_FN(mutff_read_matrix, &out->matrix_structure);
1349:mutff/src/mutff_default.c ****   MuTFF_FN(mutff_read_q16_16, &out->track_width);
1350:mutff/src/mutff_default.c ****   MuTFF_FN(mutff_read_q16_16, &out->track_height);
1351:mutff/src/mutff_default.c ****   MuTFF_SEEK_CUR(size - *n);
1352:mutff/src/mutff_default.c ****   return MuTFFErrorNone;
1353:mutff/src/mutff_default.c **** }
1354:mutff/src/mutff_default.c **** 
1355:mutff/src/mutff_default.c **** static inline MuTFFError mutff_track_header_atom_size(
1356:mutff/src/mutff_default.c ****     uint64_t *out, const MuTFFTrackHeaderAtom *atom) {
1357:mutff/src/mutff_default.c ****   *out = mutff_atom_size(84);
1358:mutff/src/mutff_default.c ****   return MuTFFErrorNone;
1359:mutff/src/mutff_default.c **** }
1360:mutff/src/mutff_default.c **** 
1361:mutff/src/mutff_default.c **** MuTFFError mutff_write_track_header_atom(MuTFFContext *ctx, size_t *n,
1362:mutff/src/mutff_default.c ****                                          const MuTFFTrackHeaderAtom *in) {
1363:mutff/src/mutff_default.c ****   MuTFFError err;
1364:mutff/src/mutff_default.c ****   size_t bytes;
1365:mutff/src/mutff_default.c ****   *n = 0;
1366:mutff/src/mutff_default.c ****   uint64_t size;
1367:mutff/src/mutff_default.c ****   err = mutff_track_header_atom_size(&size, in);
1368:mutff/src/mutff_default.c ****   if (err != MuTFFErrorNone) {
1369:mutff/src/mutff_default.c ****     return err;
1370:mutff/src/mutff_default.c ****   }
1371:mutff/src/mutff_default.c ****   MuTFF_FN(mutff_write_header, size, MuTFF_FOURCC('t', 'k', 'h', 'd'));
1372:mutff/src/mutff_default.c ****   MuTFF_FN(mutff_write_u8, in->version);
1373:mutff/src/mutff_default.c ****   MuTFF_FN(mutff_write_u24, in->flags);
1374:mutff/src/mutff_default.c ****   MuTFF_FN(mutff_write_u32, in->creation_time);
1375:mutff/src/mutff_default.c ****   MuTFF_FN(mutff_write_u32, in->modification_time);
1376:mutff/src/mutff_default.c ****   MuTFF_FN(mutff_write_u32, in->track_id);
1377:mutff/src/mutff_default.c ****   for (size_t i = 0; i < 4U; ++i) {
1378:mutff/src/mutff_default.c ****     MuTFF_FN(mutff_write_u8, 0);
1379:mutff/src/mutff_default.c ****   }
1380:mutff/src/mutff_default.c ****   MuTFF_FN(mutff_write_u32, in->duration);
1381:mutff/src/mutff_default.c ****   for (size_t i = 0; i < 8U; ++i) {
1382:mutff/src/mutff_default.c ****     MuTFF_FN(mutff_write_u8, 0);
1383:mutff/src/mutff_default.c ****   }
1384:mutff/src/mutff_default.c ****   MuTFF_FN(mutff_write_u16, in->layer);
1385:mutff/src/mutff_default.c ****   MuTFF_FN(mutff_write_u16, in->alternate_group);
1386:mutff/src/mutff_default.c ****   MuTFF_FN(mutff_write_q8_8, in->volume);
1387:mutff/src/mutff_default.c ****   for (size_t i = 0; i < 2U; ++i) {
1388:mutff/src/mutff_default.c ****     MuTFF_FN(mutff_write_u8, 0);
1389:mutff/src/mutff_default.c ****   }
1390:mutff/src/mutff_default.c ****   MuTFF_FN(mutff_write_matrix, in->matrix_structure);
1391:mutff/src/mutff_default.c ****   MuTFF_FN(mutff_write_q16_16, in->track_width);
1392:mutff/src/mutff_default.c ****   MuTFF_FN(mutff_write_q16_16, in->track_height);
1393:mutff/src/mutff_default.c ****   return MuTFFErrorNone;
1394:mutff/src/mutff_default.c **** }
1395:mutff/src/mutff_default.c **** 
1396:mutff/src/mutff_default.c **** MuTFFError mutff_read_track_clean_aperture_dimensions_atom(
1397:mutff/src/mutff_default.c ****     MuTFFContext *ctx, size_t *n, MuTFFTrackCleanApertureDimensionsAtom *out) {
1398:mutff/src/mutff_default.c ****   MuTFFError err;
1399:mutff/src/mutff_default.c ****   size_t bytes;
ARM GAS  /var/folders/fz/x0kldt2j7vs_j4slv3pyc44m0000gp/T//ccIigdcK.s 			page 37


1400:mutff/src/mutff_default.c ****   *n = 0;
1401:mutff/src/mutff_default.c ****   uint64_t size;
1402:mutff/src/mutff_default.c ****   uint32_t type;
1403:mutff/src/mutff_default.c ****   MuTFF_FN(mutff_read_header, &size, &type);
1404:mutff/src/mutff_default.c ****   if (type != MuTFF_FOURCC('c', 'l', 'e', 'f')) {
1405:mutff/src/mutff_default.c ****     return MuTFFErrorBadFormat;
1406:mutff/src/mutff_default.c ****   }
1407:mutff/src/mutff_default.c ****   MuTFF_FN(mutff_read_u8, &out->version);
1408:mutff/src/mutff_default.c ****   MuTFF_FN(mutff_read_u24, &out->flags);
1409:mutff/src/mutff_default.c ****   MuTFF_FN(mutff_read_q16_16, &out->width);
1410:mutff/src/mutff_default.c ****   MuTFF_FN(mutff_read_q16_16, &out->height);
1411:mutff/src/mutff_default.c ****   return MuTFFErrorNone;
1412:mutff/src/mutff_default.c **** }
1413:mutff/src/mutff_default.c **** 
1414:mutff/src/mutff_default.c **** static inline MuTFFError mutff_track_clean_aperture_dimensions_atom_size(
1415:mutff/src/mutff_default.c ****     uint64_t *out, const MuTFFTrackCleanApertureDimensionsAtom *atom) {
1416:mutff/src/mutff_default.c ****   *out = mutff_atom_size(12);
1417:mutff/src/mutff_default.c ****   return MuTFFErrorNone;
1418:mutff/src/mutff_default.c **** }
1419:mutff/src/mutff_default.c **** 
1420:mutff/src/mutff_default.c **** MuTFFError mutff_write_track_clean_aperture_dimensions_atom(
1421:mutff/src/mutff_default.c ****     MuTFFContext *ctx, size_t *n,
1422:mutff/src/mutff_default.c ****     const MuTFFTrackCleanApertureDimensionsAtom *in) {
1423:mutff/src/mutff_default.c ****   MuTFFError err;
1424:mutff/src/mutff_default.c ****   size_t bytes;
1425:mutff/src/mutff_default.c ****   *n = 0;
1426:mutff/src/mutff_default.c ****   uint64_t size;
1427:mutff/src/mutff_default.c ****   err = mutff_track_clean_aperture_dimensions_atom_size(&size, in);
1428:mutff/src/mutff_default.c ****   if (err != MuTFFErrorNone) {
1429:mutff/src/mutff_default.c ****     return err;
1430:mutff/src/mutff_default.c ****   }
1431:mutff/src/mutff_default.c ****   MuTFF_FN(mutff_write_header, size, MuTFF_FOURCC('c', 'l', 'e', 'f'));
1432:mutff/src/mutff_default.c ****   MuTFF_FN(mutff_write_u8, in->version);
1433:mutff/src/mutff_default.c ****   MuTFF_FN(mutff_write_u24, in->flags);
1434:mutff/src/mutff_default.c ****   MuTFF_FN(mutff_write_q16_16, in->width);
1435:mutff/src/mutff_default.c ****   MuTFF_FN(mutff_write_q16_16, in->height);
1436:mutff/src/mutff_default.c ****   return MuTFFErrorNone;
1437:mutff/src/mutff_default.c **** }
1438:mutff/src/mutff_default.c **** 
1439:mutff/src/mutff_default.c **** MuTFFError mutff_read_track_production_aperture_dimensions_atom(
1440:mutff/src/mutff_default.c ****     MuTFFContext *ctx, size_t *n,
1441:mutff/src/mutff_default.c ****     MuTFFTrackProductionApertureDimensionsAtom *out) {
1442:mutff/src/mutff_default.c ****   MuTFFError err;
1443:mutff/src/mutff_default.c ****   size_t bytes;
1444:mutff/src/mutff_default.c ****   *n = 0;
1445:mutff/src/mutff_default.c ****   uint64_t size;
1446:mutff/src/mutff_default.c ****   uint32_t type;
1447:mutff/src/mutff_default.c ****   MuTFF_FN(mutff_read_header, &size, &type);
1448:mutff/src/mutff_default.c ****   if (type != MuTFF_FOURCC('p', 'r', 'o', 'f')) {
1449:mutff/src/mutff_default.c ****     return MuTFFErrorBadFormat;
1450:mutff/src/mutff_default.c ****   }
1451:mutff/src/mutff_default.c ****   MuTFF_FN(mutff_read_u8, &out->version);
1452:mutff/src/mutff_default.c ****   MuTFF_FN(mutff_read_u24, &out->flags);
1453:mutff/src/mutff_default.c ****   MuTFF_FN(mutff_read_q16_16, &out->width);
1454:mutff/src/mutff_default.c ****   MuTFF_FN(mutff_read_q16_16, &out->height);
1455:mutff/src/mutff_default.c ****   return MuTFFErrorNone;
1456:mutff/src/mutff_default.c **** }
ARM GAS  /var/folders/fz/x0kldt2j7vs_j4slv3pyc44m0000gp/T//ccIigdcK.s 			page 38


1457:mutff/src/mutff_default.c **** 
1458:mutff/src/mutff_default.c **** static inline MuTFFError mutff_track_production_aperture_dimensions_atom_size(
1459:mutff/src/mutff_default.c ****     uint64_t *out, const MuTFFTrackProductionApertureDimensionsAtom *atom) {
1460:mutff/src/mutff_default.c ****   *out = mutff_atom_size(12);
1461:mutff/src/mutff_default.c ****   return MuTFFErrorNone;
1462:mutff/src/mutff_default.c **** }
1463:mutff/src/mutff_default.c **** 
1464:mutff/src/mutff_default.c **** MuTFFError mutff_write_track_production_aperture_dimensions_atom(
1465:mutff/src/mutff_default.c ****     MuTFFContext *ctx, size_t *n,
1466:mutff/src/mutff_default.c ****     const MuTFFTrackProductionApertureDimensionsAtom *in) {
1467:mutff/src/mutff_default.c ****   MuTFFError err;
1468:mutff/src/mutff_default.c ****   size_t bytes;
1469:mutff/src/mutff_default.c ****   *n = 0;
1470:mutff/src/mutff_default.c ****   uint64_t size;
1471:mutff/src/mutff_default.c ****   err = mutff_track_production_aperture_dimensions_atom_size(&size, in);
1472:mutff/src/mutff_default.c ****   if (err != MuTFFErrorNone) {
1473:mutff/src/mutff_default.c ****     return err;
1474:mutff/src/mutff_default.c ****   }
1475:mutff/src/mutff_default.c ****   MuTFF_FN(mutff_write_header, size, MuTFF_FOURCC('p', 'r', 'o', 'f'));
1476:mutff/src/mutff_default.c ****   MuTFF_FN(mutff_write_u8, in->version);
1477:mutff/src/mutff_default.c ****   MuTFF_FN(mutff_write_u24, in->flags);
1478:mutff/src/mutff_default.c ****   MuTFF_FN(mutff_write_q16_16, in->width);
1479:mutff/src/mutff_default.c ****   MuTFF_FN(mutff_write_q16_16, in->height);
1480:mutff/src/mutff_default.c ****   return MuTFFErrorNone;
1481:mutff/src/mutff_default.c **** }
1482:mutff/src/mutff_default.c **** 
1483:mutff/src/mutff_default.c **** MuTFFError mutff_read_track_encoded_pixels_dimensions_atom(
1484:mutff/src/mutff_default.c ****     MuTFFContext *ctx, size_t *n, MuTFFTrackEncodedPixelsDimensionsAtom *out) {
1485:mutff/src/mutff_default.c ****   MuTFFError err;
1486:mutff/src/mutff_default.c ****   size_t bytes;
1487:mutff/src/mutff_default.c ****   *n = 0;
1488:mutff/src/mutff_default.c ****   uint64_t size;
1489:mutff/src/mutff_default.c ****   uint32_t type;
1490:mutff/src/mutff_default.c ****   MuTFF_FN(mutff_read_header, &size, &type);
1491:mutff/src/mutff_default.c ****   if (type != MuTFF_FOURCC('e', 'n', 'o', 'f')) {
1492:mutff/src/mutff_default.c ****     return MuTFFErrorBadFormat;
1493:mutff/src/mutff_default.c ****   }
1494:mutff/src/mutff_default.c ****   MuTFF_FN(mutff_read_u8, &out->version);
1495:mutff/src/mutff_default.c ****   MuTFF_FN(mutff_read_u24, &out->flags);
1496:mutff/src/mutff_default.c ****   MuTFF_FN(mutff_read_q16_16, &out->width);
1497:mutff/src/mutff_default.c ****   MuTFF_FN(mutff_read_q16_16, &out->height);
1498:mutff/src/mutff_default.c ****   return MuTFFErrorNone;
1499:mutff/src/mutff_default.c **** }
1500:mutff/src/mutff_default.c **** 
1501:mutff/src/mutff_default.c **** static inline MuTFFError mutff_track_encoded_pixels_atom_size(
1502:mutff/src/mutff_default.c ****     uint64_t *out, const MuTFFTrackEncodedPixelsDimensionsAtom *atom) {
1503:mutff/src/mutff_default.c ****   *out = mutff_atom_size(12);
1504:mutff/src/mutff_default.c ****   return MuTFFErrorNone;
1505:mutff/src/mutff_default.c **** }
1506:mutff/src/mutff_default.c **** 
1507:mutff/src/mutff_default.c **** MuTFFError mutff_write_track_encoded_pixels_dimensions_atom(
1508:mutff/src/mutff_default.c ****     MuTFFContext *ctx, size_t *n,
1509:mutff/src/mutff_default.c ****     const MuTFFTrackEncodedPixelsDimensionsAtom *in) {
1510:mutff/src/mutff_default.c ****   MuTFFError err;
1511:mutff/src/mutff_default.c ****   size_t bytes;
1512:mutff/src/mutff_default.c ****   *n = 0;
1513:mutff/src/mutff_default.c ****   uint64_t size;
ARM GAS  /var/folders/fz/x0kldt2j7vs_j4slv3pyc44m0000gp/T//ccIigdcK.s 			page 39


1514:mutff/src/mutff_default.c ****   err = mutff_track_encoded_pixels_atom_size(&size, in);
1515:mutff/src/mutff_default.c ****   if (err != MuTFFErrorNone) {
1516:mutff/src/mutff_default.c ****     return err;
1517:mutff/src/mutff_default.c ****   }
1518:mutff/src/mutff_default.c ****   MuTFF_FN(mutff_write_header, size, MuTFF_FOURCC('e', 'n', 'o', 'f'));
1519:mutff/src/mutff_default.c ****   MuTFF_FN(mutff_write_u8, in->version);
1520:mutff/src/mutff_default.c ****   MuTFF_FN(mutff_write_u24, in->flags);
1521:mutff/src/mutff_default.c ****   MuTFF_FN(mutff_write_q16_16, in->width);
1522:mutff/src/mutff_default.c ****   MuTFF_FN(mutff_write_q16_16, in->height);
1523:mutff/src/mutff_default.c ****   return MuTFFErrorNone;
1524:mutff/src/mutff_default.c **** }
1525:mutff/src/mutff_default.c **** 
1526:mutff/src/mutff_default.c **** MuTFFError mutff_read_track_aperture_mode_dimensions_atom(
1527:mutff/src/mutff_default.c ****     MuTFFContext *ctx, size_t *n, MuTFFTrackApertureModeDimensionsAtom *out) {
1528:mutff/src/mutff_default.c ****   MuTFFError err;
1529:mutff/src/mutff_default.c ****   size_t bytes;
1530:mutff/src/mutff_default.c ****   *n = 0;
1531:mutff/src/mutff_default.c ****   uint64_t size;
1532:mutff/src/mutff_default.c ****   uint32_t type;
1533:mutff/src/mutff_default.c ****   bool track_clean_aperture_dimensions_present = false;
1534:mutff/src/mutff_default.c ****   bool track_production_aperture_dimensions_present = false;
1535:mutff/src/mutff_default.c ****   bool track_encoded_pixels_dimensions_present = false;
1536:mutff/src/mutff_default.c **** 
1537:mutff/src/mutff_default.c ****   MuTFF_FN(mutff_read_header, &size, &type);
1538:mutff/src/mutff_default.c ****   if (type != MuTFF_FOURCC('t', 'a', 'p', 't')) {
1539:mutff/src/mutff_default.c ****     return MuTFFErrorBadFormat;
1540:mutff/src/mutff_default.c ****   }
1541:mutff/src/mutff_default.c **** 
1542:mutff/src/mutff_default.c ****   // read children
1543:mutff/src/mutff_default.c ****   uint64_t child_size;
1544:mutff/src/mutff_default.c ****   uint32_t child_type;
1545:mutff/src/mutff_default.c ****   while (*n < size) {
1546:mutff/src/mutff_default.c ****     MuTFF_FN(mutff_peek_atom_header, &child_size, &child_type);
1547:mutff/src/mutff_default.c ****     if (size == 0U) {
1548:mutff/src/mutff_default.c ****       return MuTFFErrorBadFormat;
1549:mutff/src/mutff_default.c ****     }
1550:mutff/src/mutff_default.c ****     if (*n + child_size > size) {
1551:mutff/src/mutff_default.c ****       return MuTFFErrorBadFormat;
1552:mutff/src/mutff_default.c ****     }
1553:mutff/src/mutff_default.c **** 
1554:mutff/src/mutff_default.c ****     switch (child_type) {
1555:mutff/src/mutff_default.c ****       case MuTFF_FOURCC('c', 'l', 'e', 'f'):
1556:mutff/src/mutff_default.c ****         MuTFF_READ_CHILD(mutff_read_track_clean_aperture_dimensions_atom,
1557:mutff/src/mutff_default.c ****                          &out->track_clean_aperture_dimensions,
1558:mutff/src/mutff_default.c ****                          track_clean_aperture_dimensions_present);
1559:mutff/src/mutff_default.c ****         track_clean_aperture_dimensions_present = true;
1560:mutff/src/mutff_default.c ****         break;
1561:mutff/src/mutff_default.c ****       case MuTFF_FOURCC('p', 'r', 'o', 'f'):
1562:mutff/src/mutff_default.c ****         MuTFF_READ_CHILD(mutff_read_track_production_aperture_dimensions_atom,
1563:mutff/src/mutff_default.c ****                          &out->track_production_aperture_dimensions,
1564:mutff/src/mutff_default.c ****                          track_production_aperture_dimensions_present);
1565:mutff/src/mutff_default.c ****         track_production_aperture_dimensions_present = true;
1566:mutff/src/mutff_default.c ****         break;
1567:mutff/src/mutff_default.c ****       case MuTFF_FOURCC('e', 'n', 'o', 'f'):
1568:mutff/src/mutff_default.c ****         MuTFF_READ_CHILD(mutff_read_track_encoded_pixels_dimensions_atom,
1569:mutff/src/mutff_default.c ****                          &out->track_encoded_pixels_dimensions,
1570:mutff/src/mutff_default.c ****                          track_encoded_pixels_dimensions_present);
ARM GAS  /var/folders/fz/x0kldt2j7vs_j4slv3pyc44m0000gp/T//ccIigdcK.s 			page 40


1571:mutff/src/mutff_default.c ****         break;
1572:mutff/src/mutff_default.c ****       default:
1573:mutff/src/mutff_default.c ****         // Unrecognised atom type, skip atom
1574:mutff/src/mutff_default.c ****         MuTFF_SEEK_CUR(child_size);
1575:mutff/src/mutff_default.c ****         break;
1576:mutff/src/mutff_default.c ****     }
1577:mutff/src/mutff_default.c ****   }
1578:mutff/src/mutff_default.c **** 
1579:mutff/src/mutff_default.c ****   if (!track_clean_aperture_dimensions_present ||
1580:mutff/src/mutff_default.c ****       !track_production_aperture_dimensions_present ||
1581:mutff/src/mutff_default.c ****       !track_encoded_pixels_dimensions_present) {
1582:mutff/src/mutff_default.c ****     return MuTFFErrorBadFormat;
1583:mutff/src/mutff_default.c ****   }
1584:mutff/src/mutff_default.c **** 
1585:mutff/src/mutff_default.c ****   return MuTFFErrorNone;
1586:mutff/src/mutff_default.c **** }
1587:mutff/src/mutff_default.c **** 
1588:mutff/src/mutff_default.c **** static inline MuTFFError mutff_track_aperture_mode_dimensions_atom_size(
1589:mutff/src/mutff_default.c ****     uint64_t *out, const MuTFFTrackApertureModeDimensionsAtom *atom) {
1590:mutff/src/mutff_default.c ****   *out = mutff_atom_size(60);
1591:mutff/src/mutff_default.c ****   return MuTFFErrorNone;
1592:mutff/src/mutff_default.c **** }
1593:mutff/src/mutff_default.c **** 
1594:mutff/src/mutff_default.c **** MuTFFError mutff_write_track_aperture_mode_dimensions_atom(
1595:mutff/src/mutff_default.c ****     MuTFFContext *ctx, size_t *n,
1596:mutff/src/mutff_default.c ****     const MuTFFTrackApertureModeDimensionsAtom *in) {
1597:mutff/src/mutff_default.c ****   MuTFFError err;
1598:mutff/src/mutff_default.c ****   size_t bytes;
1599:mutff/src/mutff_default.c ****   *n = 0;
1600:mutff/src/mutff_default.c ****   uint64_t size;
1601:mutff/src/mutff_default.c ****   err = mutff_track_aperture_mode_dimensions_atom_size(&size, in);
1602:mutff/src/mutff_default.c ****   if (err != MuTFFErrorNone) {
1603:mutff/src/mutff_default.c ****     return err;
1604:mutff/src/mutff_default.c ****   }
1605:mutff/src/mutff_default.c ****   MuTFF_FN(mutff_write_header, size, MuTFF_FOURCC('t', 'a', 'p', 't'));
1606:mutff/src/mutff_default.c ****   MuTFF_FN(mutff_write_track_clean_aperture_dimensions_atom,
1607:mutff/src/mutff_default.c ****            &in->track_clean_aperture_dimensions);
1608:mutff/src/mutff_default.c ****   MuTFF_FN(mutff_write_track_production_aperture_dimensions_atom,
1609:mutff/src/mutff_default.c ****            &in->track_production_aperture_dimensions);
1610:mutff/src/mutff_default.c ****   MuTFF_FN(mutff_write_track_encoded_pixels_dimensions_atom,
1611:mutff/src/mutff_default.c ****            &in->track_encoded_pixels_dimensions);
1612:mutff/src/mutff_default.c ****   return MuTFFErrorNone;
1613:mutff/src/mutff_default.c **** }
1614:mutff/src/mutff_default.c **** 
1615:mutff/src/mutff_default.c **** MuTFFError mutff_read_sample_description(MuTFFContext *ctx, size_t *n,
1616:mutff/src/mutff_default.c ****                                          MuTFFSampleDescription *out) {
1617:mutff/src/mutff_default.c ****   MuTFFError err;
1618:mutff/src/mutff_default.c ****   size_t bytes;
1619:mutff/src/mutff_default.c ****   *n = 0;
1620:mutff/src/mutff_default.c ****   uint32_t size;
1621:mutff/src/mutff_default.c ****   MuTFF_FN(mutff_read_u32, &size);
1622:mutff/src/mutff_default.c ****   MuTFF_FN(mutff_read_u32, &out->data_format);
1623:mutff/src/mutff_default.c ****   MuTFF_SEEK_CUR(6U);
1624:mutff/src/mutff_default.c ****   MuTFF_FN(mutff_read_u16, &out->data_reference_index);
1625:mutff/src/mutff_default.c ****   MuTFF_FN(mutff_media_type_read_fn(mutff_media_type(out->data_format)),
1626:mutff/src/mutff_default.c ****            &out->data);
1627:mutff/src/mutff_default.c ****   return MuTFFErrorNone;
ARM GAS  /var/folders/fz/x0kldt2j7vs_j4slv3pyc44m0000gp/T//ccIigdcK.s 			page 41


1628:mutff/src/mutff_default.c **** }
1629:mutff/src/mutff_default.c **** 
1630:mutff/src/mutff_default.c **** static inline MuTFFError mutff_sample_description_size(
1631:mutff/src/mutff_default.c ****     uint32_t *out, const MuTFFSampleDescription *desc) {
1632:mutff/src/mutff_default.c ****   uint64_t data_size;
1633:mutff/src/mutff_default.c ****   const MuTFFError err = mutff_media_type_size_fn(
1634:mutff/src/mutff_default.c ****       mutff_media_type(desc->data_format))(&data_size, &desc->data);
1635:mutff/src/mutff_default.c ****   if (err != MuTFFErrorNone) {
1636:mutff/src/mutff_default.c ****     return err;
1637:mutff/src/mutff_default.c ****   }
1638:mutff/src/mutff_default.c ****   *out = 16U + data_size;
1639:mutff/src/mutff_default.c ****   return MuTFFErrorNone;
1640:mutff/src/mutff_default.c **** }
1641:mutff/src/mutff_default.c **** 
1642:mutff/src/mutff_default.c **** MuTFFError mutff_write_sample_description(MuTFFContext *ctx, size_t *n,
1643:mutff/src/mutff_default.c ****                                           const MuTFFSampleDescription *in) {
1644:mutff/src/mutff_default.c ****   MuTFFError err;
1645:mutff/src/mutff_default.c ****   size_t bytes;
1646:mutff/src/mutff_default.c ****   *n = 0;
1647:mutff/src/mutff_default.c ****   uint32_t size;
1648:mutff/src/mutff_default.c ****   err = mutff_sample_description_size(&size, in);
1649:mutff/src/mutff_default.c ****   if (err != MuTFFErrorNone) {
1650:mutff/src/mutff_default.c ****     return err;
1651:mutff/src/mutff_default.c ****   }
1652:mutff/src/mutff_default.c ****   MuTFF_FN(mutff_write_u32, size);
1653:mutff/src/mutff_default.c ****   MuTFF_FN(mutff_write_u32, in->data_format);
1654:mutff/src/mutff_default.c ****   for (size_t i = 0; i < 6U; ++i) {
1655:mutff/src/mutff_default.c ****     MuTFF_FN(mutff_write_u8, 0);
1656:mutff/src/mutff_default.c ****   }
1657:mutff/src/mutff_default.c ****   MuTFF_FN(mutff_write_u16, in->data_reference_index);
1658:mutff/src/mutff_default.c ****   MuTFF_FN(mutff_media_type_write_fn(mutff_media_type(in->data_format)),
1659:mutff/src/mutff_default.c ****            &in->data);
1660:mutff/src/mutff_default.c ****   return MuTFFErrorNone;
1661:mutff/src/mutff_default.c **** }
1662:mutff/src/mutff_default.c **** 
1663:mutff/src/mutff_default.c **** MuTFFError mutff_read_video_sample_description(
1664:mutff/src/mutff_default.c ****     MuTFFContext *ctx, size_t *n, MuTFFVideoSampleDescription *out) {
1665:mutff/src/mutff_default.c ****   MuTFFError err;
1666:mutff/src/mutff_default.c ****   size_t bytes;
1667:mutff/src/mutff_default.c ****   *n = 0;
1668:mutff/src/mutff_default.c ****   MuTFF_FN(mutff_read_u16, &out->version);
1669:mutff/src/mutff_default.c ****   MuTFF_SEEK_CUR(2U);
1670:mutff/src/mutff_default.c ****   MuTFF_FN(mutff_read_u32, &out->vendor);
1671:mutff/src/mutff_default.c ****   MuTFF_FN(mutff_read_u32, &out->temporal_quality);
1672:mutff/src/mutff_default.c ****   MuTFF_FN(mutff_read_u32, &out->spatial_quality);
1673:mutff/src/mutff_default.c ****   MuTFF_FN(mutff_read_u16, &out->width);
1674:mutff/src/mutff_default.c ****   MuTFF_FN(mutff_read_u16, &out->height);
1675:mutff/src/mutff_default.c ****   MuTFF_FN(mutff_read_q16_16, &out->horizontal_resolution);
1676:mutff/src/mutff_default.c ****   MuTFF_FN(mutff_read_q16_16, &out->vertical_resolution);
1677:mutff/src/mutff_default.c ****   MuTFF_SEEK_CUR(4U);
1678:mutff/src/mutff_default.c ****   MuTFF_FN(mutff_read_u16, &out->frame_count);
1679:mutff/src/mutff_default.c ****   for (size_t i = 0; i < 32U; ++i) {
1680:mutff/src/mutff_default.c ****     MuTFF_FN(mutff_read_u8, (uint8_t *)&out->compressor_name[i]);
1681:mutff/src/mutff_default.c ****   }
1682:mutff/src/mutff_default.c ****   MuTFF_FN(mutff_read_u16, &out->depth);
1683:mutff/src/mutff_default.c ****   MuTFF_FN(mutff_read_i16, &out->color_table_id);
1684:mutff/src/mutff_default.c ****   return MuTFFErrorNone;
ARM GAS  /var/folders/fz/x0kldt2j7vs_j4slv3pyc44m0000gp/T//ccIigdcK.s 			page 42


1685:mutff/src/mutff_default.c **** }
1686:mutff/src/mutff_default.c **** 
1687:mutff/src/mutff_default.c **** inline MuTFFError mutff_video_sample_description_size(
1688:mutff/src/mutff_default.c ****     uint64_t *out, const MuTFFVideoSampleDescription *desc) {
 625              		.loc 1 1688 61 is_stmt 1 view -0
 626              		.cfi_startproc
 627              		@ args = 0, pretend = 0, frame = 0
 628              		@ frame_needed = 0, uses_anonymous_args = 0
 629              		@ link register save eliminated.
1689:mutff/src/mutff_default.c ****   *out = 70;
 630              		.loc 1 1689 3 view .LVU183
 631              		.loc 1 1689 8 is_stmt 0 view .LVU184
 632 0000 4622     		movs	r2, #70
 633 0002 0023     		movs	r3, #0
 634 0004 C0E90023 		strd	r2, [r0]
1690:mutff/src/mutff_default.c ****   return MuTFFErrorNone;
 635              		.loc 1 1690 3 is_stmt 1 view .LVU185
1691:mutff/src/mutff_default.c **** }
 636              		.loc 1 1691 1 is_stmt 0 view .LVU186
 637 0008 0020     		movs	r0, #0
 638              	.LVL39:
 639              		.loc 1 1691 1 view .LVU187
 640 000a 7047     		bx	lr
 641              		.cfi_endproc
 642              	.LFE105:
 644              		.section	.text.mutff_edit_atom_size,"ax",%progbits
 645              		.align	1
 646              		.syntax unified
 647              		.thumb
 648              		.thumb_func
 650              	mutff_edit_atom_size:
 651              	.LVL40:
 652              	.LFB119:
1692:mutff/src/mutff_default.c **** 
1693:mutff/src/mutff_default.c **** MuTFFError mutff_write_video_sample_description(
1694:mutff/src/mutff_default.c ****     MuTFFContext *ctx, size_t *n, const MuTFFVideoSampleDescription *in) {
1695:mutff/src/mutff_default.c ****   MuTFFError err;
1696:mutff/src/mutff_default.c ****   size_t bytes;
1697:mutff/src/mutff_default.c ****   *n = 0;
1698:mutff/src/mutff_default.c ****   MuTFF_FN(mutff_write_u16, in->version);
1699:mutff/src/mutff_default.c ****   MuTFF_FN(mutff_write_u16, 0);
1700:mutff/src/mutff_default.c ****   MuTFF_FN(mutff_write_u32, in->vendor);
1701:mutff/src/mutff_default.c ****   MuTFF_FN(mutff_write_u32, in->temporal_quality);
1702:mutff/src/mutff_default.c ****   MuTFF_FN(mutff_write_u32, in->spatial_quality);
1703:mutff/src/mutff_default.c ****   MuTFF_FN(mutff_write_u16, in->width);
1704:mutff/src/mutff_default.c ****   MuTFF_FN(mutff_write_u16, in->height);
1705:mutff/src/mutff_default.c ****   MuTFF_FN(mutff_write_q16_16, in->horizontal_resolution);
1706:mutff/src/mutff_default.c ****   MuTFF_FN(mutff_write_q16_16, in->vertical_resolution);
1707:mutff/src/mutff_default.c ****   MuTFF_FN(mutff_write_u32, 0);
1708:mutff/src/mutff_default.c ****   MuTFF_FN(mutff_write_u16, in->frame_count);
1709:mutff/src/mutff_default.c ****   for (size_t i = 0; i < 32U; ++i) {
1710:mutff/src/mutff_default.c ****     MuTFF_FN(mutff_write_u8, in->compressor_name[i]);
1711:mutff/src/mutff_default.c ****   }
1712:mutff/src/mutff_default.c ****   MuTFF_FN(mutff_write_u16, in->depth);
1713:mutff/src/mutff_default.c ****   MuTFF_FN(mutff_write_i16, in->color_table_id);
1714:mutff/src/mutff_default.c ****   return MuTFFErrorNone;
1715:mutff/src/mutff_default.c **** }
ARM GAS  /var/folders/fz/x0kldt2j7vs_j4slv3pyc44m0000gp/T//ccIigdcK.s 			page 43


1716:mutff/src/mutff_default.c **** 
1717:mutff/src/mutff_default.c **** MuTFFError mutff_read_compressed_matte_atom(MuTFFContext *ctx, size_t *n,
1718:mutff/src/mutff_default.c ****                                             MuTFFCompressedMatteAtom *out) {
1719:mutff/src/mutff_default.c ****   MuTFFError err;
1720:mutff/src/mutff_default.c ****   size_t bytes;
1721:mutff/src/mutff_default.c ****   *n = 0;
1722:mutff/src/mutff_default.c ****   uint64_t size;
1723:mutff/src/mutff_default.c ****   uint32_t type;
1724:mutff/src/mutff_default.c ****   MuTFF_FN(mutff_read_header, &size, &type);
1725:mutff/src/mutff_default.c ****   if (type != MuTFF_FOURCC('k', 'm', 'a', 't')) {
1726:mutff/src/mutff_default.c ****     return MuTFFErrorBadFormat;
1727:mutff/src/mutff_default.c ****   }
1728:mutff/src/mutff_default.c ****   MuTFF_FN(mutff_read_u8, &out->version);
1729:mutff/src/mutff_default.c ****   MuTFF_FN(mutff_read_u24, &out->flags);
1730:mutff/src/mutff_default.c **** 
1731:mutff/src/mutff_default.c ****   // read sample description
1732:mutff/src/mutff_default.c ****   MuTFF_FN(mutff_read_sample_description,
1733:mutff/src/mutff_default.c ****            &out->matte_image_description_structure);
1734:mutff/src/mutff_default.c **** 
1735:mutff/src/mutff_default.c ****   // read matte data
1736:mutff/src/mutff_default.c ****   uint32_t sample_desc_size;
1737:mutff/src/mutff_default.c ****   err = mutff_sample_description_size(&sample_desc_size,
1738:mutff/src/mutff_default.c ****                                       &out->matte_image_description_structure);
1739:mutff/src/mutff_default.c ****   if (err != MuTFFErrorNone) {
1740:mutff/src/mutff_default.c ****     return err;
1741:mutff/src/mutff_default.c ****   }
1742:mutff/src/mutff_default.c ****   out->matte_data_len = size - *n;
1743:mutff/src/mutff_default.c ****   for (uint32_t i = 0; i < out->matte_data_len; ++i) {
1744:mutff/src/mutff_default.c ****     MuTFF_FN(mutff_read_u8, (uint8_t *)&out->matte_data[i]);
1745:mutff/src/mutff_default.c ****   }
1746:mutff/src/mutff_default.c **** 
1747:mutff/src/mutff_default.c ****   return MuTFFErrorNone;
1748:mutff/src/mutff_default.c **** }
1749:mutff/src/mutff_default.c **** 
1750:mutff/src/mutff_default.c **** static inline MuTFFError mutff_compressed_matte_atom_size(
1751:mutff/src/mutff_default.c ****     uint64_t *out, const MuTFFCompressedMatteAtom *atom) {
1752:mutff/src/mutff_default.c ****   uint32_t sample_desc_size;
1753:mutff/src/mutff_default.c ****   const MuTFFError err = mutff_sample_description_size(
1754:mutff/src/mutff_default.c ****       &sample_desc_size, &atom->matte_image_description_structure);
1755:mutff/src/mutff_default.c ****   if (err != MuTFFErrorNone) {
1756:mutff/src/mutff_default.c ****     return err;
1757:mutff/src/mutff_default.c ****   }
1758:mutff/src/mutff_default.c ****   *out = mutff_atom_size(4U + sample_desc_size + atom->matte_data_len);
1759:mutff/src/mutff_default.c ****   return MuTFFErrorNone;
1760:mutff/src/mutff_default.c **** }
1761:mutff/src/mutff_default.c **** 
1762:mutff/src/mutff_default.c **** MuTFFError mutff_write_compressed_matte_atom(
1763:mutff/src/mutff_default.c ****     MuTFFContext *ctx, size_t *n, const MuTFFCompressedMatteAtom *in) {
1764:mutff/src/mutff_default.c ****   MuTFFError err;
1765:mutff/src/mutff_default.c ****   size_t bytes;
1766:mutff/src/mutff_default.c ****   *n = 0;
1767:mutff/src/mutff_default.c ****   uint64_t size;
1768:mutff/src/mutff_default.c ****   err = mutff_compressed_matte_atom_size(&size, in);
1769:mutff/src/mutff_default.c ****   if (err != MuTFFErrorNone) {
1770:mutff/src/mutff_default.c ****     return err;
1771:mutff/src/mutff_default.c ****   }
1772:mutff/src/mutff_default.c ****   MuTFF_FN(mutff_write_header, size, MuTFF_FOURCC('k', 'm', 'a', 't'));
ARM GAS  /var/folders/fz/x0kldt2j7vs_j4slv3pyc44m0000gp/T//ccIigdcK.s 			page 44


1773:mutff/src/mutff_default.c ****   MuTFF_FN(mutff_write_u8, in->version);
1774:mutff/src/mutff_default.c ****   MuTFF_FN(mutff_write_u24, in->flags);
1775:mutff/src/mutff_default.c ****   MuTFF_FN(mutff_write_sample_description,
1776:mutff/src/mutff_default.c ****            &in->matte_image_description_structure);
1777:mutff/src/mutff_default.c ****   for (size_t i = 0; i < in->matte_data_len; ++i) {
1778:mutff/src/mutff_default.c ****     MuTFF_FN(mutff_write_u8, in->matte_data[i]);
1779:mutff/src/mutff_default.c ****   }
1780:mutff/src/mutff_default.c ****   return MuTFFErrorNone;
1781:mutff/src/mutff_default.c **** }
1782:mutff/src/mutff_default.c **** 
1783:mutff/src/mutff_default.c **** MuTFFError mutff_read_track_matte_atom(MuTFFContext *ctx, size_t *n,
1784:mutff/src/mutff_default.c ****                                        MuTFFTrackMatteAtom *out) {
1785:mutff/src/mutff_default.c ****   MuTFFError err;
1786:mutff/src/mutff_default.c ****   size_t bytes;
1787:mutff/src/mutff_default.c ****   *n = 0;
1788:mutff/src/mutff_default.c ****   uint64_t size;
1789:mutff/src/mutff_default.c ****   uint32_t type;
1790:mutff/src/mutff_default.c ****   bool compressed_matte_atom_present = false;
1791:mutff/src/mutff_default.c **** 
1792:mutff/src/mutff_default.c ****   MuTFF_FN(mutff_read_header, &size, &type);
1793:mutff/src/mutff_default.c ****   if (type != MuTFF_FOURCC('m', 'a', 't', 't')) {
1794:mutff/src/mutff_default.c ****     return MuTFFErrorBadFormat;
1795:mutff/src/mutff_default.c ****   }
1796:mutff/src/mutff_default.c **** 
1797:mutff/src/mutff_default.c ****   uint64_t child_size;
1798:mutff/src/mutff_default.c ****   uint32_t child_type;
1799:mutff/src/mutff_default.c ****   while (*n < size) {
1800:mutff/src/mutff_default.c ****     MuTFF_FN(mutff_peek_atom_header, &child_size, &child_type);
1801:mutff/src/mutff_default.c ****     if (size == 0U) {
1802:mutff/src/mutff_default.c ****       return MuTFFErrorBadFormat;
1803:mutff/src/mutff_default.c ****     }
1804:mutff/src/mutff_default.c ****     if (*n + child_size > size) {
1805:mutff/src/mutff_default.c ****       return MuTFFErrorBadFormat;
1806:mutff/src/mutff_default.c ****     }
1807:mutff/src/mutff_default.c ****     if (child_type == MuTFF_FOURCC('k', 'm', 'a', 't')) {
1808:mutff/src/mutff_default.c ****       MuTFF_READ_CHILD(mutff_read_compressed_matte_atom,
1809:mutff/src/mutff_default.c ****                        &out->compressed_matte_atom,
1810:mutff/src/mutff_default.c ****                        compressed_matte_atom_present);
1811:mutff/src/mutff_default.c ****     } else {
1812:mutff/src/mutff_default.c ****       MuTFF_SEEK_CUR(child_size);
1813:mutff/src/mutff_default.c ****     }
1814:mutff/src/mutff_default.c ****   }
1815:mutff/src/mutff_default.c **** 
1816:mutff/src/mutff_default.c ****   return MuTFFErrorNone;
1817:mutff/src/mutff_default.c **** }
1818:mutff/src/mutff_default.c **** 
1819:mutff/src/mutff_default.c **** static inline MuTFFError mutff_track_matte_atom_size(
1820:mutff/src/mutff_default.c ****     uint64_t *out, const MuTFFTrackMatteAtom *atom) {
1821:mutff/src/mutff_default.c ****   uint64_t size;
1822:mutff/src/mutff_default.c ****   const MuTFFError err =
1823:mutff/src/mutff_default.c ****       mutff_compressed_matte_atom_size(&size, &atom->compressed_matte_atom);
1824:mutff/src/mutff_default.c ****   if (err != MuTFFErrorNone) {
1825:mutff/src/mutff_default.c ****     return err;
1826:mutff/src/mutff_default.c ****   }
1827:mutff/src/mutff_default.c ****   *out = mutff_atom_size(size);
1828:mutff/src/mutff_default.c ****   return MuTFFErrorNone;
1829:mutff/src/mutff_default.c **** }
ARM GAS  /var/folders/fz/x0kldt2j7vs_j4slv3pyc44m0000gp/T//ccIigdcK.s 			page 45


1830:mutff/src/mutff_default.c **** 
1831:mutff/src/mutff_default.c **** MuTFFError mutff_write_track_matte_atom(MuTFFContext *ctx, size_t *n,
1832:mutff/src/mutff_default.c ****                                         const MuTFFTrackMatteAtom *in) {
1833:mutff/src/mutff_default.c ****   MuTFFError err;
1834:mutff/src/mutff_default.c ****   size_t bytes;
1835:mutff/src/mutff_default.c ****   *n = 0;
1836:mutff/src/mutff_default.c ****   uint64_t size;
1837:mutff/src/mutff_default.c ****   err = mutff_track_matte_atom_size(&size, in);
1838:mutff/src/mutff_default.c ****   if (err != MuTFFErrorNone) {
1839:mutff/src/mutff_default.c ****     return err;
1840:mutff/src/mutff_default.c ****   }
1841:mutff/src/mutff_default.c ****   MuTFF_FN(mutff_write_header, size, MuTFF_FOURCC('m', 'a', 't', 't'));
1842:mutff/src/mutff_default.c ****   MuTFF_FN(mutff_write_compressed_matte_atom, &in->compressed_matte_atom);
1843:mutff/src/mutff_default.c ****   return MuTFFErrorNone;
1844:mutff/src/mutff_default.c **** }
1845:mutff/src/mutff_default.c **** 
1846:mutff/src/mutff_default.c **** MuTFFError mutff_read_edit_list_entry(MuTFFContext *ctx, size_t *n,
1847:mutff/src/mutff_default.c ****                                       MuTFFEditListEntry *out) {
1848:mutff/src/mutff_default.c ****   MuTFFError err;
1849:mutff/src/mutff_default.c ****   size_t bytes;
1850:mutff/src/mutff_default.c ****   *n = 0;
1851:mutff/src/mutff_default.c ****   MuTFF_FN(mutff_read_u32, &out->track_duration);
1852:mutff/src/mutff_default.c ****   MuTFF_FN(mutff_read_u32, &out->media_time);
1853:mutff/src/mutff_default.c ****   MuTFF_FN(mutff_read_q16_16, &out->media_rate);
1854:mutff/src/mutff_default.c ****   return MuTFFErrorNone;
1855:mutff/src/mutff_default.c **** }
1856:mutff/src/mutff_default.c **** 
1857:mutff/src/mutff_default.c **** MuTFFError mutff_write_edit_list_entry(MuTFFContext *ctx, size_t *n,
1858:mutff/src/mutff_default.c ****                                        const MuTFFEditListEntry *in) {
1859:mutff/src/mutff_default.c ****   MuTFFError err;
1860:mutff/src/mutff_default.c ****   size_t bytes;
1861:mutff/src/mutff_default.c ****   *n = 0;
1862:mutff/src/mutff_default.c ****   MuTFF_FN(mutff_write_u32, in->track_duration);
1863:mutff/src/mutff_default.c ****   MuTFF_FN(mutff_write_u32, in->media_time);
1864:mutff/src/mutff_default.c ****   MuTFF_FN(mutff_write_q16_16, in->media_rate);
1865:mutff/src/mutff_default.c ****   return MuTFFErrorNone;
1866:mutff/src/mutff_default.c **** }
1867:mutff/src/mutff_default.c **** 
1868:mutff/src/mutff_default.c **** MuTFFError mutff_read_edit_list_atom(MuTFFContext *ctx, size_t *n,
1869:mutff/src/mutff_default.c ****                                      MuTFFEditListAtom *out) {
1870:mutff/src/mutff_default.c ****   MuTFFError err;
1871:mutff/src/mutff_default.c ****   size_t bytes;
1872:mutff/src/mutff_default.c ****   *n = 0;
1873:mutff/src/mutff_default.c ****   uint64_t size;
1874:mutff/src/mutff_default.c ****   uint32_t type;
1875:mutff/src/mutff_default.c ****   MuTFF_FN(mutff_read_header, &size, &type);
1876:mutff/src/mutff_default.c ****   if (type != MuTFF_FOURCC('e', 'l', 's', 't')) {
1877:mutff/src/mutff_default.c ****     return MuTFFErrorBadFormat;
1878:mutff/src/mutff_default.c ****   }
1879:mutff/src/mutff_default.c ****   MuTFF_FN(mutff_read_u8, &out->version);
1880:mutff/src/mutff_default.c ****   MuTFF_FN(mutff_read_u24, &out->flags);
1881:mutff/src/mutff_default.c ****   MuTFF_FN(mutff_read_u32, &out->number_of_entries);
1882:mutff/src/mutff_default.c **** 
1883:mutff/src/mutff_default.c ****   // read edit list table
1884:mutff/src/mutff_default.c ****   if (out->number_of_entries > MuTFF_MAX_EDIT_LIST_ENTRIES) {
1885:mutff/src/mutff_default.c ****     return MuTFFErrorOutOfMemory;
1886:mutff/src/mutff_default.c ****   }
ARM GAS  /var/folders/fz/x0kldt2j7vs_j4slv3pyc44m0000gp/T//ccIigdcK.s 			page 46


1887:mutff/src/mutff_default.c ****   const size_t edit_list_table_size = size - 16U;
1888:mutff/src/mutff_default.c ****   if (edit_list_table_size != out->number_of_entries * 12U) {
1889:mutff/src/mutff_default.c ****     return MuTFFErrorBadFormat;
1890:mutff/src/mutff_default.c ****   }
1891:mutff/src/mutff_default.c ****   for (size_t i = 0; i < out->number_of_entries; ++i) {
1892:mutff/src/mutff_default.c ****     MuTFF_FN(mutff_read_edit_list_entry, &out->edit_list_table[i]);
1893:mutff/src/mutff_default.c ****   }
1894:mutff/src/mutff_default.c **** 
1895:mutff/src/mutff_default.c ****   return MuTFFErrorNone;
1896:mutff/src/mutff_default.c **** }
1897:mutff/src/mutff_default.c **** 
1898:mutff/src/mutff_default.c **** static inline MuTFFError mutff_edit_list_atom_size(
1899:mutff/src/mutff_default.c ****     uint64_t *out, const MuTFFEditListAtom *atom) {
1900:mutff/src/mutff_default.c ****   *out = mutff_atom_size(8U + atom->number_of_entries * 12U);
1901:mutff/src/mutff_default.c ****   return MuTFFErrorNone;
1902:mutff/src/mutff_default.c **** }
1903:mutff/src/mutff_default.c **** 
1904:mutff/src/mutff_default.c **** MuTFFError mutff_write_edit_list_atom(MuTFFContext *ctx, size_t *n,
1905:mutff/src/mutff_default.c ****                                       const MuTFFEditListAtom *in) {
1906:mutff/src/mutff_default.c ****   MuTFFError err;
1907:mutff/src/mutff_default.c ****   size_t bytes;
1908:mutff/src/mutff_default.c ****   *n = 0;
1909:mutff/src/mutff_default.c ****   uint64_t size;
1910:mutff/src/mutff_default.c ****   err = mutff_edit_list_atom_size(&size, in);
1911:mutff/src/mutff_default.c ****   if (err != MuTFFErrorNone) {
1912:mutff/src/mutff_default.c ****     return err;
1913:mutff/src/mutff_default.c ****   }
1914:mutff/src/mutff_default.c ****   MuTFF_FN(mutff_write_header, size, MuTFF_FOURCC('e', 'l', 's', 't'));
1915:mutff/src/mutff_default.c ****   MuTFF_FN(mutff_write_u8, in->version);
1916:mutff/src/mutff_default.c ****   MuTFF_FN(mutff_write_u24, in->flags);
1917:mutff/src/mutff_default.c ****   MuTFF_FN(mutff_write_u32, in->number_of_entries);
1918:mutff/src/mutff_default.c ****   for (size_t i = 0; i < in->number_of_entries; ++i) {
1919:mutff/src/mutff_default.c ****     MuTFF_FN(mutff_write_edit_list_entry, &in->edit_list_table[i]);
1920:mutff/src/mutff_default.c ****   }
1921:mutff/src/mutff_default.c ****   return MuTFFErrorNone;
1922:mutff/src/mutff_default.c **** }
1923:mutff/src/mutff_default.c **** 
1924:mutff/src/mutff_default.c **** MuTFFError mutff_read_edit_atom(MuTFFContext *ctx, size_t *n,
1925:mutff/src/mutff_default.c ****                                 MuTFFEditAtom *out) {
1926:mutff/src/mutff_default.c ****   MuTFFError err;
1927:mutff/src/mutff_default.c ****   size_t bytes;
1928:mutff/src/mutff_default.c ****   *n = 0;
1929:mutff/src/mutff_default.c ****   uint64_t size;
1930:mutff/src/mutff_default.c ****   uint32_t type;
1931:mutff/src/mutff_default.c ****   bool edit_list_present = false;
1932:mutff/src/mutff_default.c **** 
1933:mutff/src/mutff_default.c ****   MuTFF_FN(mutff_read_header, &size, &type);
1934:mutff/src/mutff_default.c ****   if (type != MuTFF_FOURCC('e', 'd', 't', 's')) {
1935:mutff/src/mutff_default.c ****     return MuTFFErrorBadFormat;
1936:mutff/src/mutff_default.c ****   }
1937:mutff/src/mutff_default.c **** 
1938:mutff/src/mutff_default.c ****   uint64_t child_size;
1939:mutff/src/mutff_default.c ****   uint32_t child_type;
1940:mutff/src/mutff_default.c ****   while (*n < size) {
1941:mutff/src/mutff_default.c ****     MuTFF_FN(mutff_peek_atom_header, &child_size, &child_type);
1942:mutff/src/mutff_default.c ****     if (size == 0U) {
1943:mutff/src/mutff_default.c ****       return MuTFFErrorBadFormat;
ARM GAS  /var/folders/fz/x0kldt2j7vs_j4slv3pyc44m0000gp/T//ccIigdcK.s 			page 47


1944:mutff/src/mutff_default.c ****     }
1945:mutff/src/mutff_default.c ****     if (*n + child_size > size) {
1946:mutff/src/mutff_default.c ****       return err;
1947:mutff/src/mutff_default.c ****     }
1948:mutff/src/mutff_default.c ****     if (child_type == MuTFF_FOURCC('e', 'l', 's', 't')) {
1949:mutff/src/mutff_default.c ****       MuTFF_READ_CHILD(mutff_read_edit_list_atom, &out->edit_list_atom,
1950:mutff/src/mutff_default.c ****                        edit_list_present);
1951:mutff/src/mutff_default.c ****     } else {
1952:mutff/src/mutff_default.c ****       MuTFF_SEEK_CUR(child_size);
1953:mutff/src/mutff_default.c ****     }
1954:mutff/src/mutff_default.c ****   }
1955:mutff/src/mutff_default.c **** 
1956:mutff/src/mutff_default.c ****   return MuTFFErrorNone;
1957:mutff/src/mutff_default.c **** }
1958:mutff/src/mutff_default.c **** 
1959:mutff/src/mutff_default.c **** static inline MuTFFError mutff_edit_atom_size(uint64_t *out,
1960:mutff/src/mutff_default.c ****                                               const MuTFFEditAtom *atom) {
 653              		.loc 1 1960 74 is_stmt 1 view -0
 654              		.cfi_startproc
 655              		@ args = 0, pretend = 0, frame = 0
 656              		@ frame_needed = 0, uses_anonymous_args = 0
 657              		@ link register save eliminated.
 658              		.loc 1 1960 74 is_stmt 0 view .LVU189
 659 0000 10B4     		push	{r4}
 660              		.cfi_def_cfa_offset 4
 661              		.cfi_offset 4, -4
1961:mutff/src/mutff_default.c ****   uint64_t size;
 662              		.loc 1 1961 3 is_stmt 1 view .LVU190
1962:mutff/src/mutff_default.c ****   const MuTFFError err =
 663              		.loc 1 1962 3 view .LVU191
 664              	.LVL41:
 665              	.LBB501:
 666              	.LBI501:
1898:mutff/src/mutff_default.c ****     uint64_t *out, const MuTFFEditListAtom *atom) {
 667              		.loc 1 1898 26 view .LVU192
 668              	.LBB502:
1900:mutff/src/mutff_default.c ****   return MuTFFErrorNone;
 669              		.loc 1 1900 3 view .LVU193
1900:mutff/src/mutff_default.c ****   return MuTFFErrorNone;
 670              		.loc 1 1900 35 is_stmt 0 view .LVU194
 671 0002 8B68     		ldr	r3, [r1, #8]
1900:mutff/src/mutff_default.c ****   return MuTFFErrorNone;
 672              		.loc 1 1900 55 view .LVU195
 673 0004 03EB4303 		add	r3, r3, r3, lsl #1
 674 0008 9B00     		lsls	r3, r3, #2
1900:mutff/src/mutff_default.c ****   return MuTFFErrorNone;
 675              		.loc 1 1900 10 view .LVU196
 676 000a 0024     		movs	r4, #0
 677 000c 0833     		adds	r3, r3, #8
 678              	.LVL42:
 679              	.LBB503:
 680              	.LBI503:
 389:mutff/src/mutff_default.c ****   return data_size + 8U <= UINT32_MAX ? data_size + 8U : data_size + 16U;
 681              		.loc 1 389 24 is_stmt 1 view .LVU197
 682              	.LBB504:
 390:mutff/src/mutff_default.c **** }
 683              		.loc 1 390 3 view .LVU198
ARM GAS  /var/folders/fz/x0kldt2j7vs_j4slv3pyc44m0000gp/T//ccIigdcK.s 			page 48


 390:mutff/src/mutff_default.c **** }
 684              		.loc 1 390 20 is_stmt 0 view .LVU199
 685 000e 13F10802 		adds	r2, r3, #8
 686 0012 44F10001 		adc	r1, r4, #0
 687              	.LVL43:
 390:mutff/src/mutff_default.c **** }
 688              		.loc 1 390 56 view .LVU200
 689 0016 4FF0FF3C 		mov	ip, #-1
 690 001a 9445     		cmp	ip, r2
 691 001c 74EB010C 		sbcs	ip, r4, r1
 692 0020 03D2     		bcs	.L30
 693 0022 13F11002 		adds	r2, r3, #16
 694 0026 44F10001 		adc	r1, r4, #0
 695              	.L30:
 696              	.LVL44:
 390:mutff/src/mutff_default.c **** }
 697              		.loc 1 390 56 view .LVU201
 698              	.LBE504:
 699              	.LBE503:
1901:mutff/src/mutff_default.c **** }
 700              		.loc 1 1901 3 is_stmt 1 view .LVU202
1901:mutff/src/mutff_default.c **** }
 701              		.loc 1 1901 3 is_stmt 0 view .LVU203
 702              	.LBE502:
 703              	.LBE501:
1963:mutff/src/mutff_default.c ****       mutff_edit_list_atom_size(&size, &atom->edit_list_atom);
1964:mutff/src/mutff_default.c ****   if (err != MuTFFErrorNone) {
 704              		.loc 1 1964 3 is_stmt 1 view .LVU204
1965:mutff/src/mutff_default.c ****     return err;
1966:mutff/src/mutff_default.c ****   }
1967:mutff/src/mutff_default.c ****   *out = mutff_atom_size(size);
 705              		.loc 1 1967 3 view .LVU205
 706              	.LBB505:
 707              	.LBI505:
 389:mutff/src/mutff_default.c ****   return data_size + 8U <= UINT32_MAX ? data_size + 8U : data_size + 16U;
 708              		.loc 1 389 24 view .LVU206
 709              	.LBB506:
 390:mutff/src/mutff_default.c **** }
 710              		.loc 1 390 3 view .LVU207
 390:mutff/src/mutff_default.c **** }
 711              		.loc 1 390 20 is_stmt 0 view .LVU208
 712 002a 12F10804 		adds	r4, r2, #8
 713 002e 41F10003 		adc	r3, r1, #0
 390:mutff/src/mutff_default.c **** }
 714              		.loc 1 390 56 view .LVU209
 715 0032 4FF0FF3C 		mov	ip, #-1
 716 0036 A445     		cmp	ip, r4
 717 0038 4FF0000C 		mov	ip, #0
 718 003c 7CEB030C 		sbcs	ip, ip, r3
 719 0040 03D2     		bcs	.L31
 720 0042 12F11004 		adds	r4, r2, #16
 721 0046 41F10003 		adc	r3, r1, #0
 722              	.L31:
 723              	.LVL45:
 390:mutff/src/mutff_default.c **** }
 724              		.loc 1 390 56 view .LVU210
 725              	.LBE506:
ARM GAS  /var/folders/fz/x0kldt2j7vs_j4slv3pyc44m0000gp/T//ccIigdcK.s 			page 49


 726              	.LBE505:
 727              		.loc 1 1967 8 view .LVU211
 728 004a 0460     		str	r4, [r0]
 729 004c 4360     		str	r3, [r0, #4]
1968:mutff/src/mutff_default.c ****   return MuTFFErrorNone;
 730              		.loc 1 1968 3 is_stmt 1 view .LVU212
 731              	.LVL46:
1969:mutff/src/mutff_default.c **** }
 732              		.loc 1 1969 1 is_stmt 0 view .LVU213
 733 004e 0020     		movs	r0, #0
 734              	.LVL47:
 735              		.loc 1 1969 1 view .LVU214
 736 0050 5DF8044B 		ldr	r4, [sp], #4
 737              		.cfi_restore 4
 738              		.cfi_def_cfa_offset 0
 739 0054 7047     		bx	lr
 740              		.cfi_endproc
 741              	.LFE119:
 743              		.section	.text.mutff_track_reference_atom_size,"ax",%progbits
 744              		.align	1
 745              		.syntax unified
 746              		.thumb
 747              		.thumb_func
 749              	mutff_track_reference_atom_size:
 750              	.LVL48:
 751              	.LFB125:
1970:mutff/src/mutff_default.c **** 
1971:mutff/src/mutff_default.c **** MuTFFError mutff_write_edit_atom(MuTFFContext *ctx, size_t *n,
1972:mutff/src/mutff_default.c ****                                  const MuTFFEditAtom *in) {
1973:mutff/src/mutff_default.c ****   MuTFFError err;
1974:mutff/src/mutff_default.c ****   size_t bytes;
1975:mutff/src/mutff_default.c ****   *n = 0;
1976:mutff/src/mutff_default.c ****   uint64_t size;
1977:mutff/src/mutff_default.c ****   err = mutff_edit_atom_size(&size, in);
1978:mutff/src/mutff_default.c ****   if (err != MuTFFErrorNone) {
1979:mutff/src/mutff_default.c ****     return err;
1980:mutff/src/mutff_default.c ****   }
1981:mutff/src/mutff_default.c ****   MuTFF_FN(mutff_write_header, size, MuTFF_FOURCC('e', 'd', 't', 's'));
1982:mutff/src/mutff_default.c ****   MuTFF_FN(mutff_write_edit_list_atom, &in->edit_list_atom);
1983:mutff/src/mutff_default.c ****   return MuTFFErrorNone;
1984:mutff/src/mutff_default.c **** }
1985:mutff/src/mutff_default.c **** 
1986:mutff/src/mutff_default.c **** MuTFFError mutff_read_track_reference_type_atom(
1987:mutff/src/mutff_default.c ****     MuTFFContext *ctx, size_t *n, MuTFFTrackReferenceTypeAtom *out) {
1988:mutff/src/mutff_default.c ****   MuTFFError err;
1989:mutff/src/mutff_default.c ****   size_t bytes;
1990:mutff/src/mutff_default.c ****   *n = 0;
1991:mutff/src/mutff_default.c ****   uint64_t size;
1992:mutff/src/mutff_default.c ****   MuTFF_FN(mutff_read_header, &size, &out->type);
1993:mutff/src/mutff_default.c **** 
1994:mutff/src/mutff_default.c ****   // read track references
1995:mutff/src/mutff_default.c ****   if (mutff_data_size(size) % 4U != 0U) {
1996:mutff/src/mutff_default.c ****     return MuTFFErrorBadFormat;
1997:mutff/src/mutff_default.c ****   }
1998:mutff/src/mutff_default.c ****   out->track_id_count = mutff_data_size(size) / 4U;
1999:mutff/src/mutff_default.c ****   if (out->track_id_count > MuTFF_MAX_TRACK_REFERENCE_TYPE_TRACK_IDS) {
2000:mutff/src/mutff_default.c ****     return MuTFFErrorOutOfMemory;
ARM GAS  /var/folders/fz/x0kldt2j7vs_j4slv3pyc44m0000gp/T//ccIigdcK.s 			page 50


2001:mutff/src/mutff_default.c ****   }
2002:mutff/src/mutff_default.c ****   for (unsigned int i = 0; i < out->track_id_count; ++i) {
2003:mutff/src/mutff_default.c ****     MuTFF_FN(mutff_read_u32, &out->track_ids[i]);
2004:mutff/src/mutff_default.c ****   }
2005:mutff/src/mutff_default.c **** 
2006:mutff/src/mutff_default.c ****   return MuTFFErrorNone;
2007:mutff/src/mutff_default.c **** }
2008:mutff/src/mutff_default.c **** 
2009:mutff/src/mutff_default.c **** static inline MuTFFError mutff_track_reference_type_atom_size(
2010:mutff/src/mutff_default.c ****     uint64_t *out, const MuTFFTrackReferenceTypeAtom *atom) {
2011:mutff/src/mutff_default.c ****   *out = mutff_atom_size(4U * atom->track_id_count);
2012:mutff/src/mutff_default.c ****   return MuTFFErrorNone;
2013:mutff/src/mutff_default.c **** }
2014:mutff/src/mutff_default.c **** 
2015:mutff/src/mutff_default.c **** MuTFFError mutff_write_track_reference_type_atom(
2016:mutff/src/mutff_default.c ****     MuTFFContext *ctx, size_t *n, const MuTFFTrackReferenceTypeAtom *in) {
2017:mutff/src/mutff_default.c ****   MuTFFError err;
2018:mutff/src/mutff_default.c ****   size_t bytes;
2019:mutff/src/mutff_default.c ****   *n = 0;
2020:mutff/src/mutff_default.c ****   uint64_t size;
2021:mutff/src/mutff_default.c ****   err = mutff_track_reference_type_atom_size(&size, in);
2022:mutff/src/mutff_default.c ****   if (err != MuTFFErrorNone) {
2023:mutff/src/mutff_default.c ****     return err;
2024:mutff/src/mutff_default.c ****   }
2025:mutff/src/mutff_default.c ****   MuTFF_FN(mutff_write_header, size, in->type);
2026:mutff/src/mutff_default.c ****   for (size_t i = 0; i < in->track_id_count; ++i) {
2027:mutff/src/mutff_default.c ****     MuTFF_FN(mutff_write_u32, in->track_ids[i]);
2028:mutff/src/mutff_default.c ****   }
2029:mutff/src/mutff_default.c ****   return MuTFFErrorNone;
2030:mutff/src/mutff_default.c **** }
2031:mutff/src/mutff_default.c **** 
2032:mutff/src/mutff_default.c **** MuTFFError mutff_read_track_reference_atom(MuTFFContext *ctx, size_t *n,
2033:mutff/src/mutff_default.c ****                                            MuTFFTrackReferenceAtom *out) {
2034:mutff/src/mutff_default.c ****   MuTFFError err;
2035:mutff/src/mutff_default.c ****   size_t bytes;
2036:mutff/src/mutff_default.c ****   *n = 0;
2037:mutff/src/mutff_default.c ****   uint64_t size;
2038:mutff/src/mutff_default.c ****   uint32_t type;
2039:mutff/src/mutff_default.c ****   MuTFF_FN(mutff_read_header, &size, &type);
2040:mutff/src/mutff_default.c ****   if (type != MuTFF_FOURCC('t', 'r', 'e', 'f')) {
2041:mutff/src/mutff_default.c ****     return MuTFFErrorBadFormat;
2042:mutff/src/mutff_default.c ****   }
2043:mutff/src/mutff_default.c **** 
2044:mutff/src/mutff_default.c ****   // read children
2045:mutff/src/mutff_default.c ****   size_t i = 0;
2046:mutff/src/mutff_default.c ****   uint64_t child_size;
2047:mutff/src/mutff_default.c ****   uint32_t child_type;
2048:mutff/src/mutff_default.c ****   while (*n < size) {
2049:mutff/src/mutff_default.c ****     if (i >= MuTFF_MAX_TRACK_REFERENCE_TYPE_ATOMS) {
2050:mutff/src/mutff_default.c ****       return MuTFFErrorOutOfMemory;
2051:mutff/src/mutff_default.c ****     }
2052:mutff/src/mutff_default.c ****     MuTFF_FN(mutff_peek_atom_header, &child_size, &child_type);
2053:mutff/src/mutff_default.c ****     if (size == 0U) {
2054:mutff/src/mutff_default.c ****       return MuTFFErrorBadFormat;
2055:mutff/src/mutff_default.c ****     }
2056:mutff/src/mutff_default.c ****     if (*n + child_size > size) {
2057:mutff/src/mutff_default.c ****       return MuTFFErrorBadFormat;
ARM GAS  /var/folders/fz/x0kldt2j7vs_j4slv3pyc44m0000gp/T//ccIigdcK.s 			page 51


2058:mutff/src/mutff_default.c ****     }
2059:mutff/src/mutff_default.c ****     MuTFF_FN(mutff_read_track_reference_type_atom,
2060:mutff/src/mutff_default.c ****              &out->track_reference_type[i]);
2061:mutff/src/mutff_default.c ****     i++;
2062:mutff/src/mutff_default.c ****   }
2063:mutff/src/mutff_default.c ****   out->track_reference_type_count = i;
2064:mutff/src/mutff_default.c **** 
2065:mutff/src/mutff_default.c ****   return MuTFFErrorNone;
2066:mutff/src/mutff_default.c **** }
2067:mutff/src/mutff_default.c **** 
2068:mutff/src/mutff_default.c **** static inline MuTFFError mutff_track_reference_atom_size(
2069:mutff/src/mutff_default.c ****     uint64_t *out, const MuTFFTrackReferenceAtom *atom) {
 752              		.loc 1 2069 57 is_stmt 1 view -0
 753              		.cfi_startproc
 754              		@ args = 0, pretend = 0, frame = 0
 755              		@ frame_needed = 0, uses_anonymous_args = 0
 756              		.loc 1 2069 57 is_stmt 0 view .LVU216
 757 0000 F0B5     		push	{r4, r5, r6, r7, lr}
 758              		.cfi_def_cfa_offset 20
 759              		.cfi_offset 4, -20
 760              		.cfi_offset 5, -16
 761              		.cfi_offset 6, -12
 762              		.cfi_offset 7, -8
 763              		.cfi_offset 14, -4
2070:mutff/src/mutff_default.c ****   MuTFFError err;
 764              		.loc 1 2070 3 is_stmt 1 view .LVU217
2071:mutff/src/mutff_default.c ****   uint64_t size = 0;
 765              		.loc 1 2071 3 view .LVU218
 766              	.LVL49:
2072:mutff/src/mutff_default.c ****   for (size_t i = 0; i < atom->track_reference_type_count; ++i) {
 767              		.loc 1 2072 3 view .LVU219
 768              	.LBB507:
 769              		.loc 1 2072 8 view .LVU220
 770              		.loc 1 2072 15 is_stmt 0 view .LVU221
 771 0002 4FF0000C 		mov	ip, #0
 772              	.LBE507:
2071:mutff/src/mutff_default.c ****   uint64_t size = 0;
 773              		.loc 1 2071 12 view .LVU222
 774 0006 E646     		mov	lr, ip
 775 0008 6646     		mov	r6, ip
 776              	.LBB516:
 777              		.loc 1 2072 3 view .LVU223
 778 000a 06E0     		b	.L34
 779              	.LVL50:
 780              	.L35:
 781              	.LBB508:
 782              	.LBB509:
 783              	.LBB510:
2012:mutff/src/mutff_default.c **** }
 784              		.loc 1 2012 3 is_stmt 1 view .LVU224
2012:mutff/src/mutff_default.c **** }
 785              		.loc 1 2012 3 is_stmt 0 view .LVU225
 786              	.LBE510:
 787              	.LBE509:
2073:mutff/src/mutff_default.c ****     uint64_t reference_size;
2074:mutff/src/mutff_default.c ****     err = mutff_track_reference_type_atom_size(&reference_size,
2075:mutff/src/mutff_default.c ****                                                &atom->track_reference_type[i]);
ARM GAS  /var/folders/fz/x0kldt2j7vs_j4slv3pyc44m0000gp/T//ccIigdcK.s 			page 52


2076:mutff/src/mutff_default.c ****     if (err != MuTFFErrorNone) {
 788              		.loc 1 2076 5 is_stmt 1 view .LVU226
2077:mutff/src/mutff_default.c ****       return err;
2078:mutff/src/mutff_default.c ****     }
2079:mutff/src/mutff_default.c ****     size += reference_size;
 789              		.loc 1 2079 5 view .LVU227
 790              		.loc 1 2079 10 is_stmt 0 view .LVU228
 791 000c 1EEB0202 		adds	r2, lr, r2
 792              	.LVL51:
 793              		.loc 1 2079 10 view .LVU229
 794 0010 9646     		mov	lr, r2
 795              	.LVL52:
 796              		.loc 1 2079 10 view .LVU230
 797 0012 46EB0406 		adc	r6, r6, r4
 798              	.LVL53:
 799              		.loc 1 2079 10 view .LVU231
 800              	.LBE508:
2072:mutff/src/mutff_default.c ****     uint64_t reference_size;
 801              		.loc 1 2072 60 is_stmt 1 view .LVU232
 802 0016 0CF1010C 		add	ip, ip, #1
 803              	.LVL54:
 804              	.L34:
2072:mutff/src/mutff_default.c ****     uint64_t reference_size;
 805              		.loc 1 2072 24 discriminator 1 view .LVU233
2072:mutff/src/mutff_default.c ****     uint64_t reference_size;
 806              		.loc 1 2072 30 is_stmt 0 discriminator 1 view .LVU234
 807 001a 0B68     		ldr	r3, [r1]
2072:mutff/src/mutff_default.c ****     uint64_t reference_size;
 808              		.loc 1 2072 24 discriminator 1 view .LVU235
 809 001c 6345     		cmp	r3, ip
 810 001e 15D9     		bls	.L39
 811              	.LBB515:
2073:mutff/src/mutff_default.c ****     uint64_t reference_size;
 812              		.loc 1 2073 5 is_stmt 1 view .LVU236
2074:mutff/src/mutff_default.c ****                                                &atom->track_reference_type[i]);
 813              		.loc 1 2074 5 view .LVU237
 814              	.LVL55:
 815              	.LBB514:
 816              	.LBI509:
2009:mutff/src/mutff_default.c ****     uint64_t *out, const MuTFFTrackReferenceTypeAtom *atom) {
 817              		.loc 1 2009 26 view .LVU238
 818              	.LBB513:
2011:mutff/src/mutff_default.c ****   return MuTFFErrorNone;
 819              		.loc 1 2011 3 view .LVU239
2011:mutff/src/mutff_default.c ****   return MuTFFErrorNone;
 820              		.loc 1 2011 35 is_stmt 0 view .LVU240
 821 0020 0CEB4C03 		add	r3, ip, ip, lsl #1
 822 0024 01EBC303 		add	r3, r1, r3, lsl #3
 823 0028 9B68     		ldr	r3, [r3, #8]
2011:mutff/src/mutff_default.c ****   return MuTFFErrorNone;
 824              		.loc 1 2011 10 view .LVU241
 825 002a 0025     		movs	r5, #0
 826 002c 9B00     		lsls	r3, r3, #2
 827              	.LVL56:
 828              	.LBB511:
 829              	.LBI511:
 389:mutff/src/mutff_default.c ****   return data_size + 8U <= UINT32_MAX ? data_size + 8U : data_size + 16U;
ARM GAS  /var/folders/fz/x0kldt2j7vs_j4slv3pyc44m0000gp/T//ccIigdcK.s 			page 53


 830              		.loc 1 389 24 is_stmt 1 view .LVU242
 831              	.LBB512:
 390:mutff/src/mutff_default.c **** }
 832              		.loc 1 390 3 view .LVU243
 390:mutff/src/mutff_default.c **** }
 833              		.loc 1 390 20 is_stmt 0 view .LVU244
 834 002e 13F10802 		adds	r2, r3, #8
 835 0032 45F10004 		adc	r4, r5, #0
 390:mutff/src/mutff_default.c **** }
 836              		.loc 1 390 56 view .LVU245
 837 0036 4FF0FF37 		mov	r7, #-1
 838 003a 9742     		cmp	r7, r2
 839 003c 75EB0407 		sbcs	r7, r5, r4
 840 0040 E4D2     		bcs	.L35
 841 0042 13F11002 		adds	r2, r3, #16
 842 0046 45F10004 		adc	r4, r5, #0
 843 004a DFE7     		b	.L35
 844              	.LVL57:
 845              	.L39:
 390:mutff/src/mutff_default.c **** }
 846              		.loc 1 390 56 view .LVU246
 847              	.LBE512:
 848              	.LBE511:
 849              	.LBE513:
 850              	.LBE514:
 851              	.LBE515:
 852              	.LBE516:
2080:mutff/src/mutff_default.c ****   }
2081:mutff/src/mutff_default.c ****   *out = mutff_atom_size(size);
 853              		.loc 1 2081 3 is_stmt 1 view .LVU247
 854              	.LBB517:
 855              	.LBI517:
 389:mutff/src/mutff_default.c ****   return data_size + 8U <= UINT32_MAX ? data_size + 8U : data_size + 16U;
 856              		.loc 1 389 24 view .LVU248
 857              	.LBB518:
 390:mutff/src/mutff_default.c **** }
 858              		.loc 1 390 3 view .LVU249
 390:mutff/src/mutff_default.c **** }
 859              		.loc 1 390 20 is_stmt 0 view .LVU250
 860 004c 1EF10802 		adds	r2, lr, #8
 861 0050 46F10003 		adc	r3, r6, #0
 390:mutff/src/mutff_default.c **** }
 862              		.loc 1 390 56 view .LVU251
 863 0054 4FF0FF31 		mov	r1, #-1
 864              	.LVL58:
 390:mutff/src/mutff_default.c **** }
 865              		.loc 1 390 56 view .LVU252
 866 0058 9142     		cmp	r1, r2
 867 005a 4FF00001 		mov	r1, #0
 868 005e 9941     		sbcs	r1, r1, r3
 869 0060 03D2     		bcs	.L37
 870 0062 1EF11002 		adds	r2, lr, #16
 871 0066 46F10003 		adc	r3, r6, #0
 872              	.L37:
 873              	.LVL59:
 390:mutff/src/mutff_default.c **** }
 874              		.loc 1 390 56 view .LVU253
ARM GAS  /var/folders/fz/x0kldt2j7vs_j4slv3pyc44m0000gp/T//ccIigdcK.s 			page 54


 875              	.LBE518:
 876              	.LBE517:
 877              		.loc 1 2081 8 view .LVU254
 878 006a 0260     		str	r2, [r0]
 879 006c 4360     		str	r3, [r0, #4]
2082:mutff/src/mutff_default.c ****   return MuTFFErrorNone;
 880              		.loc 1 2082 3 is_stmt 1 view .LVU255
2083:mutff/src/mutff_default.c **** }
 881              		.loc 1 2083 1 is_stmt 0 view .LVU256
 882 006e 0020     		movs	r0, #0
 883              	.LVL60:
 884              		.loc 1 2083 1 view .LVU257
 885 0070 F0BD     		pop	{r4, r5, r6, r7, pc}
 886              		.loc 1 2083 1 view .LVU258
 887              		.cfi_endproc
 888              	.LFE125:
 890              		.section	.text.mutff_track_input_map_atom_size,"ax",%progbits
 891              		.align	1
 892              		.syntax unified
 893              		.thumb
 894              		.thumb_func
 896              	mutff_track_input_map_atom_size:
 897              	.LVL61:
 898              	.LFB143:
2084:mutff/src/mutff_default.c **** 
2085:mutff/src/mutff_default.c **** MuTFFError mutff_write_track_reference_atom(MuTFFContext *ctx, size_t *n,
2086:mutff/src/mutff_default.c ****                                             const MuTFFTrackReferenceAtom *in) {
2087:mutff/src/mutff_default.c ****   MuTFFError err;
2088:mutff/src/mutff_default.c ****   size_t bytes;
2089:mutff/src/mutff_default.c ****   *n = 0;
2090:mutff/src/mutff_default.c ****   uint64_t size;
2091:mutff/src/mutff_default.c ****   err = mutff_track_reference_atom_size(&size, in);
2092:mutff/src/mutff_default.c ****   if (err != MuTFFErrorNone) {
2093:mutff/src/mutff_default.c ****     return err;
2094:mutff/src/mutff_default.c ****   }
2095:mutff/src/mutff_default.c ****   MuTFF_FN(mutff_write_header, size, MuTFF_FOURCC('t', 'r', 'e', 'f'));
2096:mutff/src/mutff_default.c ****   for (size_t i = 0; i < in->track_reference_type_count; ++i) {
2097:mutff/src/mutff_default.c ****     MuTFF_FN(mutff_write_track_reference_type_atom,
2098:mutff/src/mutff_default.c ****              &in->track_reference_type[i]);
2099:mutff/src/mutff_default.c ****   }
2100:mutff/src/mutff_default.c ****   return MuTFFErrorNone;
2101:mutff/src/mutff_default.c **** }
2102:mutff/src/mutff_default.c **** 
2103:mutff/src/mutff_default.c **** MuTFFError mutff_read_track_exclude_from_autoselection_atom(
2104:mutff/src/mutff_default.c ****     MuTFFContext *ctx, size_t *n, MuTFFTrackExcludeFromAutoselectionAtom *out) {
2105:mutff/src/mutff_default.c ****   MuTFFError err;
2106:mutff/src/mutff_default.c ****   size_t bytes;
2107:mutff/src/mutff_default.c ****   *n = 0;
2108:mutff/src/mutff_default.c ****   uint64_t size;
2109:mutff/src/mutff_default.c ****   uint32_t type;
2110:mutff/src/mutff_default.c ****   MuTFF_FN(mutff_read_header, &size, &type);
2111:mutff/src/mutff_default.c ****   if (type != MuTFF_FOURCC('t', 'x', 'a', 's')) {
2112:mutff/src/mutff_default.c ****     return MuTFFErrorBadFormat;
2113:mutff/src/mutff_default.c ****   }
2114:mutff/src/mutff_default.c ****   return MuTFFErrorNone;
2115:mutff/src/mutff_default.c **** }
2116:mutff/src/mutff_default.c **** 
ARM GAS  /var/folders/fz/x0kldt2j7vs_j4slv3pyc44m0000gp/T//ccIigdcK.s 			page 55


2117:mutff/src/mutff_default.c **** static inline MuTFFError mutff_track_exclude_from_autoselection_atom_size(
2118:mutff/src/mutff_default.c ****     uint64_t *out, const MuTFFTrackExcludeFromAutoselectionAtom *atom) {
2119:mutff/src/mutff_default.c ****   *out = mutff_atom_size(0);
2120:mutff/src/mutff_default.c ****   return MuTFFErrorNone;
2121:mutff/src/mutff_default.c **** }
2122:mutff/src/mutff_default.c **** 
2123:mutff/src/mutff_default.c **** MuTFFError mutff_write_track_exclude_from_autoselection_atom(
2124:mutff/src/mutff_default.c ****     MuTFFContext *ctx, size_t *n,
2125:mutff/src/mutff_default.c ****     const MuTFFTrackExcludeFromAutoselectionAtom *in) {
2126:mutff/src/mutff_default.c ****   MuTFFError err;
2127:mutff/src/mutff_default.c ****   size_t bytes;
2128:mutff/src/mutff_default.c ****   *n = 0;
2129:mutff/src/mutff_default.c ****   uint64_t size;
2130:mutff/src/mutff_default.c ****   err = mutff_track_exclude_from_autoselection_atom_size(&size, in);
2131:mutff/src/mutff_default.c ****   if (err != MuTFFErrorNone) {
2132:mutff/src/mutff_default.c ****     return err;
2133:mutff/src/mutff_default.c ****   }
2134:mutff/src/mutff_default.c ****   MuTFF_FN(mutff_write_header, size, MuTFF_FOURCC('t', 'x', 'a', 's'));
2135:mutff/src/mutff_default.c ****   return MuTFFErrorNone;
2136:mutff/src/mutff_default.c **** }
2137:mutff/src/mutff_default.c **** 
2138:mutff/src/mutff_default.c **** MuTFFError mutff_read_track_load_settings_atom(
2139:mutff/src/mutff_default.c ****     MuTFFContext *ctx, size_t *n, MuTFFTrackLoadSettingsAtom *out) {
2140:mutff/src/mutff_default.c ****   MuTFFError err;
2141:mutff/src/mutff_default.c ****   size_t bytes;
2142:mutff/src/mutff_default.c ****   *n = 0;
2143:mutff/src/mutff_default.c ****   uint64_t size;
2144:mutff/src/mutff_default.c ****   uint32_t type;
2145:mutff/src/mutff_default.c ****   MuTFF_FN(mutff_read_header, &size, &type);
2146:mutff/src/mutff_default.c ****   if (type != MuTFF_FOURCC('l', 'o', 'a', 'd')) {
2147:mutff/src/mutff_default.c ****     return MuTFFErrorBadFormat;
2148:mutff/src/mutff_default.c ****   }
2149:mutff/src/mutff_default.c ****   MuTFF_FN(mutff_read_u32, &out->preload_start_time);
2150:mutff/src/mutff_default.c ****   MuTFF_FN(mutff_read_u32, &out->preload_duration);
2151:mutff/src/mutff_default.c ****   MuTFF_FN(mutff_read_u32, &out->preload_flags);
2152:mutff/src/mutff_default.c ****   MuTFF_FN(mutff_read_u32, &out->default_hints);
2153:mutff/src/mutff_default.c ****   return MuTFFErrorNone;
2154:mutff/src/mutff_default.c **** }
2155:mutff/src/mutff_default.c **** 
2156:mutff/src/mutff_default.c **** static inline MuTFFError mutff_track_load_settings_atom_size(
2157:mutff/src/mutff_default.c ****     uint64_t *out, const MuTFFTrackLoadSettingsAtom *atom) {
2158:mutff/src/mutff_default.c ****   *out = mutff_atom_size(16);
2159:mutff/src/mutff_default.c ****   return MuTFFErrorNone;
2160:mutff/src/mutff_default.c **** }
2161:mutff/src/mutff_default.c **** 
2162:mutff/src/mutff_default.c **** MuTFFError mutff_write_track_load_settings_atom(
2163:mutff/src/mutff_default.c ****     MuTFFContext *ctx, size_t *n, const MuTFFTrackLoadSettingsAtom *in) {
2164:mutff/src/mutff_default.c ****   MuTFFError err;
2165:mutff/src/mutff_default.c ****   size_t bytes;
2166:mutff/src/mutff_default.c ****   *n = 0;
2167:mutff/src/mutff_default.c ****   uint64_t size;
2168:mutff/src/mutff_default.c ****   err = mutff_track_load_settings_atom_size(&size, in);
2169:mutff/src/mutff_default.c ****   if (err != MuTFFErrorNone) {
2170:mutff/src/mutff_default.c ****     return err;
2171:mutff/src/mutff_default.c ****   }
2172:mutff/src/mutff_default.c ****   MuTFF_FN(mutff_write_header, size, MuTFF_FOURCC('l', 'o', 'a', 'd'));
2173:mutff/src/mutff_default.c ****   MuTFF_FN(mutff_write_u32, in->preload_start_time);
ARM GAS  /var/folders/fz/x0kldt2j7vs_j4slv3pyc44m0000gp/T//ccIigdcK.s 			page 56


2174:mutff/src/mutff_default.c ****   MuTFF_FN(mutff_write_u32, in->preload_duration);
2175:mutff/src/mutff_default.c ****   MuTFF_FN(mutff_write_u32, in->preload_flags);
2176:mutff/src/mutff_default.c ****   MuTFF_FN(mutff_write_u32, in->default_hints);
2177:mutff/src/mutff_default.c ****   return MuTFFErrorNone;
2178:mutff/src/mutff_default.c **** }
2179:mutff/src/mutff_default.c **** 
2180:mutff/src/mutff_default.c **** MuTFFError mutff_read_input_type_atom(MuTFFContext *ctx, size_t *n,
2181:mutff/src/mutff_default.c ****                                       MuTFFInputTypeAtom *out) {
2182:mutff/src/mutff_default.c ****   MuTFFError err;
2183:mutff/src/mutff_default.c ****   size_t bytes;
2184:mutff/src/mutff_default.c ****   *n = 0;
2185:mutff/src/mutff_default.c ****   uint64_t size;
2186:mutff/src/mutff_default.c ****   uint32_t type;
2187:mutff/src/mutff_default.c ****   MuTFF_FN(mutff_read_header, &size, &type);
2188:mutff/src/mutff_default.c ****   if (type != MuTFF_FOURCC('\0', '\0', 't', 'y')) {
2189:mutff/src/mutff_default.c ****     return MuTFFErrorBadFormat;
2190:mutff/src/mutff_default.c ****   }
2191:mutff/src/mutff_default.c ****   MuTFF_FN(mutff_read_u32, &out->input_type);
2192:mutff/src/mutff_default.c ****   return MuTFFErrorNone;
2193:mutff/src/mutff_default.c **** }
2194:mutff/src/mutff_default.c **** 
2195:mutff/src/mutff_default.c **** static inline MuTFFError mutff_input_type_atom_size(
2196:mutff/src/mutff_default.c ****     uint64_t *out, const MuTFFInputTypeAtom *atom) {
2197:mutff/src/mutff_default.c ****   *out = mutff_atom_size(4);
2198:mutff/src/mutff_default.c ****   return MuTFFErrorNone;
2199:mutff/src/mutff_default.c **** }
2200:mutff/src/mutff_default.c **** 
2201:mutff/src/mutff_default.c **** MuTFFError mutff_write_input_type_atom(MuTFFContext *ctx, size_t *n,
2202:mutff/src/mutff_default.c ****                                        const MuTFFInputTypeAtom *in) {
2203:mutff/src/mutff_default.c ****   MuTFFError err;
2204:mutff/src/mutff_default.c ****   size_t bytes;
2205:mutff/src/mutff_default.c ****   *n = 0;
2206:mutff/src/mutff_default.c ****   uint64_t size;
2207:mutff/src/mutff_default.c ****   err = mutff_input_type_atom_size(&size, in);
2208:mutff/src/mutff_default.c ****   if (err != MuTFFErrorNone) {
2209:mutff/src/mutff_default.c ****     return err;
2210:mutff/src/mutff_default.c ****   }
2211:mutff/src/mutff_default.c ****   MuTFF_FN(mutff_write_header, size, MuTFF_FOURCC('\0', '\0', 't', 'y'));
2212:mutff/src/mutff_default.c ****   MuTFF_FN(mutff_write_u32, in->input_type);
2213:mutff/src/mutff_default.c ****   return MuTFFErrorNone;
2214:mutff/src/mutff_default.c **** }
2215:mutff/src/mutff_default.c **** 
2216:mutff/src/mutff_default.c **** MuTFFError mutff_read_object_id_atom(MuTFFContext *ctx, size_t *n,
2217:mutff/src/mutff_default.c ****                                      MuTFFObjectIDAtom *out) {
2218:mutff/src/mutff_default.c ****   MuTFFError err;
2219:mutff/src/mutff_default.c ****   size_t bytes;
2220:mutff/src/mutff_default.c ****   *n = 0;
2221:mutff/src/mutff_default.c ****   uint64_t size;
2222:mutff/src/mutff_default.c ****   uint32_t type;
2223:mutff/src/mutff_default.c ****   MuTFF_FN(mutff_read_header, &size, &type);
2224:mutff/src/mutff_default.c ****   if (type != MuTFF_FOURCC('o', 'b', 'i', 'd')) {
2225:mutff/src/mutff_default.c ****     return MuTFFErrorBadFormat;
2226:mutff/src/mutff_default.c ****   }
2227:mutff/src/mutff_default.c ****   MuTFF_FN(mutff_read_u32, &out->object_id);
2228:mutff/src/mutff_default.c ****   return MuTFFErrorNone;
2229:mutff/src/mutff_default.c **** }
2230:mutff/src/mutff_default.c **** 
ARM GAS  /var/folders/fz/x0kldt2j7vs_j4slv3pyc44m0000gp/T//ccIigdcK.s 			page 57


2231:mutff/src/mutff_default.c **** static inline MuTFFError mutff_object_id_atom_size(
2232:mutff/src/mutff_default.c ****     uint64_t *out, const MuTFFObjectIDAtom *atom) {
2233:mutff/src/mutff_default.c ****   *out = mutff_atom_size(4);
2234:mutff/src/mutff_default.c ****   return MuTFFErrorNone;
2235:mutff/src/mutff_default.c **** }
2236:mutff/src/mutff_default.c **** 
2237:mutff/src/mutff_default.c **** MuTFFError mutff_write_object_id_atom(MuTFFContext *ctx, size_t *n,
2238:mutff/src/mutff_default.c ****                                       const MuTFFObjectIDAtom *in) {
2239:mutff/src/mutff_default.c ****   MuTFFError err;
2240:mutff/src/mutff_default.c ****   size_t bytes;
2241:mutff/src/mutff_default.c ****   *n = 0;
2242:mutff/src/mutff_default.c ****   uint64_t size;
2243:mutff/src/mutff_default.c ****   err = mutff_object_id_atom_size(&size, in);
2244:mutff/src/mutff_default.c ****   if (err != MuTFFErrorNone) {
2245:mutff/src/mutff_default.c ****     return err;
2246:mutff/src/mutff_default.c ****   }
2247:mutff/src/mutff_default.c ****   MuTFF_FN(mutff_write_header, size, MuTFF_FOURCC('o', 'b', 'i', 'd'));
2248:mutff/src/mutff_default.c ****   MuTFF_FN(mutff_write_u32, in->object_id);
2249:mutff/src/mutff_default.c ****   return MuTFFErrorNone;
2250:mutff/src/mutff_default.c **** }
2251:mutff/src/mutff_default.c **** 
2252:mutff/src/mutff_default.c **** MuTFFError mutff_read_track_input_atom(MuTFFContext *ctx, size_t *n,
2253:mutff/src/mutff_default.c ****                                        MuTFFTrackInputAtom *out) {
2254:mutff/src/mutff_default.c ****   MuTFFError err;
2255:mutff/src/mutff_default.c ****   size_t bytes;
2256:mutff/src/mutff_default.c ****   *n = 0;
2257:mutff/src/mutff_default.c ****   uint64_t size;
2258:mutff/src/mutff_default.c ****   uint32_t type;
2259:mutff/src/mutff_default.c ****   bool input_type_present = false;
2260:mutff/src/mutff_default.c **** 
2261:mutff/src/mutff_default.c ****   out->object_id_atom_present = false;
2262:mutff/src/mutff_default.c **** 
2263:mutff/src/mutff_default.c ****   MuTFF_FN(mutff_read_header, &size, &type);
2264:mutff/src/mutff_default.c ****   if (type != MuTFF_FOURCC('\0', '\0', 'i', 'n')) {
2265:mutff/src/mutff_default.c ****     return MuTFFErrorBadFormat;
2266:mutff/src/mutff_default.c ****   }
2267:mutff/src/mutff_default.c ****   MuTFF_FN(mutff_read_u32, &out->atom_id);
2268:mutff/src/mutff_default.c ****   MuTFF_SEEK_CUR(2U);
2269:mutff/src/mutff_default.c ****   MuTFF_FN(mutff_read_u16, &out->child_count);
2270:mutff/src/mutff_default.c ****   MuTFF_SEEK_CUR(4U);
2271:mutff/src/mutff_default.c **** 
2272:mutff/src/mutff_default.c ****   // read children
2273:mutff/src/mutff_default.c ****   uint64_t child_size;
2274:mutff/src/mutff_default.c ****   uint32_t child_type;
2275:mutff/src/mutff_default.c ****   while (*n < size) {
2276:mutff/src/mutff_default.c ****     MuTFF_FN(mutff_peek_atom_header, &child_size, &child_type);
2277:mutff/src/mutff_default.c ****     if (size == 0U) {
2278:mutff/src/mutff_default.c ****       return MuTFFErrorBadFormat;
2279:mutff/src/mutff_default.c ****     }
2280:mutff/src/mutff_default.c ****     if (*n + child_size > size) {
2281:mutff/src/mutff_default.c ****       return MuTFFErrorBadFormat;
2282:mutff/src/mutff_default.c ****     }
2283:mutff/src/mutff_default.c ****     switch (child_type) {
2284:mutff/src/mutff_default.c ****       case MuTFF_FOURCC('\0', '\0', 't', 'y'):
2285:mutff/src/mutff_default.c ****         MuTFF_READ_CHILD(mutff_read_input_type_atom, &out->input_type_atom,
2286:mutff/src/mutff_default.c ****                          input_type_present);
2287:mutff/src/mutff_default.c ****         break;
ARM GAS  /var/folders/fz/x0kldt2j7vs_j4slv3pyc44m0000gp/T//ccIigdcK.s 			page 58


2288:mutff/src/mutff_default.c ****       case MuTFF_FOURCC('o', 'b', 'i', 'd'):
2289:mutff/src/mutff_default.c ****         MuTFF_READ_CHILD(mutff_read_object_id_atom, &out->object_id_atom,
2290:mutff/src/mutff_default.c ****                          out->object_id_atom_present);
2291:mutff/src/mutff_default.c ****         break;
2292:mutff/src/mutff_default.c ****       default:
2293:mutff/src/mutff_default.c ****         MuTFF_SEEK_CUR(child_size);
2294:mutff/src/mutff_default.c ****         break;
2295:mutff/src/mutff_default.c ****     }
2296:mutff/src/mutff_default.c ****   }
2297:mutff/src/mutff_default.c **** 
2298:mutff/src/mutff_default.c ****   if (!input_type_present) {
2299:mutff/src/mutff_default.c ****     return MuTFFErrorBadFormat;
2300:mutff/src/mutff_default.c ****   }
2301:mutff/src/mutff_default.c **** 
2302:mutff/src/mutff_default.c ****   return MuTFFErrorNone;
2303:mutff/src/mutff_default.c **** }
2304:mutff/src/mutff_default.c **** 
2305:mutff/src/mutff_default.c **** static inline MuTFFError mutff_track_input_atom_size(
2306:mutff/src/mutff_default.c ****     uint64_t *out, const MuTFFTrackInputAtom *atom) {
2307:mutff/src/mutff_default.c ****   MuTFFError err;
2308:mutff/src/mutff_default.c ****   uint64_t child_size;
2309:mutff/src/mutff_default.c **** 
2310:mutff/src/mutff_default.c ****   uint64_t size = 12;
2311:mutff/src/mutff_default.c ****   err = mutff_input_type_atom_size(&child_size, &atom->input_type_atom);
2312:mutff/src/mutff_default.c ****   if (err != MuTFFErrorNone) {
2313:mutff/src/mutff_default.c ****     return err;
2314:mutff/src/mutff_default.c ****   }
2315:mutff/src/mutff_default.c ****   size += child_size;
2316:mutff/src/mutff_default.c ****   if (atom->object_id_atom_present) {
2317:mutff/src/mutff_default.c ****     err = mutff_object_id_atom_size(&child_size, &atom->object_id_atom);
2318:mutff/src/mutff_default.c ****     if (err != MuTFFErrorNone) {
2319:mutff/src/mutff_default.c ****       return err;
2320:mutff/src/mutff_default.c ****     }
2321:mutff/src/mutff_default.c ****     size += child_size;
2322:mutff/src/mutff_default.c ****   }
2323:mutff/src/mutff_default.c **** 
2324:mutff/src/mutff_default.c ****   *out = mutff_atom_size(size);
2325:mutff/src/mutff_default.c ****   return MuTFFErrorNone;
2326:mutff/src/mutff_default.c **** }
2327:mutff/src/mutff_default.c **** 
2328:mutff/src/mutff_default.c **** MuTFFError mutff_write_track_input_atom(MuTFFContext *ctx, size_t *n,
2329:mutff/src/mutff_default.c ****                                         const MuTFFTrackInputAtom *in) {
2330:mutff/src/mutff_default.c ****   MuTFFError err;
2331:mutff/src/mutff_default.c ****   size_t bytes;
2332:mutff/src/mutff_default.c ****   *n = 0;
2333:mutff/src/mutff_default.c ****   uint64_t size;
2334:mutff/src/mutff_default.c ****   err = mutff_track_input_atom_size(&size, in);
2335:mutff/src/mutff_default.c ****   if (err != MuTFFErrorNone) {
2336:mutff/src/mutff_default.c ****     return err;
2337:mutff/src/mutff_default.c ****   }
2338:mutff/src/mutff_default.c ****   MuTFF_FN(mutff_write_header, size, MuTFF_FOURCC('\0', '\0', 'i', 'n'));
2339:mutff/src/mutff_default.c ****   MuTFF_FN(mutff_write_u32, in->atom_id);
2340:mutff/src/mutff_default.c ****   for (size_t i = 0; i < 2U; ++i) {
2341:mutff/src/mutff_default.c ****     MuTFF_FN(mutff_write_u8, 0);
2342:mutff/src/mutff_default.c ****   }
2343:mutff/src/mutff_default.c ****   MuTFF_FN(mutff_write_u16, in->child_count);
2344:mutff/src/mutff_default.c ****   for (size_t i = 0; i < 4U; ++i) {
ARM GAS  /var/folders/fz/x0kldt2j7vs_j4slv3pyc44m0000gp/T//ccIigdcK.s 			page 59


2345:mutff/src/mutff_default.c ****     MuTFF_FN(mutff_write_u8, 0);
2346:mutff/src/mutff_default.c ****   }
2347:mutff/src/mutff_default.c ****   MuTFF_FN(mutff_write_input_type_atom, &in->input_type_atom);
2348:mutff/src/mutff_default.c ****   MuTFF_FN(mutff_write_object_id_atom, &in->object_id_atom);
2349:mutff/src/mutff_default.c ****   return MuTFFErrorNone;
2350:mutff/src/mutff_default.c **** }
2351:mutff/src/mutff_default.c **** 
2352:mutff/src/mutff_default.c **** MuTFFError mutff_read_track_input_map_atom(MuTFFContext *ctx, size_t *n,
2353:mutff/src/mutff_default.c ****                                            MuTFFTrackInputMapAtom *out) {
2354:mutff/src/mutff_default.c ****   MuTFFError err;
2355:mutff/src/mutff_default.c ****   size_t bytes;
2356:mutff/src/mutff_default.c ****   *n = 0;
2357:mutff/src/mutff_default.c ****   uint64_t size;
2358:mutff/src/mutff_default.c ****   uint32_t type;
2359:mutff/src/mutff_default.c ****   MuTFF_FN(mutff_read_header, &size, &type);
2360:mutff/src/mutff_default.c ****   if (type != MuTFF_FOURCC('i', 'm', 'a', 'p')) {
2361:mutff/src/mutff_default.c ****     return MuTFFErrorBadFormat;
2362:mutff/src/mutff_default.c ****   }
2363:mutff/src/mutff_default.c **** 
2364:mutff/src/mutff_default.c ****   // read children
2365:mutff/src/mutff_default.c ****   size_t i = 0;
2366:mutff/src/mutff_default.c ****   uint64_t child_size;
2367:mutff/src/mutff_default.c ****   uint32_t child_type;
2368:mutff/src/mutff_default.c ****   while (*n < size) {
2369:mutff/src/mutff_default.c ****     if (i >= MuTFF_MAX_TRACK_REFERENCE_TYPE_ATOMS) {
2370:mutff/src/mutff_default.c ****       return MuTFFErrorOutOfMemory;
2371:mutff/src/mutff_default.c ****     }
2372:mutff/src/mutff_default.c ****     MuTFF_FN(mutff_peek_atom_header, &child_size, &child_type);
2373:mutff/src/mutff_default.c ****     if (size == 0U) {
2374:mutff/src/mutff_default.c ****       return MuTFFErrorBadFormat;
2375:mutff/src/mutff_default.c ****     }
2376:mutff/src/mutff_default.c ****     if (*n + child_size > size) {
2377:mutff/src/mutff_default.c ****       return MuTFFErrorBadFormat;
2378:mutff/src/mutff_default.c ****     }
2379:mutff/src/mutff_default.c ****     if (child_type == MuTFF_FOURCC('\0', '\0', 'i', 'n')) {
2380:mutff/src/mutff_default.c ****       MuTFF_FN(mutff_read_track_input_atom, &out->track_input_atoms[i]);
2381:mutff/src/mutff_default.c ****       i++;
2382:mutff/src/mutff_default.c ****     } else {
2383:mutff/src/mutff_default.c ****       MuTFF_SEEK_CUR(child_size);
2384:mutff/src/mutff_default.c ****     }
2385:mutff/src/mutff_default.c ****   }
2386:mutff/src/mutff_default.c ****   out->track_input_atom_count = i;
2387:mutff/src/mutff_default.c **** 
2388:mutff/src/mutff_default.c ****   return MuTFFErrorNone;
2389:mutff/src/mutff_default.c **** }
2390:mutff/src/mutff_default.c **** 
2391:mutff/src/mutff_default.c **** static inline MuTFFError mutff_track_input_map_atom_size(
2392:mutff/src/mutff_default.c ****     uint64_t *out, const MuTFFTrackInputMapAtom *atom) {
 899              		.loc 1 2392 56 is_stmt 1 view -0
 900              		.cfi_startproc
 901              		@ args = 0, pretend = 0, frame = 0
 902              		@ frame_needed = 0, uses_anonymous_args = 0
 903              		.loc 1 2392 56 is_stmt 0 view .LVU260
 904 0000 F0B5     		push	{r4, r5, r6, r7, lr}
 905              		.cfi_def_cfa_offset 20
 906              		.cfi_offset 4, -20
 907              		.cfi_offset 5, -16
ARM GAS  /var/folders/fz/x0kldt2j7vs_j4slv3pyc44m0000gp/T//ccIigdcK.s 			page 60


 908              		.cfi_offset 6, -12
 909              		.cfi_offset 7, -8
 910              		.cfi_offset 14, -4
2393:mutff/src/mutff_default.c ****   MuTFFError err;
 911              		.loc 1 2393 3 is_stmt 1 view .LVU261
2394:mutff/src/mutff_default.c ****   uint64_t size = 0;
 912              		.loc 1 2394 3 view .LVU262
 913              	.LVL62:
2395:mutff/src/mutff_default.c ****   for (size_t i = 0; i < atom->track_input_atom_count; ++i) {
 914              		.loc 1 2395 3 view .LVU263
 915              	.LBB519:
 916              		.loc 1 2395 8 view .LVU264
 917              		.loc 1 2395 15 is_stmt 0 view .LVU265
 918 0002 0023     		movs	r3, #0
 919              	.LBE519:
2394:mutff/src/mutff_default.c ****   uint64_t size = 0;
 920              		.loc 1 2394 12 view .LVU266
 921 0004 1A46     		mov	r2, r3
 922 0006 1C46     		mov	r4, r3
 923              	.LBB528:
 924              		.loc 1 2395 3 view .LVU267
 925 0008 08E0     		b	.L41
 926              	.LVL63:
 927              	.L46:
 928              	.LBB520:
 929              	.LBB521:
 930              	.LBB522:
2321:mutff/src/mutff_default.c ****   }
 931              		.loc 1 2321 10 view .LVU268
 932 000a 2427     		movs	r7, #36
 933 000c 0026     		movs	r6, #0
 934 000e 12E0     		b	.L42
 935              	.LVL64:
 936              	.L43:
2325:mutff/src/mutff_default.c **** }
 937              		.loc 1 2325 3 is_stmt 1 view .LVU269
2325:mutff/src/mutff_default.c **** }
 938              		.loc 1 2325 3 is_stmt 0 view .LVU270
 939              	.LBE522:
 940              	.LBE521:
2396:mutff/src/mutff_default.c ****     uint64_t child_size;
2397:mutff/src/mutff_default.c ****     err = mutff_track_input_atom_size(&child_size, &atom->track_input_atoms[i]);
2398:mutff/src/mutff_default.c ****     if (err != MuTFFErrorNone) {
 941              		.loc 1 2398 5 is_stmt 1 view .LVU271
2399:mutff/src/mutff_default.c ****       return err;
2400:mutff/src/mutff_default.c ****     }
2401:mutff/src/mutff_default.c ****     size += child_size;
 942              		.loc 1 2401 5 view .LVU272
 943              		.loc 1 2401 10 is_stmt 0 view .LVU273
 944 0010 12EB0C0C 		adds	ip, r2, ip
 945              	.LVL65:
 946              		.loc 1 2401 10 view .LVU274
 947 0014 6246     		mov	r2, ip
 948              	.LVL66:
 949              		.loc 1 2401 10 view .LVU275
 950 0016 44EB0E04 		adc	r4, r4, lr
 951              	.LVL67:
ARM GAS  /var/folders/fz/x0kldt2j7vs_j4slv3pyc44m0000gp/T//ccIigdcK.s 			page 61


 952              		.loc 1 2401 10 view .LVU276
 953              	.LBE520:
2395:mutff/src/mutff_default.c ****     uint64_t child_size;
 954              		.loc 1 2395 56 is_stmt 1 view .LVU277
 955 001a 0133     		adds	r3, r3, #1
 956              	.LVL68:
 957              	.L41:
2395:mutff/src/mutff_default.c ****     uint64_t child_size;
 958              		.loc 1 2395 24 discriminator 1 view .LVU278
 959 001c 0D68     		ldr	r5, [r1]
 960 001e 9D42     		cmp	r5, r3
 961 0020 16D9     		bls	.L48
 962              	.LBB527:
2396:mutff/src/mutff_default.c ****     uint64_t child_size;
 963              		.loc 1 2396 5 view .LVU279
2397:mutff/src/mutff_default.c ****     if (err != MuTFFErrorNone) {
 964              		.loc 1 2397 5 view .LVU280
 965              	.LVL69:
 966              	.LBB526:
 967              	.LBI521:
2305:mutff/src/mutff_default.c ****     uint64_t *out, const MuTFFTrackInputAtom *atom) {
 968              		.loc 1 2305 26 view .LVU281
 969              	.LBB525:
2307:mutff/src/mutff_default.c ****   uint64_t child_size;
 970              		.loc 1 2307 3 view .LVU282
2308:mutff/src/mutff_default.c **** 
 971              		.loc 1 2308 3 view .LVU283
2310:mutff/src/mutff_default.c ****   err = mutff_input_type_atom_size(&child_size, &atom->input_type_atom);
 972              		.loc 1 2310 3 view .LVU284
2311:mutff/src/mutff_default.c ****   if (err != MuTFFErrorNone) {
 973              		.loc 1 2311 3 view .LVU285
2312:mutff/src/mutff_default.c ****     return err;
 974              		.loc 1 2312 3 view .LVU286
2315:mutff/src/mutff_default.c ****   if (atom->object_id_atom_present) {
 975              		.loc 1 2315 3 view .LVU287
2316:mutff/src/mutff_default.c ****     err = mutff_object_id_atom_size(&child_size, &atom->object_id_atom);
 976              		.loc 1 2316 3 view .LVU288
2316:mutff/src/mutff_default.c ****     err = mutff_object_id_atom_size(&child_size, &atom->object_id_atom);
 977              		.loc 1 2316 11 is_stmt 0 view .LVU289
 978 0022 03EB830C 		add	ip, r3, r3, lsl #2
 979 0026 01EB8C0C 		add	ip, r1, ip, lsl #2
 980 002a 9CF81050 		ldrb	r5, [ip, #16]	@ zero_extendqisi2
2316:mutff/src/mutff_default.c ****     err = mutff_object_id_atom_size(&child_size, &atom->object_id_atom);
 981              		.loc 1 2316 6 view .LVU290
 982 002e 002D     		cmp	r5, #0
 983 0030 EBD1     		bne	.L46
2315:mutff/src/mutff_default.c ****   if (atom->object_id_atom_present) {
 984              		.loc 1 2315 8 view .LVU291
 985 0032 1827     		movs	r7, #24
 986 0034 0026     		movs	r6, #0
 987              	.L42:
 988              	.LVL70:
2324:mutff/src/mutff_default.c ****   return MuTFFErrorNone;
 989              		.loc 1 2324 3 is_stmt 1 view .LVU292
 990              	.LBB523:
 991              	.LBI523:
 389:mutff/src/mutff_default.c ****   return data_size + 8U <= UINT32_MAX ? data_size + 8U : data_size + 16U;
ARM GAS  /var/folders/fz/x0kldt2j7vs_j4slv3pyc44m0000gp/T//ccIigdcK.s 			page 62


 992              		.loc 1 389 24 view .LVU293
 993              	.LBB524:
 390:mutff/src/mutff_default.c **** }
 994              		.loc 1 390 3 view .LVU294
 390:mutff/src/mutff_default.c **** }
 995              		.loc 1 390 20 is_stmt 0 view .LVU295
 996 0036 07F1080C 		add	ip, r7, #8
 997 003a B646     		mov	lr, r6
 390:mutff/src/mutff_default.c **** }
 998              		.loc 1 390 56 view .LVU296
 999 003c 4FF0FF35 		mov	r5, #-1
 1000 0040 6545     		cmp	r5, ip
 1001 0042 4FF00005 		mov	r5, #0
 1002 0046 B541     		sbcs	r5, r5, r6
 1003 0048 E2D2     		bcs	.L43
 390:mutff/src/mutff_default.c **** }
 1004              		.loc 1 390 56 view .LVU297
 1005 004a 07F1100C 		add	ip, r7, #16
 1006 004e DFE7     		b	.L43
 1007              	.LVL71:
 1008              	.L48:
 390:mutff/src/mutff_default.c **** }
 1009              		.loc 1 390 56 view .LVU298
 1010              	.LBE524:
 1011              	.LBE523:
 1012              	.LBE525:
 1013              	.LBE526:
 1014              	.LBE527:
 1015              	.LBE528:
2402:mutff/src/mutff_default.c ****   }
2403:mutff/src/mutff_default.c ****   *out = mutff_atom_size(size);
 1016              		.loc 1 2403 3 is_stmt 1 view .LVU299
 1017              	.LBB529:
 1018              	.LBI529:
 389:mutff/src/mutff_default.c ****   return data_size + 8U <= UINT32_MAX ? data_size + 8U : data_size + 16U;
 1019              		.loc 1 389 24 view .LVU300
 1020              	.LBB530:
 390:mutff/src/mutff_default.c **** }
 1021              		.loc 1 390 3 view .LVU301
 390:mutff/src/mutff_default.c **** }
 1022              		.loc 1 390 20 is_stmt 0 view .LVU302
 1023 0050 12F10801 		adds	r1, r2, #8
 1024              	.LVL72:
 390:mutff/src/mutff_default.c **** }
 1025              		.loc 1 390 20 view .LVU303
 1026 0054 44F10003 		adc	r3, r4, #0
 1027              	.LVL73:
 390:mutff/src/mutff_default.c **** }
 1028              		.loc 1 390 56 view .LVU304
 1029 0058 4FF0FF35 		mov	r5, #-1
 1030 005c 8D42     		cmp	r5, r1
 1031 005e 4FF00005 		mov	r5, #0
 1032 0062 9D41     		sbcs	r5, r5, r3
 1033 0064 03D2     		bcs	.L45
 1034 0066 12F11001 		adds	r1, r2, #16
 1035 006a 44F10003 		adc	r3, r4, #0
 1036              	.L45:
ARM GAS  /var/folders/fz/x0kldt2j7vs_j4slv3pyc44m0000gp/T//ccIigdcK.s 			page 63


 1037              	.LVL74:
 390:mutff/src/mutff_default.c **** }
 1038              		.loc 1 390 56 view .LVU305
 1039              	.LBE530:
 1040              	.LBE529:
 1041              		.loc 1 2403 8 view .LVU306
 1042 006e 0160     		str	r1, [r0]
 1043 0070 4360     		str	r3, [r0, #4]
2404:mutff/src/mutff_default.c ****   return 0;
 1044              		.loc 1 2404 3 is_stmt 1 view .LVU307
2405:mutff/src/mutff_default.c **** }
 1045              		.loc 1 2405 1 is_stmt 0 view .LVU308
 1046 0072 0020     		movs	r0, #0
 1047              	.LVL75:
 1048              		.loc 1 2405 1 view .LVU309
 1049 0074 F0BD     		pop	{r4, r5, r6, r7, pc}
 1050              		.loc 1 2405 1 view .LVU310
 1051              		.cfi_endproc
 1052              	.LFE143:
 1054              		.section	.text.mutff_data_reference_atom_size,"ax",%progbits
 1055              		.align	1
 1056              		.syntax unified
 1057              		.thumb
 1058              		.thumb_func
 1060              	mutff_data_reference_atom_size:
 1061              	.LVL76:
 1062              	.LFB161:
2406:mutff/src/mutff_default.c **** 
2407:mutff/src/mutff_default.c **** MuTFFError mutff_write_track_input_map_atom(MuTFFContext *ctx, size_t *n,
2408:mutff/src/mutff_default.c ****                                             const MuTFFTrackInputMapAtom *in) {
2409:mutff/src/mutff_default.c ****   MuTFFError err;
2410:mutff/src/mutff_default.c ****   size_t bytes;
2411:mutff/src/mutff_default.c ****   *n = 0;
2412:mutff/src/mutff_default.c ****   uint64_t size;
2413:mutff/src/mutff_default.c ****   err = mutff_track_input_map_atom_size(&size, in);
2414:mutff/src/mutff_default.c ****   if (err != MuTFFErrorNone) {
2415:mutff/src/mutff_default.c ****     return err;
2416:mutff/src/mutff_default.c ****   }
2417:mutff/src/mutff_default.c ****   MuTFF_FN(mutff_write_header, size, MuTFF_FOURCC('i', 'm', 'a', 'p'));
2418:mutff/src/mutff_default.c ****   for (size_t i = 0; i < in->track_input_atom_count; ++i) {
2419:mutff/src/mutff_default.c ****     MuTFF_FN(mutff_write_track_input_atom, &in->track_input_atoms[i]);
2420:mutff/src/mutff_default.c ****   }
2421:mutff/src/mutff_default.c ****   return MuTFFErrorNone;
2422:mutff/src/mutff_default.c **** }
2423:mutff/src/mutff_default.c **** 
2424:mutff/src/mutff_default.c **** MuTFFError mutff_read_media_header_atom(MuTFFContext *ctx, size_t *n,
2425:mutff/src/mutff_default.c ****                                         MuTFFMediaHeaderAtom *out) {
2426:mutff/src/mutff_default.c ****   MuTFFError err;
2427:mutff/src/mutff_default.c ****   size_t bytes;
2428:mutff/src/mutff_default.c ****   *n = 0;
2429:mutff/src/mutff_default.c ****   uint64_t size;
2430:mutff/src/mutff_default.c ****   uint32_t type;
2431:mutff/src/mutff_default.c ****   MuTFF_FN(mutff_read_header, &size, &type);
2432:mutff/src/mutff_default.c ****   if (type != MuTFF_FOURCC('m', 'd', 'h', 'd')) {
2433:mutff/src/mutff_default.c ****     return MuTFFErrorBadFormat;
2434:mutff/src/mutff_default.c ****   }
2435:mutff/src/mutff_default.c ****   MuTFF_FN(mutff_read_u8, &out->version);
ARM GAS  /var/folders/fz/x0kldt2j7vs_j4slv3pyc44m0000gp/T//ccIigdcK.s 			page 64


2436:mutff/src/mutff_default.c ****   MuTFF_FN(mutff_read_u24, &out->flags);
2437:mutff/src/mutff_default.c ****   MuTFF_FN(mutff_read_u32, &out->creation_time);
2438:mutff/src/mutff_default.c ****   MuTFF_FN(mutff_read_u32, &out->modification_time);
2439:mutff/src/mutff_default.c ****   MuTFF_FN(mutff_read_u32, &out->time_scale);
2440:mutff/src/mutff_default.c ****   MuTFF_FN(mutff_read_u32, &out->duration);
2441:mutff/src/mutff_default.c ****   MuTFF_FN(mutff_read_u16, &out->language);
2442:mutff/src/mutff_default.c ****   MuTFF_FN(mutff_read_u16, &out->quality);
2443:mutff/src/mutff_default.c ****   return MuTFFErrorNone;
2444:mutff/src/mutff_default.c **** }
2445:mutff/src/mutff_default.c **** 
2446:mutff/src/mutff_default.c **** static inline MuTFFError mutff_media_header_atom_size(
2447:mutff/src/mutff_default.c ****     uint64_t *out, const MuTFFMediaHeaderAtom *atom) {
2448:mutff/src/mutff_default.c ****   *out = mutff_atom_size(24);
2449:mutff/src/mutff_default.c ****   return MuTFFErrorNone;
2450:mutff/src/mutff_default.c **** }
2451:mutff/src/mutff_default.c **** 
2452:mutff/src/mutff_default.c **** MuTFFError mutff_write_media_header_atom(MuTFFContext *ctx, size_t *n,
2453:mutff/src/mutff_default.c ****                                          const MuTFFMediaHeaderAtom *in) {
2454:mutff/src/mutff_default.c ****   MuTFFError err;
2455:mutff/src/mutff_default.c ****   size_t bytes;
2456:mutff/src/mutff_default.c ****   *n = 0;
2457:mutff/src/mutff_default.c ****   uint64_t size;
2458:mutff/src/mutff_default.c ****   err = mutff_media_header_atom_size(&size, in);
2459:mutff/src/mutff_default.c ****   if (err != MuTFFErrorNone) {
2460:mutff/src/mutff_default.c ****     return err;
2461:mutff/src/mutff_default.c ****   }
2462:mutff/src/mutff_default.c ****   MuTFF_FN(mutff_write_header, size, MuTFF_FOURCC('m', 'd', 'h', 'd'));
2463:mutff/src/mutff_default.c ****   MuTFF_FN(mutff_write_u8, in->version);
2464:mutff/src/mutff_default.c ****   MuTFF_FN(mutff_write_u24, in->flags);
2465:mutff/src/mutff_default.c ****   MuTFF_FN(mutff_write_u32, in->creation_time);
2466:mutff/src/mutff_default.c ****   MuTFF_FN(mutff_write_u32, in->modification_time);
2467:mutff/src/mutff_default.c ****   MuTFF_FN(mutff_write_u32, in->time_scale);
2468:mutff/src/mutff_default.c ****   MuTFF_FN(mutff_write_u32, in->duration);
2469:mutff/src/mutff_default.c ****   MuTFF_FN(mutff_write_u16, in->language);
2470:mutff/src/mutff_default.c ****   MuTFF_FN(mutff_write_u16, in->quality);
2471:mutff/src/mutff_default.c ****   return MuTFFErrorNone;
2472:mutff/src/mutff_default.c **** }
2473:mutff/src/mutff_default.c **** 
2474:mutff/src/mutff_default.c **** MuTFFError mutff_read_extended_language_tag_atom(
2475:mutff/src/mutff_default.c ****     MuTFFContext *ctx, size_t *n, MuTFFExtendedLanguageTagAtom *out) {
2476:mutff/src/mutff_default.c ****   MuTFFError err;
2477:mutff/src/mutff_default.c ****   size_t bytes;
2478:mutff/src/mutff_default.c ****   *n = 0;
2479:mutff/src/mutff_default.c ****   uint64_t size;
2480:mutff/src/mutff_default.c ****   uint32_t type;
2481:mutff/src/mutff_default.c ****   MuTFF_FN(mutff_read_header, &size, &type);
2482:mutff/src/mutff_default.c ****   if (type != MuTFF_FOURCC('e', 'l', 'n', 'g')) {
2483:mutff/src/mutff_default.c ****     return MuTFFErrorBadFormat;
2484:mutff/src/mutff_default.c ****   }
2485:mutff/src/mutff_default.c ****   MuTFF_FN(mutff_read_u8, &out->version);
2486:mutff/src/mutff_default.c ****   MuTFF_FN(mutff_read_u24, &out->flags);
2487:mutff/src/mutff_default.c **** 
2488:mutff/src/mutff_default.c ****   // read variable-length data
2489:mutff/src/mutff_default.c ****   const size_t tag_length = size - 12U;
2490:mutff/src/mutff_default.c ****   if (tag_length > MuTFF_MAX_LANGUAGE_TAG_LENGTH) {
2491:mutff/src/mutff_default.c ****     return MuTFFErrorOutOfMemory;
2492:mutff/src/mutff_default.c ****   }
ARM GAS  /var/folders/fz/x0kldt2j7vs_j4slv3pyc44m0000gp/T//ccIigdcK.s 			page 65


2493:mutff/src/mutff_default.c ****   for (size_t i = 0; i < tag_length; ++i) {
2494:mutff/src/mutff_default.c ****     MuTFF_FN(mutff_read_u8, (uint8_t *)&out->language_tag_string[i]);
2495:mutff/src/mutff_default.c ****   }
2496:mutff/src/mutff_default.c **** 
2497:mutff/src/mutff_default.c ****   return MuTFFErrorNone;
2498:mutff/src/mutff_default.c **** }
2499:mutff/src/mutff_default.c **** 
2500:mutff/src/mutff_default.c **** // @TODO: should this round up to a multiple of four for performance reasons?
2501:mutff/src/mutff_default.c **** //        this particular string is zero-terminated so should be possible.
2502:mutff/src/mutff_default.c **** static inline MuTFFError mutff_extended_language_tag_atom_size(
2503:mutff/src/mutff_default.c ****     uint64_t *out, const MuTFFExtendedLanguageTagAtom *atom) {
2504:mutff/src/mutff_default.c ****   *out = mutff_atom_size(4U + strlen(atom->language_tag_string) + 1U);
2505:mutff/src/mutff_default.c ****   return MuTFFErrorNone;
2506:mutff/src/mutff_default.c **** }
2507:mutff/src/mutff_default.c **** 
2508:mutff/src/mutff_default.c **** MuTFFError mutff_write_extended_language_tag_atom(
2509:mutff/src/mutff_default.c ****     MuTFFContext *ctx, size_t *n, const MuTFFExtendedLanguageTagAtom *in) {
2510:mutff/src/mutff_default.c ****   MuTFFError err;
2511:mutff/src/mutff_default.c ****   size_t bytes;
2512:mutff/src/mutff_default.c ****   *n = 0;
2513:mutff/src/mutff_default.c ****   size_t i;
2514:mutff/src/mutff_default.c ****   uint64_t size;
2515:mutff/src/mutff_default.c ****   err = mutff_extended_language_tag_atom_size(&size, in);
2516:mutff/src/mutff_default.c ****   if (err != MuTFFErrorNone) {
2517:mutff/src/mutff_default.c ****     return err;
2518:mutff/src/mutff_default.c ****   }
2519:mutff/src/mutff_default.c ****   MuTFF_FN(mutff_write_header, size, MuTFF_FOURCC('e', 'l', 'n', 'g'));
2520:mutff/src/mutff_default.c ****   MuTFF_FN(mutff_write_u8, in->version);
2521:mutff/src/mutff_default.c ****   MuTFF_FN(mutff_write_u24, in->flags);
2522:mutff/src/mutff_default.c ****   i = 0;
2523:mutff/src/mutff_default.c ****   while (in->language_tag_string[i] != (char)'\0') {
2524:mutff/src/mutff_default.c ****     MuTFF_FN(mutff_write_u8, in->language_tag_string[i]);
2525:mutff/src/mutff_default.c ****     ++i;
2526:mutff/src/mutff_default.c ****   }
2527:mutff/src/mutff_default.c ****   for (; i < mutff_data_size(size) - 4U; ++i) {
2528:mutff/src/mutff_default.c ****     MuTFF_FN(mutff_write_u8, 0);
2529:mutff/src/mutff_default.c ****   }
2530:mutff/src/mutff_default.c ****   return MuTFFErrorNone;
2531:mutff/src/mutff_default.c **** }
2532:mutff/src/mutff_default.c **** 
2533:mutff/src/mutff_default.c **** MuTFFError mutff_read_handler_reference_atom(MuTFFContext *ctx, size_t *n,
2534:mutff/src/mutff_default.c ****                                              MuTFFHandlerReferenceAtom *out) {
2535:mutff/src/mutff_default.c ****   MuTFFError err;
2536:mutff/src/mutff_default.c ****   size_t bytes;
2537:mutff/src/mutff_default.c ****   *n = 0;
2538:mutff/src/mutff_default.c ****   uint64_t size;
2539:mutff/src/mutff_default.c ****   uint32_t type;
2540:mutff/src/mutff_default.c ****   size_t i;
2541:mutff/src/mutff_default.c ****   size_t name_length;
2542:mutff/src/mutff_default.c **** 
2543:mutff/src/mutff_default.c ****   MuTFF_FN(mutff_read_header, &size, &type);
2544:mutff/src/mutff_default.c ****   if (type != MuTFF_FOURCC('h', 'd', 'l', 'r')) {
2545:mutff/src/mutff_default.c ****     return MuTFFErrorBadFormat;
2546:mutff/src/mutff_default.c ****   }
2547:mutff/src/mutff_default.c ****   MuTFF_FN(mutff_read_u8, &out->version);
2548:mutff/src/mutff_default.c ****   MuTFF_FN(mutff_read_u24, &out->flags);
2549:mutff/src/mutff_default.c ****   MuTFF_FN(mutff_read_u32, &out->component_type);
ARM GAS  /var/folders/fz/x0kldt2j7vs_j4slv3pyc44m0000gp/T//ccIigdcK.s 			page 66


2550:mutff/src/mutff_default.c ****   MuTFF_FN(mutff_read_u32, &out->component_subtype);
2551:mutff/src/mutff_default.c ****   MuTFF_FN(mutff_read_u32, &out->component_manufacturer);
2552:mutff/src/mutff_default.c ****   MuTFF_FN(mutff_read_u32, &out->component_flags);
2553:mutff/src/mutff_default.c ****   MuTFF_FN(mutff_read_u32, &out->component_flags_mask);
2554:mutff/src/mutff_default.c **** 
2555:mutff/src/mutff_default.c ****   // read variable-length data
2556:mutff/src/mutff_default.c ****   name_length = size - *n;
2557:mutff/src/mutff_default.c ****   if (name_length > MuTFF_MAX_COMPONENT_NAME_LENGTH) {
2558:mutff/src/mutff_default.c ****     return MuTFFErrorOutOfMemory;
2559:mutff/src/mutff_default.c ****   }
2560:mutff/src/mutff_default.c ****   for (i = 0; i < name_length; ++i) {
2561:mutff/src/mutff_default.c ****     MuTFF_FN(mutff_read_u8, (uint8_t *)&out->component_name[i]);
2562:mutff/src/mutff_default.c ****   }
2563:mutff/src/mutff_default.c ****   out->component_name[i] = '\0';
2564:mutff/src/mutff_default.c **** 
2565:mutff/src/mutff_default.c ****   return MuTFFErrorNone;
2566:mutff/src/mutff_default.c **** }
2567:mutff/src/mutff_default.c **** 
2568:mutff/src/mutff_default.c **** static inline MuTFFError mutff_handler_reference_atom_size(
2569:mutff/src/mutff_default.c ****     uint64_t *out, const MuTFFHandlerReferenceAtom *atom) {
2570:mutff/src/mutff_default.c ****   *out = mutff_atom_size(24U + strlen(atom->component_name));
2571:mutff/src/mutff_default.c ****   return MuTFFErrorNone;
2572:mutff/src/mutff_default.c **** }
2573:mutff/src/mutff_default.c **** 
2574:mutff/src/mutff_default.c **** MuTFFError mutff_write_handler_reference_atom(
2575:mutff/src/mutff_default.c ****     MuTFFContext *ctx, size_t *n, const MuTFFHandlerReferenceAtom *in) {
2576:mutff/src/mutff_default.c ****   MuTFFError err;
2577:mutff/src/mutff_default.c ****   size_t bytes;
2578:mutff/src/mutff_default.c ****   *n = 0;
2579:mutff/src/mutff_default.c ****   uint64_t size;
2580:mutff/src/mutff_default.c ****   err = mutff_handler_reference_atom_size(&size, in);
2581:mutff/src/mutff_default.c ****   if (err != MuTFFErrorNone) {
2582:mutff/src/mutff_default.c ****     return err;
2583:mutff/src/mutff_default.c ****   }
2584:mutff/src/mutff_default.c ****   MuTFF_FN(mutff_write_header, size, MuTFF_FOURCC('h', 'd', 'l', 'r'));
2585:mutff/src/mutff_default.c ****   MuTFF_FN(mutff_write_u8, in->version);
2586:mutff/src/mutff_default.c ****   MuTFF_FN(mutff_write_u24, in->flags);
2587:mutff/src/mutff_default.c ****   MuTFF_FN(mutff_write_u32, in->component_type);
2588:mutff/src/mutff_default.c ****   MuTFF_FN(mutff_write_u32, in->component_subtype);
2589:mutff/src/mutff_default.c ****   MuTFF_FN(mutff_write_u32, in->component_manufacturer);
2590:mutff/src/mutff_default.c ****   MuTFF_FN(mutff_write_u32, in->component_flags);
2591:mutff/src/mutff_default.c ****   MuTFF_FN(mutff_write_u32, in->component_flags_mask);
2592:mutff/src/mutff_default.c ****   for (size_t i = 0; i < size - 32U; ++i) {
2593:mutff/src/mutff_default.c ****     MuTFF_FN(mutff_write_u8, in->component_name[i]);
2594:mutff/src/mutff_default.c ****   }
2595:mutff/src/mutff_default.c ****   return MuTFFErrorNone;
2596:mutff/src/mutff_default.c **** }
2597:mutff/src/mutff_default.c **** 
2598:mutff/src/mutff_default.c **** MuTFFError mutff_read_video_media_information_header_atom(
2599:mutff/src/mutff_default.c ****     MuTFFContext *ctx, size_t *n, MuTFFVideoMediaInformationHeaderAtom *out) {
2600:mutff/src/mutff_default.c ****   MuTFFError err;
2601:mutff/src/mutff_default.c ****   size_t bytes;
2602:mutff/src/mutff_default.c ****   *n = 0;
2603:mutff/src/mutff_default.c ****   uint64_t size;
2604:mutff/src/mutff_default.c ****   uint32_t type;
2605:mutff/src/mutff_default.c ****   MuTFF_FN(mutff_read_header, &size, &type);
2606:mutff/src/mutff_default.c ****   if (type != MuTFF_FOURCC('v', 'm', 'h', 'd')) {
ARM GAS  /var/folders/fz/x0kldt2j7vs_j4slv3pyc44m0000gp/T//ccIigdcK.s 			page 67


2607:mutff/src/mutff_default.c ****     return MuTFFErrorBadFormat;
2608:mutff/src/mutff_default.c ****   }
2609:mutff/src/mutff_default.c ****   MuTFF_FN(mutff_read_u8, &out->version);
2610:mutff/src/mutff_default.c ****   MuTFF_FN(mutff_read_u24, &out->flags);
2611:mutff/src/mutff_default.c ****   MuTFF_FN(mutff_read_u16, &out->graphics_mode);
2612:mutff/src/mutff_default.c ****   for (size_t i = 0; i < 3U; ++i) {
2613:mutff/src/mutff_default.c ****     MuTFF_FN(mutff_read_u16, &out->opcolor[i]);
2614:mutff/src/mutff_default.c ****   }
2615:mutff/src/mutff_default.c ****   return MuTFFErrorNone;
2616:mutff/src/mutff_default.c **** }
2617:mutff/src/mutff_default.c **** 
2618:mutff/src/mutff_default.c **** static inline MuTFFError mutff_video_media_information_header_atom_size(
2619:mutff/src/mutff_default.c ****     uint64_t *out, const MuTFFVideoMediaInformationHeaderAtom *atom) {
2620:mutff/src/mutff_default.c ****   *out = mutff_atom_size(12);
2621:mutff/src/mutff_default.c ****   return MuTFFErrorNone;
2622:mutff/src/mutff_default.c **** }
2623:mutff/src/mutff_default.c **** 
2624:mutff/src/mutff_default.c **** MuTFFError mutff_write_video_media_information_header_atom(
2625:mutff/src/mutff_default.c ****     MuTFFContext *ctx, size_t *n,
2626:mutff/src/mutff_default.c ****     const MuTFFVideoMediaInformationHeaderAtom *in) {
2627:mutff/src/mutff_default.c ****   MuTFFError err;
2628:mutff/src/mutff_default.c ****   size_t bytes;
2629:mutff/src/mutff_default.c ****   *n = 0;
2630:mutff/src/mutff_default.c ****   uint64_t size;
2631:mutff/src/mutff_default.c ****   err = mutff_video_media_information_header_atom_size(&size, in);
2632:mutff/src/mutff_default.c ****   if (err != MuTFFErrorNone) {
2633:mutff/src/mutff_default.c ****     return err;
2634:mutff/src/mutff_default.c ****   }
2635:mutff/src/mutff_default.c ****   MuTFF_FN(mutff_write_header, size, MuTFF_FOURCC('v', 'm', 'h', 'd'));
2636:mutff/src/mutff_default.c ****   MuTFF_FN(mutff_write_u8, in->version);
2637:mutff/src/mutff_default.c ****   MuTFF_FN(mutff_write_u24, in->flags);
2638:mutff/src/mutff_default.c ****   MuTFF_FN(mutff_write_u16, in->graphics_mode);
2639:mutff/src/mutff_default.c ****   for (size_t i = 0; i < 3U; ++i) {
2640:mutff/src/mutff_default.c ****     MuTFF_FN(mutff_write_u16, in->opcolor[i]);
2641:mutff/src/mutff_default.c ****   }
2642:mutff/src/mutff_default.c ****   return MuTFFErrorNone;
2643:mutff/src/mutff_default.c **** }
2644:mutff/src/mutff_default.c **** 
2645:mutff/src/mutff_default.c **** MuTFFError mutff_read_data_reference(MuTFFContext *ctx, size_t *n,
2646:mutff/src/mutff_default.c ****                                      MuTFFDataReference *out) {
2647:mutff/src/mutff_default.c ****   MuTFFError err;
2648:mutff/src/mutff_default.c ****   size_t bytes;
2649:mutff/src/mutff_default.c ****   *n = 0;
2650:mutff/src/mutff_default.c ****   uint32_t size;
2651:mutff/src/mutff_default.c ****   MuTFF_FN(mutff_read_u32, &size);
2652:mutff/src/mutff_default.c ****   MuTFF_FN(mutff_read_u32, &out->type);
2653:mutff/src/mutff_default.c ****   MuTFF_FN(mutff_read_u8, &out->version);
2654:mutff/src/mutff_default.c ****   MuTFF_FN(mutff_read_u24, &out->flags);
2655:mutff/src/mutff_default.c **** 
2656:mutff/src/mutff_default.c ****   // read variable-length data
2657:mutff/src/mutff_default.c ****   out->data_size = size - 12U;
2658:mutff/src/mutff_default.c ****   if (out->data_size > MuTFF_MAX_DATA_REFERENCE_DATA_SIZE) {
2659:mutff/src/mutff_default.c ****     return MuTFFErrorOutOfMemory;
2660:mutff/src/mutff_default.c ****   }
2661:mutff/src/mutff_default.c ****   for (size_t i = 0; i < out->data_size; ++i) {
2662:mutff/src/mutff_default.c ****     MuTFF_FN(mutff_read_u8, (uint8_t *)&out->data[i]);
2663:mutff/src/mutff_default.c ****   }
ARM GAS  /var/folders/fz/x0kldt2j7vs_j4slv3pyc44m0000gp/T//ccIigdcK.s 			page 68


2664:mutff/src/mutff_default.c **** 
2665:mutff/src/mutff_default.c ****   return MuTFFErrorNone;
2666:mutff/src/mutff_default.c **** }
2667:mutff/src/mutff_default.c **** 
2668:mutff/src/mutff_default.c **** static inline MuTFFError mutff_data_reference_size(
2669:mutff/src/mutff_default.c ****     uint64_t *out, const MuTFFDataReference *ref) {
2670:mutff/src/mutff_default.c ****   *out = 12U + ref->data_size;
2671:mutff/src/mutff_default.c ****   return MuTFFErrorNone;
2672:mutff/src/mutff_default.c **** }
2673:mutff/src/mutff_default.c **** 
2674:mutff/src/mutff_default.c **** MuTFFError mutff_write_data_reference(MuTFFContext *ctx, size_t *n,
2675:mutff/src/mutff_default.c ****                                       const MuTFFDataReference *in) {
2676:mutff/src/mutff_default.c ****   MuTFFError err;
2677:mutff/src/mutff_default.c ****   size_t bytes;
2678:mutff/src/mutff_default.c ****   *n = 0;
2679:mutff/src/mutff_default.c ****   uint64_t size;
2680:mutff/src/mutff_default.c ****   err = mutff_data_reference_size(&size, in);
2681:mutff/src/mutff_default.c ****   if (err != MuTFFErrorNone) {
2682:mutff/src/mutff_default.c ****     return err;
2683:mutff/src/mutff_default.c ****   }
2684:mutff/src/mutff_default.c ****   MuTFF_FN(mutff_write_header, size, in->type);
2685:mutff/src/mutff_default.c ****   MuTFF_FN(mutff_write_u8, in->version);
2686:mutff/src/mutff_default.c ****   MuTFF_FN(mutff_write_u24, in->flags);
2687:mutff/src/mutff_default.c ****   for (size_t i = 0; i < in->data_size; ++i) {
2688:mutff/src/mutff_default.c ****     MuTFF_FN(mutff_write_u8, in->data[i]);
2689:mutff/src/mutff_default.c ****   }
2690:mutff/src/mutff_default.c ****   return MuTFFErrorNone;
2691:mutff/src/mutff_default.c **** }
2692:mutff/src/mutff_default.c **** 
2693:mutff/src/mutff_default.c **** MuTFFError mutff_read_data_reference_atom(MuTFFContext *ctx, size_t *n,
2694:mutff/src/mutff_default.c ****                                           MuTFFDataReferenceAtom *out) {
2695:mutff/src/mutff_default.c ****   MuTFFError err;
2696:mutff/src/mutff_default.c ****   size_t bytes;
2697:mutff/src/mutff_default.c ****   *n = 0;
2698:mutff/src/mutff_default.c ****   uint64_t size;
2699:mutff/src/mutff_default.c ****   uint32_t type;
2700:mutff/src/mutff_default.c **** 
2701:mutff/src/mutff_default.c ****   MuTFF_FN(mutff_read_header, &size, &type);
2702:mutff/src/mutff_default.c ****   if (type != MuTFF_FOURCC('d', 'r', 'e', 'f')) {
2703:mutff/src/mutff_default.c ****     return MuTFFErrorBadFormat;
2704:mutff/src/mutff_default.c ****   }
2705:mutff/src/mutff_default.c ****   MuTFF_FN(mutff_read_u8, &out->version);
2706:mutff/src/mutff_default.c ****   MuTFF_FN(mutff_read_u24, &out->flags);
2707:mutff/src/mutff_default.c ****   MuTFF_FN(mutff_read_u32, &out->number_of_entries);
2708:mutff/src/mutff_default.c **** 
2709:mutff/src/mutff_default.c ****   // read child atoms
2710:mutff/src/mutff_default.c ****   if (out->number_of_entries > MuTFF_MAX_DATA_REFERENCES) {
2711:mutff/src/mutff_default.c ****     return MuTFFErrorOutOfMemory;
2712:mutff/src/mutff_default.c ****   }
2713:mutff/src/mutff_default.c **** 
2714:mutff/src/mutff_default.c ****   uint64_t child_size;
2715:mutff/src/mutff_default.c ****   uint32_t child_type;
2716:mutff/src/mutff_default.c ****   for (size_t i = 0; i < out->number_of_entries; ++i) {
2717:mutff/src/mutff_default.c ****     MuTFF_FN(mutff_peek_atom_header, &child_size, &child_type);
2718:mutff/src/mutff_default.c ****     if (*n + child_size > size) {
2719:mutff/src/mutff_default.c ****       return MuTFFErrorBadFormat;
2720:mutff/src/mutff_default.c ****     }
ARM GAS  /var/folders/fz/x0kldt2j7vs_j4slv3pyc44m0000gp/T//ccIigdcK.s 			page 69


2721:mutff/src/mutff_default.c ****     MuTFF_FN(mutff_read_data_reference, &out->data_references[i]);
2722:mutff/src/mutff_default.c ****   }
2723:mutff/src/mutff_default.c **** 
2724:mutff/src/mutff_default.c ****   // skip any remaining space
2725:mutff/src/mutff_default.c ****   MuTFF_SEEK_CUR(size - *n);
2726:mutff/src/mutff_default.c **** 
2727:mutff/src/mutff_default.c ****   return MuTFFErrorNone;
2728:mutff/src/mutff_default.c **** }
2729:mutff/src/mutff_default.c **** 
2730:mutff/src/mutff_default.c **** static inline MuTFFError mutff_data_reference_atom_size(
2731:mutff/src/mutff_default.c ****     uint64_t *out, const MuTFFDataReferenceAtom *atom) {
 1063              		.loc 1 2731 56 is_stmt 1 view -0
 1064              		.cfi_startproc
 1065              		@ args = 0, pretend = 0, frame = 0
 1066              		@ frame_needed = 0, uses_anonymous_args = 0
 1067              		.loc 1 2731 56 is_stmt 0 view .LVU312
 1068 0000 00B5     		push	{lr}
 1069              		.cfi_def_cfa_offset 4
 1070              		.cfi_offset 14, -4
2732:mutff/src/mutff_default.c ****   MuTFFError err;
 1071              		.loc 1 2732 3 is_stmt 1 view .LVU313
2733:mutff/src/mutff_default.c ****   uint64_t size = 8;
 1072              		.loc 1 2733 3 view .LVU314
 1073              	.LVL77:
2734:mutff/src/mutff_default.c ****   for (uint32_t i = 0; i < atom->number_of_entries; ++i) {
 1074              		.loc 1 2734 3 view .LVU315
 1075              	.LBB531:
 1076              		.loc 1 2734 8 view .LVU316
 1077              		.loc 1 2734 17 is_stmt 0 view .LVU317
 1078 0002 4FF0000C 		mov	ip, #0
 1079              	.LBE531:
2733:mutff/src/mutff_default.c ****   uint64_t size = 8;
 1080              		.loc 1 2733 12 view .LVU318
 1081 0006 0823     		movs	r3, #8
 1082 0008 E646     		mov	lr, ip
 1083              	.LBB535:
 1084              		.loc 1 2734 3 view .LVU319
 1085 000a 08E0     		b	.L50
 1086              	.LVL78:
 1087              	.L51:
 1088              	.LBB532:
2735:mutff/src/mutff_default.c ****     uint64_t child_size;
 1089              		.loc 1 2735 5 is_stmt 1 view .LVU320
2736:mutff/src/mutff_default.c ****     err = mutff_data_reference_size(&child_size, &atom->data_references[i]);
 1090              		.loc 1 2736 5 view .LVU321
 1091              	.LBB533:
 1092              	.LBI533:
2668:mutff/src/mutff_default.c ****     uint64_t *out, const MuTFFDataReference *ref) {
 1093              		.loc 1 2668 26 view .LVU322
 1094              	.LBB534:
2670:mutff/src/mutff_default.c ****   return MuTFFErrorNone;
 1095              		.loc 1 2670 3 view .LVU323
2670:mutff/src/mutff_default.c ****   return MuTFFErrorNone;
 1096              		.loc 1 2670 19 is_stmt 0 view .LVU324
 1097 000c 01EB4C12 		add	r2, r1, ip, lsl #5
 1098 0010 9269     		ldr	r2, [r2, #24]
2670:mutff/src/mutff_default.c ****   return MuTFFErrorNone;
ARM GAS  /var/folders/fz/x0kldt2j7vs_j4slv3pyc44m0000gp/T//ccIigdcK.s 			page 70


 1099              		.loc 1 2670 14 view .LVU325
 1100 0012 0C32     		adds	r2, r2, #12
 1101              	.LVL79:
2671:mutff/src/mutff_default.c **** }
 1102              		.loc 1 2671 3 is_stmt 1 view .LVU326
2671:mutff/src/mutff_default.c **** }
 1103              		.loc 1 2671 3 is_stmt 0 view .LVU327
 1104              	.LBE534:
 1105              	.LBE533:
2737:mutff/src/mutff_default.c ****     if (err != MuTFFErrorNone) {
 1106              		.loc 1 2737 5 is_stmt 1 view .LVU328
2738:mutff/src/mutff_default.c ****       return err;
2739:mutff/src/mutff_default.c ****     }
2740:mutff/src/mutff_default.c ****     size += child_size;
 1107              		.loc 1 2740 5 view .LVU329
 1108              		.loc 1 2740 10 is_stmt 0 view .LVU330
 1109 0014 9B18     		adds	r3, r3, r2
 1110              	.LVL80:
 1111              		.loc 1 2740 10 view .LVU331
 1112 0016 4EF1000E 		adc	lr, lr, #0
 1113              	.LVL81:
 1114              		.loc 1 2740 10 view .LVU332
 1115              	.LBE532:
2734:mutff/src/mutff_default.c ****     uint64_t child_size;
 1116              		.loc 1 2734 53 is_stmt 1 view .LVU333
 1117 001a 0CF1010C 		add	ip, ip, #1
 1118              	.LVL82:
 1119              	.L50:
2734:mutff/src/mutff_default.c ****     uint64_t child_size;
 1120              		.loc 1 2734 26 discriminator 1 view .LVU334
2734:mutff/src/mutff_default.c ****     uint64_t child_size;
 1121              		.loc 1 2734 32 is_stmt 0 discriminator 1 view .LVU335
 1122 001e 8A68     		ldr	r2, [r1, #8]
2734:mutff/src/mutff_default.c ****     uint64_t child_size;
 1123              		.loc 1 2734 26 discriminator 1 view .LVU336
 1124 0020 6245     		cmp	r2, ip
 1125 0022 F3D8     		bhi	.L51
 1126              	.LBE535:
2741:mutff/src/mutff_default.c ****   }
2742:mutff/src/mutff_default.c ****   *out = mutff_atom_size(size);
 1127              		.loc 1 2742 3 is_stmt 1 view .LVU337
 1128              	.LVL83:
 1129              	.LBB536:
 1130              	.LBI536:
 389:mutff/src/mutff_default.c ****   return data_size + 8U <= UINT32_MAX ? data_size + 8U : data_size + 16U;
 1131              		.loc 1 389 24 view .LVU338
 1132              	.LBB537:
 390:mutff/src/mutff_default.c **** }
 1133              		.loc 1 390 3 view .LVU339
 390:mutff/src/mutff_default.c **** }
 1134              		.loc 1 390 20 is_stmt 0 view .LVU340
 1135 0024 13F10801 		adds	r1, r3, #8
 1136              	.LVL84:
 390:mutff/src/mutff_default.c **** }
 1137              		.loc 1 390 20 view .LVU341
 1138 0028 4EF10002 		adc	r2, lr, #0
 390:mutff/src/mutff_default.c **** }
ARM GAS  /var/folders/fz/x0kldt2j7vs_j4slv3pyc44m0000gp/T//ccIigdcK.s 			page 71


 1139              		.loc 1 390 56 view .LVU342
 1140 002c 4FF0FF3C 		mov	ip, #-1
 1141              	.LVL85:
 390:mutff/src/mutff_default.c **** }
 1142              		.loc 1 390 56 view .LVU343
 1143 0030 8C45     		cmp	ip, r1
 1144 0032 4FF0000C 		mov	ip, #0
 1145 0036 7CEB020C 		sbcs	ip, ip, r2
 1146 003a 03D2     		bcs	.L52
 1147 003c 13F11001 		adds	r1, r3, #16
 1148 0040 4EF10002 		adc	r2, lr, #0
 1149              	.L52:
 1150              	.LVL86:
 390:mutff/src/mutff_default.c **** }
 1151              		.loc 1 390 56 view .LVU344
 1152              	.LBE537:
 1153              	.LBE536:
 1154              		.loc 1 2742 8 view .LVU345
 1155 0044 0160     		str	r1, [r0]
 1156 0046 4260     		str	r2, [r0, #4]
2743:mutff/src/mutff_default.c ****   return MuTFFErrorNone;
 1157              		.loc 1 2743 3 is_stmt 1 view .LVU346
2744:mutff/src/mutff_default.c **** }
 1158              		.loc 1 2744 1 is_stmt 0 view .LVU347
 1159 0048 0020     		movs	r0, #0
 1160              	.LVL87:
 1161              		.loc 1 2744 1 view .LVU348
 1162 004a 5DF804FB 		ldr	pc, [sp], #4
 1163              		.cfi_endproc
 1164              	.LFE161:
 1166              		.section	.text.mutff_data_information_atom_size,"ax",%progbits
 1167              		.align	1
 1168              		.syntax unified
 1169              		.thumb
 1170              		.thumb_func
 1172              	mutff_data_information_atom_size:
 1173              	.LVL88:
 1174              	.LFB164:
2745:mutff/src/mutff_default.c **** 
2746:mutff/src/mutff_default.c **** MuTFFError mutff_write_data_reference_atom(MuTFFContext *ctx, size_t *n,
2747:mutff/src/mutff_default.c ****                                            const MuTFFDataReferenceAtom *in) {
2748:mutff/src/mutff_default.c ****   MuTFFError err;
2749:mutff/src/mutff_default.c ****   size_t bytes;
2750:mutff/src/mutff_default.c ****   *n = 0;
2751:mutff/src/mutff_default.c ****   uint64_t size;
2752:mutff/src/mutff_default.c ****   err = mutff_data_reference_atom_size(&size, in);
2753:mutff/src/mutff_default.c ****   if (err != MuTFFErrorNone) {
2754:mutff/src/mutff_default.c ****     return err;
2755:mutff/src/mutff_default.c ****   }
2756:mutff/src/mutff_default.c ****   MuTFF_FN(mutff_write_header, size, MuTFF_FOURCC('d', 'r', 'e', 'f'));
2757:mutff/src/mutff_default.c ****   MuTFF_FN(mutff_write_u8, in->version);
2758:mutff/src/mutff_default.c ****   MuTFF_FN(mutff_write_u24, in->flags);
2759:mutff/src/mutff_default.c ****   MuTFF_FN(mutff_write_u32, in->number_of_entries);
2760:mutff/src/mutff_default.c ****   for (uint32_t i = 0; i < in->number_of_entries; ++i) {
2761:mutff/src/mutff_default.c ****     MuTFF_FN(mutff_write_data_reference, &in->data_references[i]);
2762:mutff/src/mutff_default.c ****   }
2763:mutff/src/mutff_default.c ****   return MuTFFErrorNone;
ARM GAS  /var/folders/fz/x0kldt2j7vs_j4slv3pyc44m0000gp/T//ccIigdcK.s 			page 72


2764:mutff/src/mutff_default.c **** }
2765:mutff/src/mutff_default.c **** 
2766:mutff/src/mutff_default.c **** MuTFFError mutff_read_data_information_atom(MuTFFContext *ctx, size_t *n,
2767:mutff/src/mutff_default.c ****                                             MuTFFDataInformationAtom *out) {
2768:mutff/src/mutff_default.c ****   MuTFFError err;
2769:mutff/src/mutff_default.c ****   size_t bytes;
2770:mutff/src/mutff_default.c ****   *n = 0;
2771:mutff/src/mutff_default.c ****   uint64_t size;
2772:mutff/src/mutff_default.c ****   uint32_t type;
2773:mutff/src/mutff_default.c ****   bool data_reference_present = false;
2774:mutff/src/mutff_default.c **** 
2775:mutff/src/mutff_default.c ****   MuTFF_FN(mutff_read_header, &size, &type);
2776:mutff/src/mutff_default.c ****   if (type != MuTFF_FOURCC('d', 'i', 'n', 'f')) {
2777:mutff/src/mutff_default.c ****     return MuTFFErrorBadFormat;
2778:mutff/src/mutff_default.c ****   }
2779:mutff/src/mutff_default.c **** 
2780:mutff/src/mutff_default.c ****   uint64_t child_size;
2781:mutff/src/mutff_default.c ****   uint32_t child_type;
2782:mutff/src/mutff_default.c ****   while (*n < size) {
2783:mutff/src/mutff_default.c ****     MuTFF_FN(mutff_peek_atom_header, &child_size, &child_type);
2784:mutff/src/mutff_default.c ****     if (size == 0U) {
2785:mutff/src/mutff_default.c ****       return MuTFFErrorBadFormat;
2786:mutff/src/mutff_default.c ****     }
2787:mutff/src/mutff_default.c ****     if (*n + child_size > size) {
2788:mutff/src/mutff_default.c ****       return MuTFFErrorBadFormat;
2789:mutff/src/mutff_default.c ****     }
2790:mutff/src/mutff_default.c ****     if (child_type == MuTFF_FOURCC('d', 'r', 'e', 'f')) {
2791:mutff/src/mutff_default.c ****       MuTFF_READ_CHILD(mutff_read_data_reference_atom, &out->data_reference,
2792:mutff/src/mutff_default.c ****                        data_reference_present);
2793:mutff/src/mutff_default.c ****     } else {
2794:mutff/src/mutff_default.c ****       MuTFF_SEEK_CUR(child_size);
2795:mutff/src/mutff_default.c ****     }
2796:mutff/src/mutff_default.c ****   }
2797:mutff/src/mutff_default.c **** 
2798:mutff/src/mutff_default.c ****   if (!data_reference_present) {
2799:mutff/src/mutff_default.c ****     return MuTFFErrorBadFormat;
2800:mutff/src/mutff_default.c ****   }
2801:mutff/src/mutff_default.c **** 
2802:mutff/src/mutff_default.c ****   return MuTFFErrorNone;
2803:mutff/src/mutff_default.c **** }
2804:mutff/src/mutff_default.c **** 
2805:mutff/src/mutff_default.c **** static inline MuTFFError mutff_data_information_atom_size(
2806:mutff/src/mutff_default.c ****     uint64_t *out, const MuTFFDataInformationAtom *atom) {
 1175              		.loc 1 2806 58 is_stmt 1 view -0
 1176              		.cfi_startproc
 1177              		@ args = 0, pretend = 0, frame = 8
 1178              		@ frame_needed = 0, uses_anonymous_args = 0
 1179              		.loc 1 2806 58 is_stmt 0 view .LVU350
 1180 0000 30B5     		push	{r4, r5, lr}
 1181              		.cfi_def_cfa_offset 12
 1182              		.cfi_offset 4, -12
 1183              		.cfi_offset 5, -8
 1184              		.cfi_offset 14, -4
 1185 0002 83B0     		sub	sp, sp, #12
 1186              		.cfi_def_cfa_offset 24
 1187 0004 0446     		mov	r4, r0
2807:mutff/src/mutff_default.c ****   uint64_t size;
ARM GAS  /var/folders/fz/x0kldt2j7vs_j4slv3pyc44m0000gp/T//ccIigdcK.s 			page 73


 1188              		.loc 1 2807 3 is_stmt 1 view .LVU351
2808:mutff/src/mutff_default.c ****   const MuTFFError err =
 1189              		.loc 1 2808 3 view .LVU352
2809:mutff/src/mutff_default.c ****       mutff_data_reference_atom_size(&size, &atom->data_reference);
 1190              		.loc 1 2809 7 is_stmt 0 view .LVU353
 1191 0006 6846     		mov	r0, sp
 1192              	.LVL89:
 1193              		.loc 1 2809 7 view .LVU354
 1194 0008 FFF7FEFF 		bl	mutff_data_reference_atom_size
 1195              	.LVL90:
2810:mutff/src/mutff_default.c ****   if (err != MuTFFErrorNone) {
 1196              		.loc 1 2810 3 is_stmt 1 view .LVU355
 1197              		.loc 1 2810 6 is_stmt 0 view .LVU356
 1198 000c 98B9     		cbnz	r0, .L55
2811:mutff/src/mutff_default.c ****     return err;
2812:mutff/src/mutff_default.c ****   }
2813:mutff/src/mutff_default.c ****   *out = mutff_atom_size(size);
 1199              		.loc 1 2813 3 is_stmt 1 view .LVU357
 1200              		.loc 1 2813 10 is_stmt 0 view .LVU358
 1201 000e 009B     		ldr	r3, [sp]
 1202 0010 019D     		ldr	r5, [sp, #4]
 1203              	.LVL91:
 1204              	.LBB538:
 1205              	.LBI538:
 389:mutff/src/mutff_default.c ****   return data_size + 8U <= UINT32_MAX ? data_size + 8U : data_size + 16U;
 1206              		.loc 1 389 24 is_stmt 1 view .LVU359
 1207              	.LBB539:
 390:mutff/src/mutff_default.c **** }
 1208              		.loc 1 390 3 view .LVU360
 390:mutff/src/mutff_default.c **** }
 1209              		.loc 1 390 20 is_stmt 0 view .LVU361
 1210 0012 13F10801 		adds	r1, r3, #8
 1211 0016 45F10002 		adc	r2, r5, #0
 390:mutff/src/mutff_default.c **** }
 1212              		.loc 1 390 56 view .LVU362
 1213 001a 4FF0FF3C 		mov	ip, #-1
 1214 001e 8C45     		cmp	ip, r1
 1215 0020 4FF0000C 		mov	ip, #0
 1216 0024 7CEB020C 		sbcs	ip, ip, r2
 1217 0028 03D2     		bcs	.L56
 1218 002a 13F11001 		adds	r1, r3, #16
 1219 002e 45F10002 		adc	r2, r5, #0
 1220              	.L56:
 1221              	.LVL92:
 390:mutff/src/mutff_default.c **** }
 1222              		.loc 1 390 56 view .LVU363
 1223              	.LBE539:
 1224              	.LBE538:
 1225              		.loc 1 2813 8 view .LVU364
 1226 0032 2160     		str	r1, [r4]
 1227 0034 6260     		str	r2, [r4, #4]
2814:mutff/src/mutff_default.c ****   return MuTFFErrorNone;
 1228              		.loc 1 2814 3 is_stmt 1 view .LVU365
 1229              	.L55:
2815:mutff/src/mutff_default.c **** }
 1230              		.loc 1 2815 1 is_stmt 0 view .LVU366
 1231 0036 03B0     		add	sp, sp, #12
ARM GAS  /var/folders/fz/x0kldt2j7vs_j4slv3pyc44m0000gp/T//ccIigdcK.s 			page 74


 1232              		.cfi_def_cfa_offset 12
 1233              		@ sp needed
 1234 0038 30BD     		pop	{r4, r5, pc}
 1235              		.loc 1 2815 1 view .LVU367
 1236              		.cfi_endproc
 1237              	.LFE164:
 1239              		.section	.text.mutff_track_fragment_header_atom_size,"ax",%progbits
 1240              		.align	1
 1241              		.syntax unified
 1242              		.thumb
 1243              		.thumb_func
 1245              	mutff_track_fragment_header_atom_size:
 1246              	.LVL93:
 1247              	.LFB245:
2816:mutff/src/mutff_default.c **** 
2817:mutff/src/mutff_default.c **** MuTFFError mutff_write_data_information_atom(
2818:mutff/src/mutff_default.c ****     MuTFFContext *ctx, size_t *n, const MuTFFDataInformationAtom *in) {
2819:mutff/src/mutff_default.c ****   MuTFFError err;
2820:mutff/src/mutff_default.c ****   size_t bytes;
2821:mutff/src/mutff_default.c ****   *n = 0;
2822:mutff/src/mutff_default.c ****   uint64_t size;
2823:mutff/src/mutff_default.c ****   err = mutff_data_information_atom_size(&size, in);
2824:mutff/src/mutff_default.c ****   if (err != MuTFFErrorNone) {
2825:mutff/src/mutff_default.c ****     return err;
2826:mutff/src/mutff_default.c ****   }
2827:mutff/src/mutff_default.c ****   MuTFF_FN(mutff_write_header, size, MuTFF_FOURCC('d', 'i', 'n', 'f'));
2828:mutff/src/mutff_default.c ****   MuTFF_FN(mutff_write_data_reference_atom, &in->data_reference);
2829:mutff/src/mutff_default.c ****   return MuTFFErrorNone;
2830:mutff/src/mutff_default.c **** }
2831:mutff/src/mutff_default.c **** 
2832:mutff/src/mutff_default.c **** MuTFFError mutff_read_sample_description_atom(MuTFFContext *ctx, size_t *n,
2833:mutff/src/mutff_default.c ****                                               MuTFFSampleDescriptionAtom *out) {
