ARM GAS  /var/folders/fz/x0kldt2j7vs_j4slv3pyc44m0000gp/T//cc6NCror.s 			page 1


   1              		.cpu cortex-m7
   2              		.arch armv7e-m
   3              		.fpu fpv5-sp-d16
   4              		.eabi_attribute 27, 1
   5              		.eabi_attribute 28, 1
   6              		.eabi_attribute 20, 1
   7              		.eabi_attribute 21, 1
   8              		.eabi_attribute 23, 3
   9              		.eabi_attribute 24, 1
  10              		.eabi_attribute 25, 1
  11              		.eabi_attribute 26, 1
  12              		.eabi_attribute 30, 1
  13              		.eabi_attribute 34, 1
  14              		.eabi_attribute 18, 4
  15              		.file	"mutff_fatfs.c"
  16              		.text
  17              	.Ltext0:
  18              		.cfi_sections	.debug_frame
  19              		.file 1 "Container/Src/mutff_fatfs.c"
  20              		.section	.text.mutff_tell_fatfs,"ax",%progbits
  21              		.align	1
  22              		.global	mutff_tell_fatfs
  23              		.syntax unified
  24              		.thumb
  25              		.thumb_func
  27              	mutff_tell_fatfs:
  28              	.LVL0:
  29              	.LFB146:
   1:Container/Src/mutff_fatfs.c **** #include "mutff_fatfs.h"
   2:Container/Src/mutff_fatfs.c **** 
   3:Container/Src/mutff_fatfs.c **** #include "fatfs.h"
   4:Container/Src/mutff_fatfs.c **** #include "mutff.h"
   5:Container/Src/mutff_fatfs.c **** 
   6:Container/Src/mutff_fatfs.c **** MuTFFError mutff_read_fatfs(mutff_file_t *file, void *dest,
   7:Container/Src/mutff_fatfs.c ****                              unsigned int bytes) {
   8:Container/Src/mutff_fatfs.c **** 	unsigned int read;
   9:Container/Src/mutff_fatfs.c **** 	f_read(file, dest, bytes, &read);
  10:Container/Src/mutff_fatfs.c **** 	if (read != bytes) {
  11:Container/Src/mutff_fatfs.c **** 		return MuTFFErrorIOError;
  12:Container/Src/mutff_fatfs.c **** 	}
  13:Container/Src/mutff_fatfs.c **** 	return MuTFFErrorNone;
  14:Container/Src/mutff_fatfs.c **** }
  15:Container/Src/mutff_fatfs.c **** 
  16:Container/Src/mutff_fatfs.c **** MuTFFError mutff_write_fatfs(mutff_file_t *file, const void *src,
  17:Container/Src/mutff_fatfs.c ****                               unsigned int bytes) {
  18:Container/Src/mutff_fatfs.c **** 	unsigned int written;
  19:Container/Src/mutff_fatfs.c **** 	f_write(file, src, bytes, &written);
  20:Container/Src/mutff_fatfs.c **** 	if (written != bytes) {
  21:Container/Src/mutff_fatfs.c **** 		return MuTFFErrorIOError;
  22:Container/Src/mutff_fatfs.c **** 	}
  23:Container/Src/mutff_fatfs.c **** 	return MuTFFErrorNone;
  24:Container/Src/mutff_fatfs.c **** }
  25:Container/Src/mutff_fatfs.c **** 
  26:Container/Src/mutff_fatfs.c **** MuTFFError mutff_tell_fatfs(mutff_file_t *file, unsigned int *location) {
  30              		.loc 1 26 73 view -0
  31              		.cfi_startproc
  32              		@ args = 0, pretend = 0, frame = 0
ARM GAS  /var/folders/fz/x0kldt2j7vs_j4slv3pyc44m0000gp/T//cc6NCror.s 			page 2


  33              		@ frame_needed = 0, uses_anonymous_args = 0
  34              		@ link register save eliminated.
  27:Container/Src/mutff_fatfs.c **** 	return MuTFFErrorIOError;
  35              		.loc 1 27 2 view .LVU1
  28:Container/Src/mutff_fatfs.c **** }
  36              		.loc 1 28 1 is_stmt 0 view .LVU2
  37 0000 0120     		movs	r0, #1
  38              	.LVL1:
  39              		.loc 1 28 1 view .LVU3
  40 0002 7047     		bx	lr
  41              		.cfi_endproc
  42              	.LFE146:
  44              		.section	.text.mutff_seek_fatfs,"ax",%progbits
  45              		.align	1
  46              		.global	mutff_seek_fatfs
  47              		.syntax unified
  48              		.thumb
  49              		.thumb_func
  51              	mutff_seek_fatfs:
  52              	.LVL2:
  53              	.LFB147:
  29:Container/Src/mutff_fatfs.c **** 
  30:Container/Src/mutff_fatfs.c **** MuTFFError mutff_seek_fatfs(mutff_file_t *file, long delta) {
  54              		.loc 1 30 61 is_stmt 1 view -0
  55              		.cfi_startproc
  56              		@ args = 0, pretend = 0, frame = 0
  57              		@ frame_needed = 0, uses_anonymous_args = 0
  58              		@ link register save eliminated.
  31:Container/Src/mutff_fatfs.c **** 	return MuTFFErrorIOError;
  59              		.loc 1 31 2 view .LVU5
  32:Container/Src/mutff_fatfs.c **** }
  60              		.loc 1 32 1 is_stmt 0 view .LVU6
  61 0000 0120     		movs	r0, #1
  62              	.LVL3:
  63              		.loc 1 32 1 view .LVU7
  64 0002 7047     		bx	lr
  65              		.cfi_endproc
  66              	.LFE147:
  68              		.section	.text.mutff_read_fatfs,"ax",%progbits
  69              		.align	1
  70              		.global	mutff_read_fatfs
  71              		.syntax unified
  72              		.thumb
  73              		.thumb_func
  75              	mutff_read_fatfs:
  76              	.LVL4:
  77              	.LFB144:
   7:Container/Src/mutff_fatfs.c **** 	unsigned int read;
  78              		.loc 1 7 50 is_stmt 1 view -0
  79              		.cfi_startproc
  80              		@ args = 0, pretend = 0, frame = 8
  81              		@ frame_needed = 0, uses_anonymous_args = 0
   7:Container/Src/mutff_fatfs.c **** 	unsigned int read;
  82              		.loc 1 7 50 is_stmt 0 view .LVU9
  83 0000 10B5     		push	{r4, lr}
  84              		.cfi_def_cfa_offset 8
  85              		.cfi_offset 4, -8
ARM GAS  /var/folders/fz/x0kldt2j7vs_j4slv3pyc44m0000gp/T//cc6NCror.s 			page 3


  86              		.cfi_offset 14, -4
  87 0002 82B0     		sub	sp, sp, #8
  88              		.cfi_def_cfa_offset 16
  89 0004 1446     		mov	r4, r2
   8:Container/Src/mutff_fatfs.c **** 	f_read(file, dest, bytes, &read);
  90              		.loc 1 8 2 is_stmt 1 view .LVU10
   9:Container/Src/mutff_fatfs.c **** 	if (read != bytes) {
  91              		.loc 1 9 2 view .LVU11
  92 0006 01AB     		add	r3, sp, #4
  93 0008 FFF7FEFF 		bl	f_read
  94              	.LVL5:
  10:Container/Src/mutff_fatfs.c **** 		return MuTFFErrorIOError;
  95              		.loc 1 10 2 view .LVU12
  10:Container/Src/mutff_fatfs.c **** 		return MuTFFErrorIOError;
  96              		.loc 1 10 11 is_stmt 0 view .LVU13
  97 000c 019B     		ldr	r3, [sp, #4]
  10:Container/Src/mutff_fatfs.c **** 		return MuTFFErrorIOError;
  98              		.loc 1 10 5 view .LVU14
  99 000e A342     		cmp	r3, r4
 100 0010 02D1     		bne	.L5
  13:Container/Src/mutff_fatfs.c **** }
 101              		.loc 1 13 9 view .LVU15
 102 0012 0020     		movs	r0, #0
 103              	.L4:
  14:Container/Src/mutff_fatfs.c **** 
 104              		.loc 1 14 1 view .LVU16
 105 0014 02B0     		add	sp, sp, #8
 106              		.cfi_remember_state
 107              		.cfi_def_cfa_offset 8
 108              		@ sp needed
 109 0016 10BD     		pop	{r4, pc}
 110              	.LVL6:
 111              	.L5:
 112              		.cfi_restore_state
  11:Container/Src/mutff_fatfs.c **** 	}
 113              		.loc 1 11 10 view .LVU17
 114 0018 0120     		movs	r0, #1
 115 001a FBE7     		b	.L4
 116              		.cfi_endproc
 117              	.LFE144:
 119              		.section	.text.mutff_write_fatfs,"ax",%progbits
 120              		.align	1
 121              		.global	mutff_write_fatfs
 122              		.syntax unified
 123              		.thumb
 124              		.thumb_func
 126              	mutff_write_fatfs:
 127              	.LVL7:
 128              	.LFB145:
  17:Container/Src/mutff_fatfs.c **** 	unsigned int written;
 129              		.loc 1 17 51 is_stmt 1 view -0
 130              		.cfi_startproc
 131              		@ args = 0, pretend = 0, frame = 8
 132              		@ frame_needed = 0, uses_anonymous_args = 0
  17:Container/Src/mutff_fatfs.c **** 	unsigned int written;
 133              		.loc 1 17 51 is_stmt 0 view .LVU19
 134 0000 10B5     		push	{r4, lr}
ARM GAS  /var/folders/fz/x0kldt2j7vs_j4slv3pyc44m0000gp/T//cc6NCror.s 			page 4


 135              		.cfi_def_cfa_offset 8
 136              		.cfi_offset 4, -8
 137              		.cfi_offset 14, -4
 138 0002 82B0     		sub	sp, sp, #8
 139              		.cfi_def_cfa_offset 16
 140 0004 1446     		mov	r4, r2
  18:Container/Src/mutff_fatfs.c **** 	f_write(file, src, bytes, &written);
 141              		.loc 1 18 2 is_stmt 1 view .LVU20
  19:Container/Src/mutff_fatfs.c **** 	if (written != bytes) {
 142              		.loc 1 19 2 view .LVU21
 143 0006 01AB     		add	r3, sp, #4
 144 0008 FFF7FEFF 		bl	f_write
 145              	.LVL8:
  20:Container/Src/mutff_fatfs.c **** 		return MuTFFErrorIOError;
 146              		.loc 1 20 2 view .LVU22
  20:Container/Src/mutff_fatfs.c **** 		return MuTFFErrorIOError;
 147              		.loc 1 20 14 is_stmt 0 view .LVU23
 148 000c 019B     		ldr	r3, [sp, #4]
  20:Container/Src/mutff_fatfs.c **** 		return MuTFFErrorIOError;
 149              		.loc 1 20 5 view .LVU24
 150 000e A342     		cmp	r3, r4
 151 0010 02D1     		bne	.L9
  23:Container/Src/mutff_fatfs.c **** }
 152              		.loc 1 23 9 view .LVU25
 153 0012 0020     		movs	r0, #0
 154              	.L8:
  24:Container/Src/mutff_fatfs.c **** 
 155              		.loc 1 24 1 view .LVU26
 156 0014 02B0     		add	sp, sp, #8
 157              		.cfi_remember_state
 158              		.cfi_def_cfa_offset 8
 159              		@ sp needed
 160 0016 10BD     		pop	{r4, pc}
 161              	.LVL9:
 162              	.L9:
 163              		.cfi_restore_state
  21:Container/Src/mutff_fatfs.c **** 	}
 164              		.loc 1 21 10 view .LVU27
 165 0018 0120     		movs	r0, #1
 166 001a FBE7     		b	.L8
 167              		.cfi_endproc
 168              	.LFE145:
 170              		.global	mutff_fatfs_driver
 171              		.section	.data.mutff_fatfs_driver,"aw"
 172              		.align	2
 175              	mutff_fatfs_driver:
 176 0000 00000000 		.word	mutff_read_fatfs
 177 0004 00000000 		.word	mutff_write_fatfs
 178 0008 00000000 		.word	mutff_tell_fatfs
 179 000c 00000000 		.word	mutff_seek_fatfs
 180              		.text
 181              	.Letext0:
 182              		.file 2 "mutff/include/mutff_error.h"
 183              		.file 3 "mutff/include/mutff_io.h"
 184              		.file 4 "Middlewares/Third_Party/FatFs/src/integer.h"
 185              		.file 5 "Middlewares/Third_Party/FatFs/src/ff.h"
 186              		.file 6 "Container/Inc/mutff_fatfs.h"
ARM GAS  /var/folders/fz/x0kldt2j7vs_j4slv3pyc44m0000gp/T//cc6NCror.s 			page 5


ARM GAS  /var/folders/fz/x0kldt2j7vs_j4slv3pyc44m0000gp/T//cc6NCror.s 			page 6

