ARM GAS  /var/folders/fz/x0kldt2j7vs_j4slv3pyc44m0000gp/T//ccFAVl1c.s 			page 1


   1              		.cpu cortex-m7
   2              		.arch armv7e-m
   3              		.fpu fpv5-sp-d16
   4              		.eabi_attribute 27, 1
   5              		.eabi_attribute 28, 1
   6              		.eabi_attribute 20, 1
   7              		.eabi_attribute 21, 1
   8              		.eabi_attribute 23, 3
   9              		.eabi_attribute 24, 1
  10              		.eabi_attribute 25, 1
  11              		.eabi_attribute 26, 1
  12              		.eabi_attribute 30, 1
  13              		.eabi_attribute 34, 1
  14              		.eabi_attribute 18, 4
  15              		.file	"ov5640_driver.c"
  16              		.text
  17              	.Ltext0:
  18              		.cfi_sections	.debug_frame
  19              		.file 1 "Cam/Src/ov5640_driver.c"
  20              		.section	.text.ov5640_Init,"ax",%progbits
  21              		.align	1
  22              		.global	ov5640_Init
  23              		.syntax unified
  24              		.thumb
  25              		.thumb_func
  27              	ov5640_Init:
  28              	.LFB144:
   1:Cam/Src/ov5640_driver.c **** 
   2:Cam/Src/ov5640_driver.c **** #include <ov5640_driver.h>
   3:Cam/Src/ov5640_driver.c **** #include "ov5640_registers.h"
   4:Cam/Src/ov5640_driver.c **** #include "ov5640_reg_settings.h"
   5:Cam/Src/ov5640_driver.c **** 
   6:Cam/Src/ov5640_driver.c **** #define OV5640_POLARITY_PCLK_LOW  0x00U /* Signal Active Low          */
   7:Cam/Src/ov5640_driver.c **** #define OV5640_POLARITY_PCLK_HIGH 0x01U /* Signal Active High         */
   8:Cam/Src/ov5640_driver.c **** #define OV5640_POLARITY_HREF_LOW  0x00U /* Signal Active Low          */
   9:Cam/Src/ov5640_driver.c **** #define OV5640_POLARITY_HREF_HIGH 0x01U /* Signal Active High         */
  10:Cam/Src/ov5640_driver.c **** #define OV5640_POLARITY_VSYNC_LOW 0x01U /* Signal Active Low          */
  11:Cam/Src/ov5640_driver.c **** #define OV5640_POLARITY_VSYNC_HIGH  0x00U /* Signal Active High         */
  12:Cam/Src/ov5640_driver.c **** 
  13:Cam/Src/ov5640_driver.c **** uint32_t  jpeg_buf_size = 0;
  14:Cam/Src/ov5640_driver.c **** 
  15:Cam/Src/ov5640_driver.c **** const uint16_t jpeg_size_tbl[][2]=
  16:Cam/Src/ov5640_driver.c **** {
  17:Cam/Src/ov5640_driver.c ****   {160, 120},	//QQVGA
  18:Cam/Src/ov5640_driver.c **** 	{176, 144},	//QCIF
  19:Cam/Src/ov5640_driver.c **** 	{320, 240},	//QVGA
  20:Cam/Src/ov5640_driver.c **** 	{400, 240},	//WQVGA
  21:Cam/Src/ov5640_driver.c **** 	{352, 288},	//CIF
  22:Cam/Src/ov5640_driver.c **** 	{640, 480},	//VGA
  23:Cam/Src/ov5640_driver.c ****   {800, 600},	//SVGA
  24:Cam/Src/ov5640_driver.c **** };
  25:Cam/Src/ov5640_driver.c **** 
  26:Cam/Src/ov5640_driver.c **** const uint32_t jpeg_buf_max_size[]=
  27:Cam/Src/ov5640_driver.c **** {
  28:Cam/Src/ov5640_driver.c ****     20*1024,	//QQVGA
  29:Cam/Src/ov5640_driver.c **** 	30*1024,	//QCIF
  30:Cam/Src/ov5640_driver.c **** 	100*1024,	//QVGA
ARM GAS  /var/folders/fz/x0kldt2j7vs_j4slv3pyc44m0000gp/T//ccFAVl1c.s 			page 2


  31:Cam/Src/ov5640_driver.c **** 	100*1024,	//WQVGA
  32:Cam/Src/ov5640_driver.c **** 	100*1024,	//CIF
  33:Cam/Src/ov5640_driver.c **** 	200*1024,	//VGA
  34:Cam/Src/ov5640_driver.c ****     400*1024,	//SVGA
  35:Cam/Src/ov5640_driver.c **** };
  36:Cam/Src/ov5640_driver.c **** 
  37:Cam/Src/ov5640_driver.c **** void ov5640_Init(void) {
  29              		.loc 1 37 24 view -0
  30              		.cfi_startproc
  31              		@ args = 0, pretend = 0, frame = 0
  32              		@ frame_needed = 0, uses_anonymous_args = 0
  33 0000 10B5     		push	{r4, lr}
  34              		.cfi_def_cfa_offset 8
  35              		.cfi_offset 4, -8
  36              		.cfi_offset 14, -4
  38:Cam/Src/ov5640_driver.c **** 	uint32_t index = 0;
  37              		.loc 1 38 2 view .LVU1
  38              	.LVL0:
  39:Cam/Src/ov5640_driver.c **** 	  for(index=0; index< (sizeof(OV5640_default_reg_settings)/4) ; index++)
  39              		.loc 1 39 4 view .LVU2
  40              		.loc 1 39 13 is_stmt 0 view .LVU3
  41 0002 0024     		movs	r4, #0
  42              		.loc 1 39 4 view .LVU4
  43 0004 09E0     		b	.L2
  44              	.LVL1:
  45              	.L3:
  40:Cam/Src/ov5640_driver.c **** 	  {
  41:Cam/Src/ov5640_driver.c **** 	    CAMERA_IO_Write_OV5640(OV5640_I2C_ADDRESS, OV5640_default_reg_settings[index][0], OV5640_defau
  46              		.loc 1 41 6 is_stmt 1 discriminator 3 view .LVU5
  47              		.loc 1 41 83 is_stmt 0 discriminator 3 view .LVU6
  48 0006 064B     		ldr	r3, .L5
  49              		.loc 1 41 122 discriminator 3 view .LVU7
  50 0008 03EB8402 		add	r2, r3, r4, lsl #2
  51              		.loc 1 41 6 discriminator 3 view .LVU8
  52 000c 9278     		ldrb	r2, [r2, #2]	@ zero_extendqisi2
  53 000e 33F82410 		ldrh	r1, [r3, r4, lsl #2]
  54 0012 7820     		movs	r0, #120
  55 0014 FFF7FEFF 		bl	CAMERA_IO_Write_OV5640
  56              	.LVL2:
  39:Cam/Src/ov5640_driver.c **** 	  for(index=0; index< (sizeof(OV5640_default_reg_settings)/4) ; index++)
  57              		.loc 1 39 71 is_stmt 1 discriminator 3 view .LVU9
  58 0018 0134     		adds	r4, r4, #1
  59              	.LVL3:
  60              	.L2:
  39:Cam/Src/ov5640_driver.c **** 	  for(index=0; index< (sizeof(OV5640_default_reg_settings)/4) ; index++)
  61              		.loc 1 39 22 discriminator 1 view .LVU10
  62 001a CE2C     		cmp	r4, #206
  63 001c F3D9     		bls	.L3
  42:Cam/Src/ov5640_driver.c **** 	  }
  43:Cam/Src/ov5640_driver.c **** }
  64              		.loc 1 43 1 is_stmt 0 view .LVU11
  65 001e 10BD     		pop	{r4, pc}
  66              	.LVL4:
  67              	.L6:
  68              		.loc 1 43 1 view .LVU12
  69              		.align	2
  70              	.L5:
ARM GAS  /var/folders/fz/x0kldt2j7vs_j4slv3pyc44m0000gp/T//ccFAVl1c.s 			page 3


  71 0020 00000000 		.word	OV5640_default_reg_settings
  72              		.cfi_endproc
  73              	.LFE144:
  75              		.section	.text.ov5640_Set_JPEG,"ax",%progbits
  76              		.align	1
  77              		.global	ov5640_Set_JPEG
  78              		.syntax unified
  79              		.thumb
  80              		.thumb_func
  82              	ov5640_Set_JPEG:
  83              	.LFB145:
  44:Cam/Src/ov5640_driver.c **** 
  45:Cam/Src/ov5640_driver.c **** void ov5640_Set_JPEG(void) {
  84              		.loc 1 45 28 is_stmt 1 view -0
  85              		.cfi_startproc
  86              		@ args = 0, pretend = 0, frame = 0
  87              		@ frame_needed = 0, uses_anonymous_args = 0
  88 0000 10B5     		push	{r4, lr}
  89              		.cfi_def_cfa_offset 8
  90              		.cfi_offset 4, -8
  91              		.cfi_offset 14, -4
  46:Cam/Src/ov5640_driver.c **** 	uint32_t index = 0;
  92              		.loc 1 46 2 view .LVU14
  93              	.LVL5:
  47:Cam/Src/ov5640_driver.c **** 	for(index=0; index<(sizeof(format_jpeg)/4); index++)
  94              		.loc 1 47 2 view .LVU15
  95              		.loc 1 47 11 is_stmt 0 view .LVU16
  96 0002 0024     		movs	r4, #0
  97              		.loc 1 47 2 view .LVU17
  98 0004 09E0     		b	.L8
  99              	.LVL6:
 100              	.L9:
  48:Cam/Src/ov5640_driver.c **** 	{
  49:Cam/Src/ov5640_driver.c **** 	   CAMERA_IO_Write_OV5640(OV5640_I2C_ADDRESS, format_jpeg[index][0], format_jpeg[index][1]);
 101              		.loc 1 49 5 is_stmt 1 discriminator 3 view .LVU18
 102              		.loc 1 49 66 is_stmt 0 discriminator 3 view .LVU19
 103 0006 064B     		ldr	r3, .L11
 104              		.loc 1 49 89 discriminator 3 view .LVU20
 105 0008 03EB8402 		add	r2, r3, r4, lsl #2
 106              		.loc 1 49 5 discriminator 3 view .LVU21
 107 000c 9278     		ldrb	r2, [r2, #2]	@ zero_extendqisi2
 108 000e 33F82410 		ldrh	r1, [r3, r4, lsl #2]
 109 0012 7820     		movs	r0, #120
 110 0014 FFF7FEFF 		bl	CAMERA_IO_Write_OV5640
 111              	.LVL7:
  47:Cam/Src/ov5640_driver.c **** 	for(index=0; index<(sizeof(format_jpeg)/4); index++)
 112              		.loc 1 47 51 is_stmt 1 discriminator 3 view .LVU22
 113 0018 0134     		adds	r4, r4, #1
 114              	.LVL8:
 115              	.L8:
  47:Cam/Src/ov5640_driver.c **** 	for(index=0; index<(sizeof(format_jpeg)/4); index++)
 116              		.loc 1 47 20 discriminator 1 view .LVU23
 117 001a 2C2C     		cmp	r4, #44
 118 001c F3D9     		bls	.L9
  50:Cam/Src/ov5640_driver.c **** 	}
  51:Cam/Src/ov5640_driver.c **** }
 119              		.loc 1 51 1 is_stmt 0 view .LVU24
ARM GAS  /var/folders/fz/x0kldt2j7vs_j4slv3pyc44m0000gp/T//ccFAVl1c.s 			page 4


 120 001e 10BD     		pop	{r4, pc}
 121              	.LVL9:
 122              	.L12:
 123              		.loc 1 51 1 view .LVU25
 124              		.align	2
 125              	.L11:
 126 0020 00000000 		.word	format_jpeg
 127              		.cfi_endproc
 128              	.LFE145:
 130              		.section	.text.ov5640_Set_RGB565,"ax",%progbits
 131              		.align	1
 132              		.global	ov5640_Set_RGB565
 133              		.syntax unified
 134              		.thumb
 135              		.thumb_func
 137              	ov5640_Set_RGB565:
 138              	.LFB146:
  52:Cam/Src/ov5640_driver.c **** 
  53:Cam/Src/ov5640_driver.c **** void ov5640_Set_RGB565(void) {
 139              		.loc 1 53 30 is_stmt 1 view -0
 140              		.cfi_startproc
 141              		@ args = 0, pretend = 0, frame = 0
 142              		@ frame_needed = 0, uses_anonymous_args = 0
 143              		@ link register save eliminated.
  54:Cam/Src/ov5640_driver.c **** 	uint32_t index = 0;
 144              		.loc 1 54 2 view .LVU27
 145              	.LVL10:
  55:Cam/Src/ov5640_driver.c **** 	for(index=0; index<(sizeof(format_rgb565)/4); index++)
 146              		.loc 1 55 2 view .LVU28
 147              		.loc 1 55 2 view .LVU29
  56:Cam/Src/ov5640_driver.c **** 	{
  57:Cam/Src/ov5640_driver.c **** 	   CAMERA_IO_Write_OV5640(OV5640_I2C_ADDRESS, format_rgb565[index][0], format_rgb565[index][1]);
  58:Cam/Src/ov5640_driver.c **** 	}
  59:Cam/Src/ov5640_driver.c **** }
 148              		.loc 1 59 1 is_stmt 0 view .LVU30
 149 0000 7047     		bx	lr
 150              		.cfi_endproc
 151              	.LFE146:
 153              		.section	.text.OV5640_SetPCLK,"ax",%progbits
 154              		.align	1
 155              		.global	OV5640_SetPCLK
 156              		.syntax unified
 157              		.thumb
 158              		.thumb_func
 160              	OV5640_SetPCLK:
 161              	.LVL11:
 162              	.LFB148:
  60:Cam/Src/ov5640_driver.c **** 
  61:Cam/Src/ov5640_driver.c **** void ov5640_Init_JPEG(uint16_t x_res, uint16_t y_res, uint16_t FifoWidth, uint16_t packetNumber, ui
  62:Cam/Src/ov5640_driver.c **** {
  63:Cam/Src/ov5640_driver.c **** 
  64:Cam/Src/ov5640_driver.c ****   uint8_t tmp = 0;
  65:Cam/Src/ov5640_driver.c ****   ov5640_Init(); 
  66:Cam/Src/ov5640_driver.c ****   HAL_Delay(50); 
  67:Cam/Src/ov5640_driver.c ****   ov5640_Set_JPEG();
  68:Cam/Src/ov5640_driver.c **** 
  69:Cam/Src/ov5640_driver.c ****   OV5640_Set_Size(4, 0, 320, 240);
ARM GAS  /var/folders/fz/x0kldt2j7vs_j4slv3pyc44m0000gp/T//ccFAVl1c.s 			page 5


  70:Cam/Src/ov5640_driver.c ****                     
  71:Cam/Src/ov5640_driver.c ****   CAMERA_IO_Write_OV5640(OV5640_I2C_ADDRESS, 0x3035,0X41); // slow down OV5640 clocks 
  72:Cam/Src/ov5640_driver.c ****   CAMERA_IO_Write_OV5640(OV5640_I2C_ADDRESS, 0x3036,0x79);  
  73:Cam/Src/ov5640_driver.c **** 
  74:Cam/Src/ov5640_driver.c ****   // //set timings
  75:Cam/Src/ov5640_driver.c **** 
  76:Cam/Src/ov5640_driver.c ****   // tmp = CAMERA_IO_Read_OV5640(OV5640_I2C_ADDRESS,OV5640_TIMING_TC_REG21);
  77:Cam/Src/ov5640_driver.c ****   // tmp |= (1 << 5);
  78:Cam/Src/ov5640_driver.c ****   // CAMERA_IO_Write_OV5640(OV5640_I2C_ADDRESS, OV5640_TIMING_TC_REG21, tmp);
  79:Cam/Src/ov5640_driver.c **** 
  80:Cam/Src/ov5640_driver.c ****   // tmp = CAMERA_IO_Read_OV5640(OV5640_I2C_ADDRESS,OV5640_SYSREM_RESET02);
  81:Cam/Src/ov5640_driver.c ****   // tmp &= ~((1 << 4) | (1 << 3) | (1 << 2));
  82:Cam/Src/ov5640_driver.c ****   // CAMERA_IO_Write_OV5640(OV5640_I2C_ADDRESS, OV5640_SYSREM_RESET02, tmp);
  83:Cam/Src/ov5640_driver.c **** 
  84:Cam/Src/ov5640_driver.c **** 
  85:Cam/Src/ov5640_driver.c ****   // tmp = CAMERA_IO_Read_OV5640(OV5640_I2C_ADDRESS,OV5640_CLOCK_ENABLE02);
  86:Cam/Src/ov5640_driver.c ****   // tmp |= ((1 << 5) | (1 << 3));
  87:Cam/Src/ov5640_driver.c ****   // CAMERA_IO_Write_OV5640(OV5640_I2C_ADDRESS, OV5640_CLOCK_ENABLE02, tmp);
  88:Cam/Src/ov5640_driver.c **** 
  89:Cam/Src/ov5640_driver.c ****   //set polaratis
  90:Cam/Src/ov5640_driver.c **** 
  91:Cam/Src/ov5640_driver.c ****   tmp = (uint8_t)(OV5640_POLARITY_PCLK_HIGH << 5U) | (OV5640_POLARITY_HREF_HIGH << 1U) | OV5640_POL
  92:Cam/Src/ov5640_driver.c ****   CAMERA_IO_Write_OV5640(OV5640_I2C_ADDRESS, OV5640_POLARITY_CTRL, tmp);
  93:Cam/Src/ov5640_driver.c **** 
  94:Cam/Src/ov5640_driver.c **** }
  95:Cam/Src/ov5640_driver.c **** 
  96:Cam/Src/ov5640_driver.c **** 
  97:Cam/Src/ov5640_driver.c **** 
  98:Cam/Src/ov5640_driver.c **** 
  99:Cam/Src/ov5640_driver.c **** 
 100:Cam/Src/ov5640_driver.c **** void OV5640_SetPCLK(uint32_t ClockValue)
 101:Cam/Src/ov5640_driver.c **** {
 163              		.loc 1 101 1 is_stmt 1 view -0
 164              		.cfi_startproc
 165              		@ args = 0, pretend = 0, frame = 0
 166              		@ frame_needed = 0, uses_anonymous_args = 0
 167              		.loc 1 101 1 is_stmt 0 view .LVU32
 168 0000 08B5     		push	{r3, lr}
 169              		.cfi_def_cfa_offset 8
 170              		.cfi_offset 3, -8
 171              		.cfi_offset 14, -4
 102:Cam/Src/ov5640_driver.c **** 
 103:Cam/Src/ov5640_driver.c **** 
 104:Cam/Src/ov5640_driver.c ****   switch(ClockValue)
 172              		.loc 1 104 3 is_stmt 1 view .LVU33
 173 0002 1928     		cmp	r0, #25
 174 0004 76D8     		bhi	.L15
 175 0006 DFE800F0 		tbb	[pc, r0]
 176              	.L17:
 177 000a 0D       		.byte	(.L24-.L17)/2
 178 000b 1A       		.byte	(.L23-.L17)/2
 179 000c 27       		.byte	(.L22-.L17)/2
 180 000d 75       		.byte	(.L15-.L17)/2
 181 000e 75       		.byte	(.L15-.L17)/2
 182 000f 75       		.byte	(.L15-.L17)/2
 183 0010 75       		.byte	(.L15-.L17)/2
 184 0011 75       		.byte	(.L15-.L17)/2
ARM GAS  /var/folders/fz/x0kldt2j7vs_j4slv3pyc44m0000gp/T//ccFAVl1c.s 			page 6


 185 0012 34       		.byte	(.L21-.L17)/2
 186 0013 75       		.byte	(.L15-.L17)/2
 187 0014 75       		.byte	(.L15-.L17)/2
 188 0015 75       		.byte	(.L15-.L17)/2
 189 0016 75       		.byte	(.L15-.L17)/2
 190 0017 75       		.byte	(.L15-.L17)/2
 191 0018 75       		.byte	(.L15-.L17)/2
 192 0019 41       		.byte	(.L20-.L17)/2
 193 001a 75       		.byte	(.L15-.L17)/2
 194 001b 75       		.byte	(.L15-.L17)/2
 195 001c 75       		.byte	(.L15-.L17)/2
 196 001d 75       		.byte	(.L15-.L17)/2
 197 001e 5B       		.byte	(.L19-.L17)/2
 198 001f 75       		.byte	(.L15-.L17)/2
 199 0020 75       		.byte	(.L15-.L17)/2
 200 0021 4E       		.byte	(.L18-.L17)/2
 201 0022 75       		.byte	(.L15-.L17)/2
 202 0023 68       		.byte	(.L16-.L17)/2
 203              		.p2align 1
 204              	.L24:
 105:Cam/Src/ov5640_driver.c ****   {
 106:Cam/Src/ov5640_driver.c ****   case OV5640_PCLK_7M:
 107:Cam/Src/ov5640_driver.c ****  
 108:Cam/Src/ov5640_driver.c ****     CAMERA_IO_Write_OV5640(OV5640_I2C_ADDRESS, OV5640_SC_PLL_CONTRL2, 0x38);
 205              		.loc 1 108 5 view .LVU34
 206 0024 3822     		movs	r2, #56
 207 0026 43F23601 		movw	r1, #12342
 208 002a 7820     		movs	r0, #120
 209              	.LVL12:
 210              		.loc 1 108 5 is_stmt 0 view .LVU35
 211 002c FFF7FEFF 		bl	CAMERA_IO_Write_OV5640
 212              	.LVL13:
 109:Cam/Src/ov5640_driver.c ****     CAMERA_IO_Write_OV5640(OV5640_I2C_ADDRESS, OV5640_SC_PLL_CONTRL3, 0x16);
 213              		.loc 1 109 5 is_stmt 1 view .LVU36
 214 0030 1622     		movs	r2, #22
 215 0032 43F23701 		movw	r1, #12343
 216 0036 7820     		movs	r0, #120
 217 0038 FFF7FEFF 		bl	CAMERA_IO_Write_OV5640
 218              	.LVL14:
 110:Cam/Src/ov5640_driver.c ****     break;
 219              		.loc 1 110 5 view .LVU37
 220              	.L14:
 111:Cam/Src/ov5640_driver.c ****   case OV5640_PCLK_8M:
 112:Cam/Src/ov5640_driver.c ****     CAMERA_IO_Write_OV5640(OV5640_I2C_ADDRESS, OV5640_SC_PLL_CONTRL2, 0x40);
 113:Cam/Src/ov5640_driver.c ****     CAMERA_IO_Write_OV5640(OV5640_I2C_ADDRESS, OV5640_SC_PLL_CONTRL3, 0x16);
 114:Cam/Src/ov5640_driver.c ****     break;
 115:Cam/Src/ov5640_driver.c ****   case OV5640_PCLK_9M:
 116:Cam/Src/ov5640_driver.c **** 	  CAMERA_IO_Write_OV5640(OV5640_I2C_ADDRESS, OV5640_SC_PLL_CONTRL2, 0x00);
 117:Cam/Src/ov5640_driver.c ****     CAMERA_IO_Write_OV5640(OV5640_I2C_ADDRESS, OV5640_SC_PLL_CONTRL3, 0x18);
 118:Cam/Src/ov5640_driver.c ****     break;
 119:Cam/Src/ov5640_driver.c ****   case OV5640_PCLK_12M:
 120:Cam/Src/ov5640_driver.c **** 	  CAMERA_IO_Write_OV5640(OV5640_I2C_ADDRESS, OV5640_SC_PLL_CONTRL2, 0x00);
 121:Cam/Src/ov5640_driver.c ****     CAMERA_IO_Write_OV5640(OV5640_I2C_ADDRESS, OV5640_SC_PLL_CONTRL3, 0x16);
 122:Cam/Src/ov5640_driver.c ****     break;
 123:Cam/Src/ov5640_driver.c ****   case OV5640_PCLK_24M:
 124:Cam/Src/ov5640_driver.c ****     CAMERA_IO_Write_OV5640(OV5640_I2C_ADDRESS, OV5640_SC_PLL_CONTRL2, 0x60);
 125:Cam/Src/ov5640_driver.c ****     CAMERA_IO_Write_OV5640(OV5640_I2C_ADDRESS, OV5640_SC_PLL_CONTRL3, 0x13);
ARM GAS  /var/folders/fz/x0kldt2j7vs_j4slv3pyc44m0000gp/T//ccFAVl1c.s 			page 7


 126:Cam/Src/ov5640_driver.c ****     break;
 127:Cam/Src/ov5640_driver.c **** 
 128:Cam/Src/ov5640_driver.c ****    case OV5640_PCLK_23FPS:
 129:Cam/Src/ov5640_driver.c ****     CAMERA_IO_Write_OV5640(OV5640_I2C_ADDRESS, OV5640_SC_PLL_CONTRL2, 0x60);
 130:Cam/Src/ov5640_driver.c ****     CAMERA_IO_Write_OV5640(OV5640_I2C_ADDRESS, OV5640_SC_PLL_CONTRL3, 0x12);
 131:Cam/Src/ov5640_driver.c ****     break;
 132:Cam/Src/ov5640_driver.c **** 
 133:Cam/Src/ov5640_driver.c ****     case 20:
 134:Cam/Src/ov5640_driver.c ****     CAMERA_IO_Write_OV5640(OV5640_I2C_ADDRESS, OV5640_SC_PLL_CONTRL2, 0x80);
 135:Cam/Src/ov5640_driver.c ****     CAMERA_IO_Write_OV5640(OV5640_I2C_ADDRESS, OV5640_SC_PLL_CONTRL3, 0x13);
 136:Cam/Src/ov5640_driver.c ****     break;
 137:Cam/Src/ov5640_driver.c **** 
 138:Cam/Src/ov5640_driver.c ****     case 25:
 139:Cam/Src/ov5640_driver.c ****     CAMERA_IO_Write_OV5640(OV5640_I2C_ADDRESS, OV5640_SC_PLL_CONTRL2, 0xA0);
 140:Cam/Src/ov5640_driver.c ****     CAMERA_IO_Write_OV5640(OV5640_I2C_ADDRESS, OV5640_SC_PLL_CONTRL3, 0x13);
 141:Cam/Src/ov5640_driver.c ****     break;
 142:Cam/Src/ov5640_driver.c **** 
 143:Cam/Src/ov5640_driver.c ****     case 30:
 144:Cam/Src/ov5640_driver.c ****      default:
 145:Cam/Src/ov5640_driver.c ****     CAMERA_IO_Write_OV5640(OV5640_I2C_ADDRESS, OV5640_SC_PLL_CONTRL2, 0xC0);
 146:Cam/Src/ov5640_driver.c ****     CAMERA_IO_Write_OV5640(OV5640_I2C_ADDRESS, OV5640_SC_PLL_CONTRL3, 0x13);
 147:Cam/Src/ov5640_driver.c ****     break;
 148:Cam/Src/ov5640_driver.c **** 
 149:Cam/Src/ov5640_driver.c **** 
 150:Cam/Src/ov5640_driver.c **** 
 151:Cam/Src/ov5640_driver.c ****   }
 152:Cam/Src/ov5640_driver.c **** }
 221              		.loc 1 152 1 is_stmt 0 view .LVU38
 222 003c 08BD     		pop	{r3, pc}
 223              	.LVL15:
 224              	.L23:
 112:Cam/Src/ov5640_driver.c ****     CAMERA_IO_Write_OV5640(OV5640_I2C_ADDRESS, OV5640_SC_PLL_CONTRL3, 0x16);
 225              		.loc 1 112 5 is_stmt 1 view .LVU39
 226 003e 4022     		movs	r2, #64
 227 0040 43F23601 		movw	r1, #12342
 228 0044 7820     		movs	r0, #120
 229              	.LVL16:
 112:Cam/Src/ov5640_driver.c ****     CAMERA_IO_Write_OV5640(OV5640_I2C_ADDRESS, OV5640_SC_PLL_CONTRL3, 0x16);
 230              		.loc 1 112 5 is_stmt 0 view .LVU40
 231 0046 FFF7FEFF 		bl	CAMERA_IO_Write_OV5640
 232              	.LVL17:
 113:Cam/Src/ov5640_driver.c ****     break;
 233              		.loc 1 113 5 is_stmt 1 view .LVU41
 234 004a 1622     		movs	r2, #22
 235 004c 43F23701 		movw	r1, #12343
 236 0050 7820     		movs	r0, #120
 237 0052 FFF7FEFF 		bl	CAMERA_IO_Write_OV5640
 238              	.LVL18:
 114:Cam/Src/ov5640_driver.c ****   case OV5640_PCLK_9M:
 239              		.loc 1 114 5 view .LVU42
 240 0056 F1E7     		b	.L14
 241              	.LVL19:
 242              	.L22:
 116:Cam/Src/ov5640_driver.c ****     CAMERA_IO_Write_OV5640(OV5640_I2C_ADDRESS, OV5640_SC_PLL_CONTRL3, 0x18);
 243              		.loc 1 116 4 view .LVU43
 244 0058 0022     		movs	r2, #0
 245 005a 43F23601 		movw	r1, #12342
ARM GAS  /var/folders/fz/x0kldt2j7vs_j4slv3pyc44m0000gp/T//ccFAVl1c.s 			page 8


 246 005e 7820     		movs	r0, #120
 247              	.LVL20:
 116:Cam/Src/ov5640_driver.c ****     CAMERA_IO_Write_OV5640(OV5640_I2C_ADDRESS, OV5640_SC_PLL_CONTRL3, 0x18);
 248              		.loc 1 116 4 is_stmt 0 view .LVU44
 249 0060 FFF7FEFF 		bl	CAMERA_IO_Write_OV5640
 250              	.LVL21:
 117:Cam/Src/ov5640_driver.c ****     break;
 251              		.loc 1 117 5 is_stmt 1 view .LVU45
 252 0064 1822     		movs	r2, #24
 253 0066 43F23701 		movw	r1, #12343
 254 006a 7820     		movs	r0, #120
 255 006c FFF7FEFF 		bl	CAMERA_IO_Write_OV5640
 256              	.LVL22:
 118:Cam/Src/ov5640_driver.c ****   case OV5640_PCLK_12M:
 257              		.loc 1 118 5 view .LVU46
 258 0070 E4E7     		b	.L14
 259              	.LVL23:
 260              	.L21:
 120:Cam/Src/ov5640_driver.c ****     CAMERA_IO_Write_OV5640(OV5640_I2C_ADDRESS, OV5640_SC_PLL_CONTRL3, 0x16);
 261              		.loc 1 120 4 view .LVU47
 262 0072 0022     		movs	r2, #0
 263 0074 43F23601 		movw	r1, #12342
 264 0078 7820     		movs	r0, #120
 265              	.LVL24:
 120:Cam/Src/ov5640_driver.c ****     CAMERA_IO_Write_OV5640(OV5640_I2C_ADDRESS, OV5640_SC_PLL_CONTRL3, 0x16);
 266              		.loc 1 120 4 is_stmt 0 view .LVU48
 267 007a FFF7FEFF 		bl	CAMERA_IO_Write_OV5640
 268              	.LVL25:
 121:Cam/Src/ov5640_driver.c ****     break;
 269              		.loc 1 121 5 is_stmt 1 view .LVU49
 270 007e 1622     		movs	r2, #22
 271 0080 43F23701 		movw	r1, #12343
 272 0084 7820     		movs	r0, #120
 273 0086 FFF7FEFF 		bl	CAMERA_IO_Write_OV5640
 274              	.LVL26:
 122:Cam/Src/ov5640_driver.c ****   case OV5640_PCLK_24M:
 275              		.loc 1 122 5 view .LVU50
 276 008a D7E7     		b	.L14
 277              	.LVL27:
 278              	.L20:
 124:Cam/Src/ov5640_driver.c ****     CAMERA_IO_Write_OV5640(OV5640_I2C_ADDRESS, OV5640_SC_PLL_CONTRL3, 0x13);
 279              		.loc 1 124 5 view .LVU51
 280 008c 6022     		movs	r2, #96
 281 008e 43F23601 		movw	r1, #12342
 282 0092 7820     		movs	r0, #120
 283              	.LVL28:
 124:Cam/Src/ov5640_driver.c ****     CAMERA_IO_Write_OV5640(OV5640_I2C_ADDRESS, OV5640_SC_PLL_CONTRL3, 0x13);
 284              		.loc 1 124 5 is_stmt 0 view .LVU52
 285 0094 FFF7FEFF 		bl	CAMERA_IO_Write_OV5640
 286              	.LVL29:
 125:Cam/Src/ov5640_driver.c ****     break;
 287              		.loc 1 125 5 is_stmt 1 view .LVU53
 288 0098 1322     		movs	r2, #19
 289 009a 43F23701 		movw	r1, #12343
 290 009e 7820     		movs	r0, #120
 291 00a0 FFF7FEFF 		bl	CAMERA_IO_Write_OV5640
 292              	.LVL30:
ARM GAS  /var/folders/fz/x0kldt2j7vs_j4slv3pyc44m0000gp/T//ccFAVl1c.s 			page 9


 126:Cam/Src/ov5640_driver.c **** 
 293              		.loc 1 126 5 view .LVU54
 294 00a4 CAE7     		b	.L14
 295              	.LVL31:
 296              	.L18:
 129:Cam/Src/ov5640_driver.c ****     CAMERA_IO_Write_OV5640(OV5640_I2C_ADDRESS, OV5640_SC_PLL_CONTRL3, 0x12);
 297              		.loc 1 129 5 view .LVU55
 298 00a6 6022     		movs	r2, #96
 299 00a8 43F23601 		movw	r1, #12342
 300 00ac 7820     		movs	r0, #120
 301              	.LVL32:
 129:Cam/Src/ov5640_driver.c ****     CAMERA_IO_Write_OV5640(OV5640_I2C_ADDRESS, OV5640_SC_PLL_CONTRL3, 0x12);
 302              		.loc 1 129 5 is_stmt 0 view .LVU56
 303 00ae FFF7FEFF 		bl	CAMERA_IO_Write_OV5640
 304              	.LVL33:
 130:Cam/Src/ov5640_driver.c ****     break;
 305              		.loc 1 130 5 is_stmt 1 view .LVU57
 306 00b2 1222     		movs	r2, #18
 307 00b4 43F23701 		movw	r1, #12343
 308 00b8 7820     		movs	r0, #120
 309 00ba FFF7FEFF 		bl	CAMERA_IO_Write_OV5640
 310              	.LVL34:
 131:Cam/Src/ov5640_driver.c **** 
 311              		.loc 1 131 5 view .LVU58
 312 00be BDE7     		b	.L14
 313              	.LVL35:
 314              	.L19:
 134:Cam/Src/ov5640_driver.c ****     CAMERA_IO_Write_OV5640(OV5640_I2C_ADDRESS, OV5640_SC_PLL_CONTRL3, 0x13);
 315              		.loc 1 134 5 view .LVU59
 316 00c0 8022     		movs	r2, #128
 317 00c2 43F23601 		movw	r1, #12342
 318 00c6 7820     		movs	r0, #120
 319              	.LVL36:
 134:Cam/Src/ov5640_driver.c ****     CAMERA_IO_Write_OV5640(OV5640_I2C_ADDRESS, OV5640_SC_PLL_CONTRL3, 0x13);
 320              		.loc 1 134 5 is_stmt 0 view .LVU60
 321 00c8 FFF7FEFF 		bl	CAMERA_IO_Write_OV5640
 322              	.LVL37:
 135:Cam/Src/ov5640_driver.c ****     break;
 323              		.loc 1 135 5 is_stmt 1 view .LVU61
 324 00cc 1322     		movs	r2, #19
 325 00ce 43F23701 		movw	r1, #12343
 326 00d2 7820     		movs	r0, #120
 327 00d4 FFF7FEFF 		bl	CAMERA_IO_Write_OV5640
 328              	.LVL38:
 136:Cam/Src/ov5640_driver.c **** 
 329              		.loc 1 136 5 view .LVU62
 330 00d8 B0E7     		b	.L14
 331              	.LVL39:
 332              	.L16:
 139:Cam/Src/ov5640_driver.c ****     CAMERA_IO_Write_OV5640(OV5640_I2C_ADDRESS, OV5640_SC_PLL_CONTRL3, 0x13);
 333              		.loc 1 139 5 view .LVU63
 334 00da A022     		movs	r2, #160
 335 00dc 43F23601 		movw	r1, #12342
 336 00e0 7820     		movs	r0, #120
 337              	.LVL40:
 139:Cam/Src/ov5640_driver.c ****     CAMERA_IO_Write_OV5640(OV5640_I2C_ADDRESS, OV5640_SC_PLL_CONTRL3, 0x13);
 338              		.loc 1 139 5 is_stmt 0 view .LVU64
ARM GAS  /var/folders/fz/x0kldt2j7vs_j4slv3pyc44m0000gp/T//ccFAVl1c.s 			page 10


 339 00e2 FFF7FEFF 		bl	CAMERA_IO_Write_OV5640
 340              	.LVL41:
 140:Cam/Src/ov5640_driver.c ****     break;
 341              		.loc 1 140 5 is_stmt 1 view .LVU65
 342 00e6 1322     		movs	r2, #19
 343 00e8 43F23701 		movw	r1, #12343
 344 00ec 7820     		movs	r0, #120
 345 00ee FFF7FEFF 		bl	CAMERA_IO_Write_OV5640
 346              	.LVL42:
 141:Cam/Src/ov5640_driver.c **** 
 347              		.loc 1 141 5 view .LVU66
 348 00f2 A3E7     		b	.L14
 349              	.LVL43:
 350              	.L15:
 145:Cam/Src/ov5640_driver.c ****     CAMERA_IO_Write_OV5640(OV5640_I2C_ADDRESS, OV5640_SC_PLL_CONTRL3, 0x13);
 351              		.loc 1 145 5 view .LVU67
 352 00f4 C022     		movs	r2, #192
 353 00f6 43F23601 		movw	r1, #12342
 354 00fa 7820     		movs	r0, #120
 355              	.LVL44:
 145:Cam/Src/ov5640_driver.c ****     CAMERA_IO_Write_OV5640(OV5640_I2C_ADDRESS, OV5640_SC_PLL_CONTRL3, 0x13);
 356              		.loc 1 145 5 is_stmt 0 view .LVU68
 357 00fc FFF7FEFF 		bl	CAMERA_IO_Write_OV5640
 358              	.LVL45:
 146:Cam/Src/ov5640_driver.c ****     break;
 359              		.loc 1 146 5 is_stmt 1 view .LVU69
 360 0100 1322     		movs	r2, #19
 361 0102 43F23701 		movw	r1, #12343
 362 0106 7820     		movs	r0, #120
 363 0108 FFF7FEFF 		bl	CAMERA_IO_Write_OV5640
 364              	.LVL46:
 147:Cam/Src/ov5640_driver.c **** 
 365              		.loc 1 147 5 view .LVU70
 366              		.loc 1 152 1 is_stmt 0 view .LVU71
 367 010c 96E7     		b	.L14
 368              		.cfi_endproc
 369              	.LFE148:
 371              		.section	.text.ov5640_ReadID,"ax",%progbits
 372              		.align	1
 373              		.global	ov5640_ReadID
 374              		.syntax unified
 375              		.thumb
 376              		.thumb_func
 378              	ov5640_ReadID:
 379              	.LFB150:
 153:Cam/Src/ov5640_driver.c **** 
 154:Cam/Src/ov5640_driver.c **** 
 155:Cam/Src/ov5640_driver.c **** void ov5640_Init_RGB565(uint16_t x_res, uint16_t y_res)
 156:Cam/Src/ov5640_driver.c **** {
 157:Cam/Src/ov5640_driver.c ****   ov5640_Init();
 158:Cam/Src/ov5640_driver.c ****   OV5640_Set_Size(4, 0, x_res, y_res);
 159:Cam/Src/ov5640_driver.c ****   ov5640_Set_RGB565();
 160:Cam/Src/ov5640_driver.c ****   OV5640_SetPCLK(OV5640_PCLK_24M);
 161:Cam/Src/ov5640_driver.c **** 
 162:Cam/Src/ov5640_driver.c **** }
 163:Cam/Src/ov5640_driver.c **** 
 164:Cam/Src/ov5640_driver.c **** uint16_t ov5640_ReadID(void)
ARM GAS  /var/folders/fz/x0kldt2j7vs_j4slv3pyc44m0000gp/T//ccFAVl1c.s 			page 11


 165:Cam/Src/ov5640_driver.c **** {
 380              		.loc 1 165 1 is_stmt 1 view -0
 381              		.cfi_startproc
 382              		@ args = 0, pretend = 0, frame = 0
 383              		@ frame_needed = 0, uses_anonymous_args = 0
 384 0000 10B5     		push	{r4, lr}
 385              		.cfi_def_cfa_offset 8
 386              		.cfi_offset 4, -8
 387              		.cfi_offset 14, -4
 166:Cam/Src/ov5640_driver.c ****   uint16_t read_val = 0;
 388              		.loc 1 166 3 view .LVU73
 389              	.LVL47:
 167:Cam/Src/ov5640_driver.c **** 
 168:Cam/Src/ov5640_driver.c ****   /* Initialize I2C */
 169:Cam/Src/ov5640_driver.c ****   CAMERA_IO_Init();
 390              		.loc 1 169 3 view .LVU74
 391 0002 FFF7FEFF 		bl	CAMERA_IO_Init
 392              	.LVL48:
 170:Cam/Src/ov5640_driver.c ****   CAMERA_Delay(30);
 393              		.loc 1 170 3 view .LVU75
 394 0006 1E20     		movs	r0, #30
 395 0008 FFF7FEFF 		bl	CAMERA_Delay
 396              	.LVL49:
 171:Cam/Src/ov5640_driver.c ****   read_val = CAMERA_IO_Read_OV5640(OV5640_I2C_ADDRESS, 0x300A);
 397              		.loc 1 171 3 view .LVU76
 398              		.loc 1 171 14 is_stmt 0 view .LVU77
 399 000c 43F20A01 		movw	r1, #12298
 400 0010 7820     		movs	r0, #120
 401 0012 FFF7FEFF 		bl	CAMERA_IO_Read_OV5640
 402              	.LVL50:
 172:Cam/Src/ov5640_driver.c ****   read_val = read_val << 8;
 403              		.loc 1 172 3 is_stmt 1 view .LVU78
 404              		.loc 1 172 12 is_stmt 0 view .LVU79
 405 0016 0402     		lsls	r4, r0, #8
 406 0018 A4B2     		uxth	r4, r4
 407              	.LVL51:
 173:Cam/Src/ov5640_driver.c ****   read_val |= CAMERA_IO_Read_OV5640(OV5640_I2C_ADDRESS, 0x300B);
 408              		.loc 1 173 3 is_stmt 1 view .LVU80
 409              		.loc 1 173 15 is_stmt 0 view .LVU81
 410 001a 43F20B01 		movw	r1, #12299
 411 001e 7820     		movs	r0, #120
 412 0020 FFF7FEFF 		bl	CAMERA_IO_Read_OV5640
 413              	.LVL52:
 414              		.loc 1 173 12 view .LVU82
 415 0024 0443     		orrs	r4, r4, r0
 416              	.LVL53:
 417              		.loc 1 173 12 view .LVU83
 418 0026 A4B2     		uxth	r4, r4
 419              	.LVL54:
 174:Cam/Src/ov5640_driver.c **** 
 175:Cam/Src/ov5640_driver.c ****   /* Prepare the camera to be configured */
 176:Cam/Src/ov5640_driver.c ****   CAMERA_IO_Write_OV5640(OV5640_I2C_ADDRESS, 0x3103, 0x11);	//system clock from pad, bit[1]
 420              		.loc 1 176 3 is_stmt 1 view .LVU84
 421 0028 1122     		movs	r2, #17
 422 002a 43F20311 		movw	r1, #12547
 423 002e 7820     		movs	r0, #120
 424 0030 FFF7FEFF 		bl	CAMERA_IO_Write_OV5640
ARM GAS  /var/folders/fz/x0kldt2j7vs_j4slv3pyc44m0000gp/T//ccFAVl1c.s 			page 12


 425              	.LVL55:
 177:Cam/Src/ov5640_driver.c ****   CAMERA_IO_Write_OV5640(OV5640_I2C_ADDRESS, SYSTEM_CTROL0, 0x80);
 426              		.loc 1 177 3 view .LVU85
 427 0034 8022     		movs	r2, #128
 428 0036 43F20801 		movw	r1, #12296
 429 003a 7820     		movs	r0, #120
 430 003c FFF7FEFF 		bl	CAMERA_IO_Write_OV5640
 431              	.LVL56:
 178:Cam/Src/ov5640_driver.c ****   CAMERA_Delay(10);
 432              		.loc 1 178 3 view .LVU86
 433 0040 0A20     		movs	r0, #10
 434 0042 FFF7FEFF 		bl	CAMERA_Delay
 435              	.LVL57:
 179:Cam/Src/ov5640_driver.c **** 
 180:Cam/Src/ov5640_driver.c ****   //HAL_Delay(10);
 181:Cam/Src/ov5640_driver.c ****   /* Get the camera ID */
 182:Cam/Src/ov5640_driver.c ****   return read_val;
 436              		.loc 1 182 3 view .LVU87
 183:Cam/Src/ov5640_driver.c **** }
 437              		.loc 1 183 1 is_stmt 0 view .LVU88
 438 0046 2046     		mov	r0, r4
 439 0048 10BD     		pop	{r4, pc}
 440              		.loc 1 183 1 view .LVU89
 441              		.cfi_endproc
 442              	.LFE150:
 444              		.section	.text.OV5640_Set_Size,"ax",%progbits
 445              		.align	1
 446              		.global	OV5640_Set_Size
 447              		.syntax unified
 448              		.thumb
 449              		.thumb_func
 451              	OV5640_Set_Size:
 452              	.LVL58:
 453              	.LFB151:
 184:Cam/Src/ov5640_driver.c **** 
 185:Cam/Src/ov5640_driver.c **** void OV5640_Set_Size(uint16_t offx,uint16_t offy,uint16_t width,uint16_t height)
 186:Cam/Src/ov5640_driver.c **** {
 454              		.loc 1 186 1 is_stmt 1 view -0
 455              		.cfi_startproc
 456              		@ args = 0, pretend = 0, frame = 0
 457              		@ frame_needed = 0, uses_anonymous_args = 0
 458              		.loc 1 186 1 is_stmt 0 view .LVU91
 459 0000 F8B5     		push	{r3, r4, r5, r6, r7, lr}
 460              		.cfi_def_cfa_offset 24
 461              		.cfi_offset 3, -24
 462              		.cfi_offset 4, -20
 463              		.cfi_offset 5, -16
 464              		.cfi_offset 6, -12
 465              		.cfi_offset 7, -8
 466              		.cfi_offset 14, -4
 467 0002 0546     		mov	r5, r0
 468 0004 0C46     		mov	r4, r1
 469 0006 1746     		mov	r7, r2
 470 0008 1E46     		mov	r6, r3
 187:Cam/Src/ov5640_driver.c **** 
 188:Cam/Src/ov5640_driver.c ****   //@REVIST --check register initilisatio
 189:Cam/Src/ov5640_driver.c **** 		CAMERA_IO_Write_OV5640(OV5640_I2C_ADDRESS, OV5640_SRM_GROUP_ACCESS,0X03);
ARM GAS  /var/folders/fz/x0kldt2j7vs_j4slv3pyc44m0000gp/T//ccFAVl1c.s 			page 13


 471              		.loc 1 189 3 is_stmt 1 view .LVU92
 472 000a 0322     		movs	r2, #3
 473              	.LVL59:
 474              		.loc 1 189 3 is_stmt 0 view .LVU93
 475 000c 43F21221 		movw	r1, #12818
 476              	.LVL60:
 477              		.loc 1 189 3 view .LVU94
 478 0010 7820     		movs	r0, #120
 479              	.LVL61:
 480              		.loc 1 189 3 view .LVU95
 481 0012 FFF7FEFF 		bl	CAMERA_IO_Write_OV5640
 482              	.LVL62:
 190:Cam/Src/ov5640_driver.c **** 
 191:Cam/Src/ov5640_driver.c **** 		CAMERA_IO_Write_OV5640(OV5640_I2C_ADDRESS, X_OUTPUT_SIZE_H, width >> 8);
 483              		.loc 1 191 3 is_stmt 1 view .LVU96
 484 0016 3A0A     		lsrs	r2, r7, #8
 485 0018 43F60801 		movw	r1, #14344
 486 001c 7820     		movs	r0, #120
 487 001e FFF7FEFF 		bl	CAMERA_IO_Write_OV5640
 488              	.LVL63:
 192:Cam/Src/ov5640_driver.c **** 		CAMERA_IO_Write_OV5640(OV5640_I2C_ADDRESS, X_OUTPUT_SIZE_L, width &0xff);
 489              		.loc 1 192 3 view .LVU97
 490 0022 FAB2     		uxtb	r2, r7
 491 0024 43F60901 		movw	r1, #14345
 492 0028 7820     		movs	r0, #120
 493 002a FFF7FEFF 		bl	CAMERA_IO_Write_OV5640
 494              	.LVL64:
 193:Cam/Src/ov5640_driver.c **** 		CAMERA_IO_Write_OV5640(OV5640_I2C_ADDRESS, Y_OUTPUT_SIZE_H, height >> 8);
 495              		.loc 1 193 3 view .LVU98
 496 002e 320A     		lsrs	r2, r6, #8
 497 0030 43F60A01 		movw	r1, #14346
 498 0034 7820     		movs	r0, #120
 499 0036 FFF7FEFF 		bl	CAMERA_IO_Write_OV5640
 500              	.LVL65:
 194:Cam/Src/ov5640_driver.c **** 		CAMERA_IO_Write_OV5640(OV5640_I2C_ADDRESS, Y_OUTPUT_SIZE_L, height &0xff);
 501              		.loc 1 194 3 view .LVU99
 502 003a F2B2     		uxtb	r2, r6
 503 003c 43F60B01 		movw	r1, #14347
 504 0040 7820     		movs	r0, #120
 505 0042 FFF7FEFF 		bl	CAMERA_IO_Write_OV5640
 506              	.LVL66:
 195:Cam/Src/ov5640_driver.c **** 
 196:Cam/Src/ov5640_driver.c **** 		CAMERA_IO_Write_OV5640(OV5640_I2C_ADDRESS, OV5640_TIMING_HOFFSET_HIGH, offx >> 8);
 507              		.loc 1 196 3 view .LVU100
 508 0046 2A0A     		lsrs	r2, r5, #8
 509 0048 43F61001 		movw	r1, #14352
 510 004c 7820     		movs	r0, #120
 511 004e FFF7FEFF 		bl	CAMERA_IO_Write_OV5640
 512              	.LVL67:
 197:Cam/Src/ov5640_driver.c **** 		CAMERA_IO_Write_OV5640(OV5640_I2C_ADDRESS, OV5640_TIMING_HOFFSET_LOW, offx &0xff);
 513              		.loc 1 197 3 view .LVU101
 514 0052 EAB2     		uxtb	r2, r5
 515 0054 43F61101 		movw	r1, #14353
 516 0058 7820     		movs	r0, #120
 517 005a FFF7FEFF 		bl	CAMERA_IO_Write_OV5640
 518              	.LVL68:
 198:Cam/Src/ov5640_driver.c **** 
ARM GAS  /var/folders/fz/x0kldt2j7vs_j4slv3pyc44m0000gp/T//ccFAVl1c.s 			page 14


 199:Cam/Src/ov5640_driver.c **** 		CAMERA_IO_Write_OV5640(OV5640_I2C_ADDRESS, Y_OFFSET_H, offy >> 8);
 519              		.loc 1 199 3 view .LVU102
 520 005e 220A     		lsrs	r2, r4, #8
 521 0060 43F61201 		movw	r1, #14354
 522 0064 7820     		movs	r0, #120
 523 0066 FFF7FEFF 		bl	CAMERA_IO_Write_OV5640
 524              	.LVL69:
 200:Cam/Src/ov5640_driver.c **** 		CAMERA_IO_Write_OV5640(OV5640_I2C_ADDRESS, Y_OFFSET_L, offy &0xff);
 525              		.loc 1 200 3 view .LVU103
 526 006a E2B2     		uxtb	r2, r4
 527 006c 43F61301 		movw	r1, #14355
 528 0070 7820     		movs	r0, #120
 529 0072 FFF7FEFF 		bl	CAMERA_IO_Write_OV5640
 530              	.LVL70:
 201:Cam/Src/ov5640_driver.c **** 
 202:Cam/Src/ov5640_driver.c **** 		CAMERA_IO_Write_OV5640(OV5640_I2C_ADDRESS, OV5640_SRM_GROUP_ACCESS, 0x13);
 531              		.loc 1 202 3 view .LVU104
 532 0076 1322     		movs	r2, #19
 533 0078 43F21221 		movw	r1, #12818
 534 007c 7820     		movs	r0, #120
 535 007e FFF7FEFF 		bl	CAMERA_IO_Write_OV5640
 536              	.LVL71:
 203:Cam/Src/ov5640_driver.c **** 		CAMERA_IO_Write_OV5640(OV5640_I2C_ADDRESS, OV5640_SRM_GROUP_ACCESS, 0xa3);
 537              		.loc 1 203 3 view .LVU105
 538 0082 A322     		movs	r2, #163
 539 0084 43F21221 		movw	r1, #12818
 540 0088 7820     		movs	r0, #120
 541 008a FFF7FEFF 		bl	CAMERA_IO_Write_OV5640
 542              	.LVL72:
 204:Cam/Src/ov5640_driver.c **** 
 205:Cam/Src/ov5640_driver.c ****       
 206:Cam/Src/ov5640_driver.c **** }
 543              		.loc 1 206 1 is_stmt 0 view .LVU106
 544 008e F8BD     		pop	{r3, r4, r5, r6, r7, pc}
 545              		.cfi_endproc
 546              	.LFE151:
 548              		.section	.text.ov5640_Init_JPEG,"ax",%progbits
 549              		.align	1
 550              		.global	ov5640_Init_JPEG
 551              		.syntax unified
 552              		.thumb
 553              		.thumb_func
 555              	ov5640_Init_JPEG:
 556              	.LVL73:
 557              	.LFB147:
  62:Cam/Src/ov5640_driver.c **** 
 558              		.loc 1 62 1 is_stmt 1 view -0
 559              		.cfi_startproc
 560              		@ args = 4, pretend = 0, frame = 0
 561              		@ frame_needed = 0, uses_anonymous_args = 0
  62:Cam/Src/ov5640_driver.c **** 
 562              		.loc 1 62 1 is_stmt 0 view .LVU108
 563 0000 08B5     		push	{r3, lr}
 564              		.cfi_def_cfa_offset 8
 565              		.cfi_offset 3, -8
 566              		.cfi_offset 14, -4
  64:Cam/Src/ov5640_driver.c ****   ov5640_Init(); 
ARM GAS  /var/folders/fz/x0kldt2j7vs_j4slv3pyc44m0000gp/T//ccFAVl1c.s 			page 15


 567              		.loc 1 64 3 is_stmt 1 view .LVU109
 568              	.LVL74:
  65:Cam/Src/ov5640_driver.c ****   HAL_Delay(50); 
 569              		.loc 1 65 3 view .LVU110
 570 0002 FFF7FEFF 		bl	ov5640_Init
 571              	.LVL75:
  66:Cam/Src/ov5640_driver.c ****   ov5640_Set_JPEG();
 572              		.loc 1 66 3 view .LVU111
 573 0006 3220     		movs	r0, #50
 574 0008 FFF7FEFF 		bl	HAL_Delay
 575              	.LVL76:
  67:Cam/Src/ov5640_driver.c **** 
 576              		.loc 1 67 3 view .LVU112
 577 000c FFF7FEFF 		bl	ov5640_Set_JPEG
 578              	.LVL77:
  69:Cam/Src/ov5640_driver.c ****                     
 579              		.loc 1 69 3 view .LVU113
 580 0010 F023     		movs	r3, #240
 581 0012 4FF4A072 		mov	r2, #320
 582 0016 0021     		movs	r1, #0
 583 0018 0420     		movs	r0, #4
 584 001a FFF7FEFF 		bl	OV5640_Set_Size
 585              	.LVL78:
  71:Cam/Src/ov5640_driver.c ****   CAMERA_IO_Write_OV5640(OV5640_I2C_ADDRESS, 0x3036,0x79);  
 586              		.loc 1 71 3 view .LVU114
 587 001e 4122     		movs	r2, #65
 588 0020 43F23501 		movw	r1, #12341
 589 0024 7820     		movs	r0, #120
 590 0026 FFF7FEFF 		bl	CAMERA_IO_Write_OV5640
 591              	.LVL79:
  72:Cam/Src/ov5640_driver.c **** 
 592              		.loc 1 72 3 view .LVU115
 593 002a 7922     		movs	r2, #121
 594 002c 43F23601 		movw	r1, #12342
 595 0030 7820     		movs	r0, #120
 596 0032 FFF7FEFF 		bl	CAMERA_IO_Write_OV5640
 597              	.LVL80:
  91:Cam/Src/ov5640_driver.c ****   CAMERA_IO_Write_OV5640(OV5640_I2C_ADDRESS, OV5640_POLARITY_CTRL, tmp);
 598              		.loc 1 91 3 view .LVU116
  92:Cam/Src/ov5640_driver.c **** 
 599              		.loc 1 92 3 view .LVU117
 600 0036 2222     		movs	r2, #34
 601 0038 44F24071 		movw	r1, #18240
 602 003c 7820     		movs	r0, #120
 603 003e FFF7FEFF 		bl	CAMERA_IO_Write_OV5640
 604              	.LVL81:
  94:Cam/Src/ov5640_driver.c **** 
 605              		.loc 1 94 1 is_stmt 0 view .LVU118
 606 0042 08BD     		pop	{r3, pc}
  94:Cam/Src/ov5640_driver.c **** 
 607              		.loc 1 94 1 view .LVU119
 608              		.cfi_endproc
 609              	.LFE147:
 611              		.section	.text.ov5640_Init_RGB565,"ax",%progbits
 612              		.align	1
 613              		.global	ov5640_Init_RGB565
 614              		.syntax unified
ARM GAS  /var/folders/fz/x0kldt2j7vs_j4slv3pyc44m0000gp/T//ccFAVl1c.s 			page 16


 615              		.thumb
 616              		.thumb_func
 618              	ov5640_Init_RGB565:
 619              	.LVL82:
 620              	.LFB149:
 156:Cam/Src/ov5640_driver.c ****   ov5640_Init();
 621              		.loc 1 156 1 is_stmt 1 view -0
 622              		.cfi_startproc
 623              		@ args = 0, pretend = 0, frame = 0
 624              		@ frame_needed = 0, uses_anonymous_args = 0
 156:Cam/Src/ov5640_driver.c ****   ov5640_Init();
 625              		.loc 1 156 1 is_stmt 0 view .LVU121
 626 0000 38B5     		push	{r3, r4, r5, lr}
 627              		.cfi_def_cfa_offset 16
 628              		.cfi_offset 3, -16
 629              		.cfi_offset 4, -12
 630              		.cfi_offset 5, -8
 631              		.cfi_offset 14, -4
 632 0002 0446     		mov	r4, r0
 633 0004 0D46     		mov	r5, r1
 157:Cam/Src/ov5640_driver.c ****   OV5640_Set_Size(4, 0, x_res, y_res);
 634              		.loc 1 157 3 is_stmt 1 view .LVU122
 635 0006 FFF7FEFF 		bl	ov5640_Init
 636              	.LVL83:
 158:Cam/Src/ov5640_driver.c ****   ov5640_Set_RGB565();
 637              		.loc 1 158 3 view .LVU123
 638 000a 2B46     		mov	r3, r5
 639 000c 2246     		mov	r2, r4
 640 000e 0021     		movs	r1, #0
 641 0010 0420     		movs	r0, #4
 642 0012 FFF7FEFF 		bl	OV5640_Set_Size
 643              	.LVL84:
 159:Cam/Src/ov5640_driver.c ****   OV5640_SetPCLK(OV5640_PCLK_24M);
 644              		.loc 1 159 3 view .LVU124
 160:Cam/Src/ov5640_driver.c **** 
 645              		.loc 1 160 3 view .LVU125
 646 0016 0F20     		movs	r0, #15
 647 0018 FFF7FEFF 		bl	OV5640_SetPCLK
 648              	.LVL85:
 162:Cam/Src/ov5640_driver.c **** 
 649              		.loc 1 162 1 is_stmt 0 view .LVU126
 650 001c 38BD     		pop	{r3, r4, r5, pc}
 651              		.cfi_endproc
 652              	.LFE149:
 654              		.section	.rodata.OV5640_Config_FIFO.str1.4,"aMS",%progbits,1
 655              		.align	2
 656              	.LC0:
 657 0000 0A0A5245 		.ascii	"\012\012READ_Height = :%i\012\012\000"
 657      41445F48 
 657      65696768 
 657      74203D20 
 657      3A25690A 
 658              		.section	.text.OV5640_Config_FIFO,"ax",%progbits
 659              		.align	1
 660              		.global	OV5640_Config_FIFO
 661              		.syntax unified
 662              		.thumb
ARM GAS  /var/folders/fz/x0kldt2j7vs_j4slv3pyc44m0000gp/T//ccFAVl1c.s 			page 17


 663              		.thumb_func
 665              	OV5640_Config_FIFO:
 666              	.LVL86:
 667              	.LFB152:
 207:Cam/Src/ov5640_driver.c **** 
 208:Cam/Src/ov5640_driver.c **** 
 209:Cam/Src/ov5640_driver.c **** 
 210:Cam/Src/ov5640_driver.c **** //
 211:Cam/Src/ov5640_driver.c **** //}
 212:Cam/Src/ov5640_driver.c **** 
 213:Cam/Src/ov5640_driver.c **** void OV5640_Config_FIFO(uint16_t fifo_width, uint16_t packet_count)
 214:Cam/Src/ov5640_driver.c ****  {
 668              		.loc 1 214 2 is_stmt 1 view -0
 669              		.cfi_startproc
 670              		@ args = 0, pretend = 0, frame = 0
 671              		@ frame_needed = 0, uses_anonymous_args = 0
 672              		.loc 1 214 2 is_stmt 0 view .LVU128
 673 0000 08B5     		push	{r3, lr}
 674              		.cfi_def_cfa_offset 8
 675              		.cfi_offset 3, -8
 676              		.cfi_offset 14, -4
 677 0002 0246     		mov	r2, r0
 215:Cam/Src/ov5640_driver.c **** 
 216:Cam/Src/ov5640_driver.c **** 	CAMERA_IO_Write_OV5640_16(OV5640_I2C_ADDRESS, VFIFO_X_SIZE_H, fifo_width);
 678              		.loc 1 216 2 is_stmt 1 view .LVU129
 679 0004 44F20261 		movw	r1, #17922
 680              	.LVL87:
 681              		.loc 1 216 2 is_stmt 0 view .LVU130
 682 0008 7820     		movs	r0, #120
 683              	.LVL88:
 684              		.loc 1 216 2 view .LVU131
 685 000a FFF7FEFF 		bl	CAMERA_IO_Write_OV5640_16
 686              	.LVL89:
 217:Cam/Src/ov5640_driver.c **** 
 218:Cam/Src/ov5640_driver.c ****    //set FIFO height 
 219:Cam/Src/ov5640_driver.c ****   //CAMERA_IO_Write_OV5640_16(OV5640_I2C_ADDRESS, VFIFO_Y_SIZE_H, packet_count);
 220:Cam/Src/ov5640_driver.c ****   
 221:Cam/Src/ov5640_driver.c ****   //set to fifo size to fixed number of bits
 222:Cam/Src/ov5640_driver.c ****   // uint8_t temp =  CAMERA_IO_Read_OV5640(OV5640_I2C_ADDRESS, OV5640_VFIFO_CTRL00);
 223:Cam/Src/ov5640_driver.c ****   // temp |= (1 << 5);
 224:Cam/Src/ov5640_driver.c ****   // CAMERA_IO_Write_OV5640(OV5640_I2C_ADDRESS, OV5640_VFIFO_CTRL00, temp);
 225:Cam/Src/ov5640_driver.c **** 
 226:Cam/Src/ov5640_driver.c **** 
 227:Cam/Src/ov5640_driver.c ****  
 228:Cam/Src/ov5640_driver.c ****   uint16_t read_height = CAMERA_IO_Read_OV5640_16(OV5640_I2C_ADDRESS, VFIFO_Y_SIZE_H);
 687              		.loc 1 228 3 is_stmt 1 view .LVU132
 688              		.loc 1 228 26 is_stmt 0 view .LVU133
 689 000e 44F20461 		movw	r1, #17924
 690 0012 7820     		movs	r0, #120
 691 0014 FFF7FEFF 		bl	CAMERA_IO_Read_OV5640_16
 692              	.LVL90:
 693 0018 0146     		mov	r1, r0
 694              	.LVL91:
 229:Cam/Src/ov5640_driver.c **** 
 230:Cam/Src/ov5640_driver.c ****   printf("\n\nREAD_Height = :%i\n\n", read_height);
 695              		.loc 1 230 3 is_stmt 1 view .LVU134
 696 001a 0248     		ldr	r0, .L37
ARM GAS  /var/folders/fz/x0kldt2j7vs_j4slv3pyc44m0000gp/T//ccFAVl1c.s 			page 18


 697 001c FFF7FEFF 		bl	printf
 698              	.LVL92:
 231:Cam/Src/ov5640_driver.c **** 
 232:Cam/Src/ov5640_driver.c ****   //printf f
 233:Cam/Src/ov5640_driver.c **** 
 234:Cam/Src/ov5640_driver.c ****   //printf("\nVFIFO control = :%i\n", temp);
 235:Cam/Src/ov5640_driver.c **** 
 236:Cam/Src/ov5640_driver.c ****   //printf("\nVFIFO control set bit = :%i\n", temp & (1 << 5));
 237:Cam/Src/ov5640_driver.c **** 
 238:Cam/Src/ov5640_driver.c ****   //enable huffman table out
 239:Cam/Src/ov5640_driver.c ****   // uint8_t JPEG_CTRL_3 =  CAMERA_IO_Read_OV5640(OV5640_I2C_ADDRESS, OV5640_JPEG_CTRL03);
 240:Cam/Src/ov5640_driver.c ****   // JPEG_CTRL_3 |= (1 << 4);
 241:Cam/Src/ov5640_driver.c ****   // CAMERA_IO_Write_OV5640(OV5640_I2C_ADDRESS, OV5640_JPEG_CTRL03, JPEG_CTRL_3);
 242:Cam/Src/ov5640_driver.c **** 
 243:Cam/Src/ov5640_driver.c ****   //printf("\nJPEG_CTRL_3  = :%i\n", JPEG_CTRL_3);
 244:Cam/Src/ov5640_driver.c **** 
 245:Cam/Src/ov5640_driver.c **** 
 246:Cam/Src/ov5640_driver.c **** 
 247:Cam/Src/ov5640_driver.c **** }
 699              		.loc 1 247 1 is_stmt 0 view .LVU135
 700 0020 08BD     		pop	{r3, pc}
 701              	.L38:
 702 0022 00BF     		.align	2
 703              	.L37:
 704 0024 00000000 		.word	.LC0
 705              		.cfi_endproc
 706              	.LFE152:
 708              		.section	.text.OV5640_Set_Comp_Ratio,"ax",%progbits
 709              		.align	1
 710              		.global	OV5640_Set_Comp_Ratio
 711              		.syntax unified
 712              		.thumb
 713              		.thumb_func
 715              	OV5640_Set_Comp_Ratio:
 716              	.LVL93:
 717              	.LFB153:
 248:Cam/Src/ov5640_driver.c **** 
 249:Cam/Src/ov5640_driver.c **** void OV5640_Set_Comp_Ratio(uint16_t comp_ratio) {
 718              		.loc 1 249 49 is_stmt 1 view -0
 719              		.cfi_startproc
 720              		@ args = 0, pretend = 0, frame = 0
 721              		@ frame_needed = 0, uses_anonymous_args = 0
 722              		.loc 1 249 49 is_stmt 0 view .LVU137
 723 0000 08B5     		push	{r3, lr}
 724              		.cfi_def_cfa_offset 8
 725              		.cfi_offset 3, -8
 726              		.cfi_offset 14, -4
 250:Cam/Src/ov5640_driver.c **** 	 CAMERA_IO_Write_OV5640(OV5640_I2C_ADDRESS, COMPRESSION_CTRL07, comp_ratio & 0x3f);
 727              		.loc 1 250 3 is_stmt 1 view .LVU138
 728 0002 00F03F02 		and	r2, r0, #63
 729 0006 44F20741 		movw	r1, #17415
 730 000a 7820     		movs	r0, #120
 731              	.LVL94:
 732              		.loc 1 250 3 is_stmt 0 view .LVU139
 733 000c FFF7FEFF 		bl	CAMERA_IO_Write_OV5640
 734              	.LVL95:
 251:Cam/Src/ov5640_driver.c ****    //printf("test\n");
ARM GAS  /var/folders/fz/x0kldt2j7vs_j4slv3pyc44m0000gp/T//ccFAVl1c.s 			page 19


 252:Cam/Src/ov5640_driver.c **** }
 735              		.loc 1 252 1 view .LVU140
 736 0010 08BD     		pop	{r3, pc}
 737              		.cfi_endproc
 738              	.LFE153:
 740              		.global	jpeg_buf_max_size
 741              		.section	.rodata.jpeg_buf_max_size,"a"
 742              		.align	2
 745              	jpeg_buf_max_size:
 746 0000 00500000 		.word	20480
 747 0004 00780000 		.word	30720
 748 0008 00900100 		.word	102400
 749 000c 00900100 		.word	102400
 750 0010 00900100 		.word	102400
 751 0014 00200300 		.word	204800
 752 0018 00400600 		.word	409600
 753              		.global	jpeg_size_tbl
 754              		.section	.rodata.jpeg_size_tbl,"a"
 755              		.align	2
 758              	jpeg_size_tbl:
 759 0000 A000     		.short	160
 760 0002 7800     		.short	120
 761 0004 B000     		.short	176
 762 0006 9000     		.short	144
 763 0008 4001     		.short	320
 764 000a F000     		.short	240
 765 000c 9001     		.short	400
 766 000e F000     		.short	240
 767 0010 6001     		.short	352
 768 0012 2001     		.short	288
 769 0014 8002     		.short	640
 770 0016 E001     		.short	480
 771 0018 2003     		.short	800
 772 001a 5802     		.short	600
 773              		.global	jpeg_buf_size
 774              		.section	.bss.jpeg_buf_size,"aw",%nobits
 775              		.align	2
 778              	jpeg_buf_size:
 779 0000 00000000 		.space	4
 780              		.global	format_rgb565
 781              		.section	.rodata.format_rgb565,"a"
 782              		.align	2
 785              	format_rgb565:
 786              		.global	format_jpeg
 787              		.section	.rodata.format_jpeg,"a"
 788              		.align	2
 791              	format_jpeg:
 792 0000 0043     		.short	17152
 793 0002 3000     		.short	48
 794 0004 1F50     		.short	20511
 795 0006 0000     		.short	0
 796 0008 3530     		.short	12341
 797 000a 2100     		.short	33
 798 000c 3630     		.short	12342
 799 000e 6900     		.short	105
 800 0010 073C     		.short	15367
 801 0012 0700     		.short	7
ARM GAS  /var/folders/fz/x0kldt2j7vs_j4slv3pyc44m0000gp/T//ccFAVl1c.s 			page 20


 802 0014 2038     		.short	14368
 803 0016 4600     		.short	70
 804 0018 2138     		.short	14369
 805 001a 2000     		.short	32
 806 001c 1438     		.short	14356
 807 001e 1100     		.short	17
 808 0020 1538     		.short	14357
 809 0022 1100     		.short	17
 810 0024 0038     		.short	14336
 811 0026 0000     		.short	0
 812 0028 0138     		.short	14337
 813 002a 0000     		.short	0
 814 002c 0238     		.short	14338
 815 002e 0000     		.short	0
 816 0030 0338     		.short	14339
 817 0032 0000     		.short	0
 818 0034 0438     		.short	14340
 819 0036 0A00     		.short	10
 820 0038 0538     		.short	14341
 821 003a 3F00     		.short	63
 822 003c 0638     		.short	14342
 823 003e 0700     		.short	7
 824 0040 0738     		.short	14343
 825 0042 9F00     		.short	159
 826 0044 0838     		.short	14344
 827 0046 0200     		.short	2
 828 0048 0938     		.short	14345
 829 004a 8000     		.short	128
 830 004c 0A38     		.short	14346
 831 004e 0100     		.short	1
 832 0050 0B38     		.short	14347
 833 0052 E000     		.short	224
 834 0054 0C38     		.short	14348
 835 0056 0B00     		.short	11
 836 0058 0D38     		.short	14349
 837 005a 1C00     		.short	28
 838 005c 0E38     		.short	14350
 839 005e 0700     		.short	7
 840 0060 0F38     		.short	14351
 841 0062 B000     		.short	176
 842 0064 1338     		.short	14355
 843 0066 0400     		.short	4
 844 0068 1836     		.short	13848
 845 006a 0400     		.short	4
 846 006c 1236     		.short	13842
 847 006e 2B00     		.short	43
 848 0070 0937     		.short	14089
 849 0072 1200     		.short	18
 850 0074 0C37     		.short	14092
 851 0076 0000     		.short	0
 852 0078 023A     		.short	14850
 853 007a 0200     		.short	2
 854 007c 033A     		.short	14851
 855 007e E000     		.short	224
 856 0080 143A     		.short	14868
 857 0082 0200     		.short	2
 858 0084 153A     		.short	14869
ARM GAS  /var/folders/fz/x0kldt2j7vs_j4slv3pyc44m0000gp/T//ccFAVl1c.s 			page 21


 859 0086 E000     		.short	224
 860 0088 0440     		.short	16388
 861 008a 0600     		.short	6
 862 008c 0230     		.short	12290
 863 008e 0000     		.short	0
 864 0090 0630     		.short	12294
 865 0092 FF00     		.short	255
 866 0094 1347     		.short	18195
 867 0096 0200     		.short	2
 868 0098 0744     		.short	17415
 869 009a 0400     		.short	4
 870 009c 0B46     		.short	17931
 871 009e 3500     		.short	53
 872 00a0 0C46     		.short	17932
 873 00a2 2200     		.short	34
 874 00a4 3748     		.short	18487
 875 00a6 1600     		.short	22
 876 00a8 2438     		.short	14372
 877 00aa 0200     		.short	2
 878 00ac 0150     		.short	20481
 879 00ae A300     		.short	163
 880 00b0 0335     		.short	13571
 881 00b2 0000     		.short	0
 882              		.global	OV5640_default_reg_settings
 883              		.section	.rodata.OV5640_default_reg_settings,"a"
 884              		.align	2
 887              	OV5640_default_reg_settings:
 888 0000 0830     		.short	12296
 889 0002 4200     		.short	66
 890 0004 0331     		.short	12547
 891 0006 0300     		.short	3
 892 0008 1730     		.short	12311
 893 000a FF00     		.short	255
 894 000c 1830     		.short	12312
 895 000e FF00     		.short	255
 896 0010 3430     		.short	12340
 897 0012 1A00     		.short	26
 898 0014 3730     		.short	12343
 899 0016 1300     		.short	19
 900 0018 0831     		.short	12552
 901 001a 0100     		.short	1
 902 001c 3036     		.short	13872
 903 001e 3600     		.short	54
 904 0020 3136     		.short	13873
 905 0022 0E00     		.short	14
 906 0024 3236     		.short	13874
 907 0026 E200     		.short	226
 908 0028 3336     		.short	13875
 909 002a 1200     		.short	18
 910 002c 2136     		.short	13857
 911 002e E000     		.short	224
 912 0030 0437     		.short	14084
 913 0032 A000     		.short	160
 914 0034 0337     		.short	14083
 915 0036 5A00     		.short	90
 916 0038 1537     		.short	14101
 917 003a 7800     		.short	120
ARM GAS  /var/folders/fz/x0kldt2j7vs_j4slv3pyc44m0000gp/T//ccFAVl1c.s 			page 22


 918 003c 1737     		.short	14103
 919 003e 0100     		.short	1
 920 0040 0B37     		.short	14091
 921 0042 6000     		.short	96
 922 0044 0537     		.short	14085
 923 0046 1A00     		.short	26
 924 0048 0539     		.short	14597
 925 004a 0200     		.short	2
 926 004c 0639     		.short	14598
 927 004e 1000     		.short	16
 928 0050 0139     		.short	14593
 929 0052 0A00     		.short	10
 930 0054 3137     		.short	14129
 931 0056 1200     		.short	18
 932 0058 0036     		.short	13824
 933 005a 0800     		.short	8
 934 005c 0136     		.short	13825
 935 005e 3300     		.short	51
 936 0060 2D30     		.short	12333
 937 0062 6000     		.short	96
 938 0064 2036     		.short	13856
 939 0066 5200     		.short	82
 940 0068 1B37     		.short	14107
 941 006a 2000     		.short	32
 942 006c 1C47     		.short	18204
 943 006e 5000     		.short	80
 944 0070 133A     		.short	14867
 945 0072 4300     		.short	67
 946 0074 183A     		.short	14872
 947 0076 0000     		.short	0
 948 0078 193A     		.short	14873
 949 007a F800     		.short	248
 950 007c 3536     		.short	13877
 951 007e 1300     		.short	19
 952 0080 3636     		.short	13878
 953 0082 0300     		.short	3
 954 0084 3436     		.short	13876
 955 0086 4000     		.short	64
 956 0088 2236     		.short	13858
 957 008a 0100     		.short	1
 958 008c 013C     		.short	15361
 959 008e 3400     		.short	52
 960 0090 043C     		.short	15364
 961 0092 2800     		.short	40
 962 0094 053C     		.short	15365
 963 0096 9800     		.short	152
 964 0098 063C     		.short	15366
 965 009a 0000     		.short	0
 966 009c 073C     		.short	15367
 967 009e 0800     		.short	8
 968 00a0 083C     		.short	15368
 969 00a2 0000     		.short	0
 970 00a4 093C     		.short	15369
 971 00a6 1C00     		.short	28
 972 00a8 0A3C     		.short	15370
 973 00aa 9C00     		.short	156
 974 00ac 0B3C     		.short	15371
ARM GAS  /var/folders/fz/x0kldt2j7vs_j4slv3pyc44m0000gp/T//ccFAVl1c.s 			page 23


 975 00ae 4000     		.short	64
 976 00b0 1038     		.short	14352
 977 00b2 0000     		.short	0
 978 00b4 1138     		.short	14353
 979 00b6 1000     		.short	16
 980 00b8 1238     		.short	14354
 981 00ba 0000     		.short	0
 982 00bc 0837     		.short	14088
 983 00be 6400     		.short	100
 984 00c0 0140     		.short	16385
 985 00c2 0200     		.short	2
 986 00c4 0540     		.short	16389
 987 00c6 1A00     		.short	26
 988 00c8 0030     		.short	12288
 989 00ca 0000     		.short	0
 990 00cc 0430     		.short	12292
 991 00ce FF00     		.short	255
 992 00d0 0E30     		.short	12302
 993 00d2 5800     		.short	88
 994 00d4 2E30     		.short	12334
 995 00d6 0000     		.short	0
 996 00d8 0043     		.short	17152
 997 00da 3000     		.short	48
 998 00dc 1F50     		.short	20511
 999 00de 0000     		.short	0
 1000 00e0 0E44     		.short	17422
 1001 00e2 0000     		.short	0
 1002 00e4 0050     		.short	20480
 1003 00e6 A700     		.short	167
 1004 00e8 0F3A     		.short	14863
 1005 00ea 3000     		.short	48
 1006 00ec 103A     		.short	14864
 1007 00ee 2800     		.short	40
 1008 00f0 1B3A     		.short	14875
 1009 00f2 3000     		.short	48
 1010 00f4 1E3A     		.short	14878
 1011 00f6 2600     		.short	38
 1012 00f8 113A     		.short	14865
 1013 00fa 6000     		.short	96
 1014 00fc 1F3A     		.short	14879
 1015 00fe 1400     		.short	20
 1016 0100 0058     		.short	22528
 1017 0102 2300     		.short	35
 1018 0104 0158     		.short	22529
 1019 0106 1400     		.short	20
 1020 0108 0258     		.short	22530
 1021 010a 0F00     		.short	15
 1022 010c 0358     		.short	22531
 1023 010e 0F00     		.short	15
 1024 0110 0458     		.short	22532
 1025 0112 1200     		.short	18
 1026 0114 0558     		.short	22533
 1027 0116 2600     		.short	38
 1028 0118 0658     		.short	22534
 1029 011a 0C00     		.short	12
 1030 011c 0758     		.short	22535
 1031 011e 0800     		.short	8
ARM GAS  /var/folders/fz/x0kldt2j7vs_j4slv3pyc44m0000gp/T//ccFAVl1c.s 			page 24


 1032 0120 0858     		.short	22536
 1033 0122 0500     		.short	5
 1034 0124 0958     		.short	22537
 1035 0126 0500     		.short	5
 1036 0128 0A58     		.short	22538
 1037 012a 0800     		.short	8
 1038 012c 0B58     		.short	22539
 1039 012e 0D00     		.short	13
 1040 0130 0C58     		.short	22540
 1041 0132 0800     		.short	8
 1042 0134 0D58     		.short	22541
 1043 0136 0300     		.short	3
 1044 0138 0E58     		.short	22542
 1045 013a 0000     		.short	0
 1046 013c 0F58     		.short	22543
 1047 013e 0000     		.short	0
 1048 0140 1058     		.short	22544
 1049 0142 0300     		.short	3
 1050 0144 1158     		.short	22545
 1051 0146 0900     		.short	9
 1052 0148 1258     		.short	22546
 1053 014a 0700     		.short	7
 1054 014c 1358     		.short	22547
 1055 014e 0300     		.short	3
 1056 0150 1458     		.short	22548
 1057 0152 0000     		.short	0
 1058 0154 1558     		.short	22549
 1059 0156 0100     		.short	1
 1060 0158 1658     		.short	22550
 1061 015a 0300     		.short	3
 1062 015c 1758     		.short	22551
 1063 015e 0800     		.short	8
 1064 0160 1858     		.short	22552
 1065 0162 0D00     		.short	13
 1066 0164 1958     		.short	22553
 1067 0166 0800     		.short	8
 1068 0168 1A58     		.short	22554
 1069 016a 0500     		.short	5
 1070 016c 1B58     		.short	22555
 1071 016e 0600     		.short	6
 1072 0170 1C58     		.short	22556
 1073 0172 0800     		.short	8
 1074 0174 1D58     		.short	22557
 1075 0176 0E00     		.short	14
 1076 0178 1E58     		.short	22558
 1077 017a 2900     		.short	41
 1078 017c 1F58     		.short	22559
 1079 017e 1700     		.short	23
 1080 0180 2058     		.short	22560
 1081 0182 1100     		.short	17
 1082 0184 2158     		.short	22561
 1083 0186 1100     		.short	17
 1084 0188 2258     		.short	22562
 1085 018a 1500     		.short	21
 1086 018c 2358     		.short	22563
 1087 018e 2800     		.short	40
 1088 0190 2458     		.short	22564
ARM GAS  /var/folders/fz/x0kldt2j7vs_j4slv3pyc44m0000gp/T//ccFAVl1c.s 			page 25


 1089 0192 4600     		.short	70
 1090 0194 2558     		.short	22565
 1091 0196 2600     		.short	38
 1092 0198 2658     		.short	22566
 1093 019a 0800     		.short	8
 1094 019c 2758     		.short	22567
 1095 019e 2600     		.short	38
 1096 01a0 2858     		.short	22568
 1097 01a2 6400     		.short	100
 1098 01a4 2958     		.short	22569
 1099 01a6 2600     		.short	38
 1100 01a8 2A58     		.short	22570
 1101 01aa 2400     		.short	36
 1102 01ac 2B58     		.short	22571
 1103 01ae 2200     		.short	34
 1104 01b0 2C58     		.short	22572
 1105 01b2 2400     		.short	36
 1106 01b4 2D58     		.short	22573
 1107 01b6 2400     		.short	36
 1108 01b8 2E58     		.short	22574
 1109 01ba 0600     		.short	6
 1110 01bc 2F58     		.short	22575
 1111 01be 2200     		.short	34
 1112 01c0 3058     		.short	22576
 1113 01c2 4000     		.short	64
 1114 01c4 3158     		.short	22577
 1115 01c6 4200     		.short	66
 1116 01c8 3258     		.short	22578
 1117 01ca 2400     		.short	36
 1118 01cc 3358     		.short	22579
 1119 01ce 2600     		.short	38
 1120 01d0 3458     		.short	22580
 1121 01d2 2400     		.short	36
 1122 01d4 3558     		.short	22581
 1123 01d6 2200     		.short	34
 1124 01d8 3658     		.short	22582
 1125 01da 2200     		.short	34
 1126 01dc 3758     		.short	22583
 1127 01de 2600     		.short	38
 1128 01e0 3858     		.short	22584
 1129 01e2 4400     		.short	68
 1130 01e4 3958     		.short	22585
 1131 01e6 2400     		.short	36
 1132 01e8 3A58     		.short	22586
 1133 01ea 2600     		.short	38
 1134 01ec 3B58     		.short	22587
 1135 01ee 2800     		.short	40
 1136 01f0 3C58     		.short	22588
 1137 01f2 4200     		.short	66
 1138 01f4 3D58     		.short	22589
 1139 01f6 CE00     		.short	206
 1140 01f8 8051     		.short	20864
 1141 01fa FF00     		.short	255
 1142 01fc 8151     		.short	20865
 1143 01fe F200     		.short	242
 1144 0200 8251     		.short	20866
 1145 0202 0000     		.short	0
ARM GAS  /var/folders/fz/x0kldt2j7vs_j4slv3pyc44m0000gp/T//ccFAVl1c.s 			page 26


 1146 0204 8351     		.short	20867
 1147 0206 1400     		.short	20
 1148 0208 8451     		.short	20868
 1149 020a 2500     		.short	37
 1150 020c 8551     		.short	20869
 1151 020e 2400     		.short	36
 1152 0210 8651     		.short	20870
 1153 0212 0900     		.short	9
 1154 0214 8751     		.short	20871
 1155 0216 0900     		.short	9
 1156 0218 8851     		.short	20872
 1157 021a 0900     		.short	9
 1158 021c 8951     		.short	20873
 1159 021e 7500     		.short	117
 1160 0220 8A51     		.short	20874
 1161 0222 5400     		.short	84
 1162 0224 8B51     		.short	20875
 1163 0226 E000     		.short	224
 1164 0228 8C51     		.short	20876
 1165 022a B200     		.short	178
 1166 022c 8D51     		.short	20877
 1167 022e 4200     		.short	66
 1168 0230 8E51     		.short	20878
 1169 0232 3D00     		.short	61
 1170 0234 8F51     		.short	20879
 1171 0236 5600     		.short	86
 1172 0238 9051     		.short	20880
 1173 023a 4600     		.short	70
 1174 023c 9151     		.short	20881
 1175 023e F800     		.short	248
 1176 0240 9251     		.short	20882
 1177 0242 0400     		.short	4
 1178 0244 9351     		.short	20883
 1179 0246 7000     		.short	112
 1180 0248 9451     		.short	20884
 1181 024a F000     		.short	240
 1182 024c 9551     		.short	20885
 1183 024e F000     		.short	240
 1184 0250 9651     		.short	20886
 1185 0252 0300     		.short	3
 1186 0254 9751     		.short	20887
 1187 0256 0100     		.short	1
 1188 0258 9851     		.short	20888
 1189 025a 0400     		.short	4
 1190 025c 9951     		.short	20889
 1191 025e 1200     		.short	18
 1192 0260 9A51     		.short	20890
 1193 0262 0400     		.short	4
 1194 0264 9B51     		.short	20891
 1195 0266 0000     		.short	0
 1196 0268 9C51     		.short	20892
 1197 026a 0600     		.short	6
 1198 026c 9D51     		.short	20893
 1199 026e 8200     		.short	130
 1200 0270 9E51     		.short	20894
 1201 0272 3800     		.short	56
 1202 0274 8054     		.short	21632
ARM GAS  /var/folders/fz/x0kldt2j7vs_j4slv3pyc44m0000gp/T//ccFAVl1c.s 			page 27


 1203 0276 0100     		.short	1
 1204 0278 8154     		.short	21633
 1205 027a 0800     		.short	8
 1206 027c 8254     		.short	21634
 1207 027e 1400     		.short	20
 1208 0280 8354     		.short	21635
 1209 0282 2800     		.short	40
 1210 0284 8454     		.short	21636
 1211 0286 5100     		.short	81
 1212 0288 8554     		.short	21637
 1213 028a 6500     		.short	101
 1214 028c 8654     		.short	21638
 1215 028e 7100     		.short	113
 1216 0290 8754     		.short	21639
 1217 0292 7D00     		.short	125
 1218 0294 8854     		.short	21640
 1219 0296 8700     		.short	135
 1220 0298 8954     		.short	21641
 1221 029a 9100     		.short	145
 1222 029c 8A54     		.short	21642
 1223 029e 9A00     		.short	154
 1224 02a0 8B54     		.short	21643
 1225 02a2 AA00     		.short	170
 1226 02a4 8C54     		.short	21644
 1227 02a6 B800     		.short	184
 1228 02a8 8D54     		.short	21645
 1229 02aa CD00     		.short	205
 1230 02ac 8E54     		.short	21646
 1231 02ae DD00     		.short	221
 1232 02b0 8F54     		.short	21647
 1233 02b2 EA00     		.short	234
 1234 02b4 9054     		.short	21648
 1235 02b6 1D00     		.short	29
 1236 02b8 8153     		.short	21377
 1237 02ba 1E00     		.short	30
 1238 02bc 8253     		.short	21378
 1239 02be 5B00     		.short	91
 1240 02c0 8353     		.short	21379
 1241 02c2 0800     		.short	8
 1242 02c4 8453     		.short	21380
 1243 02c6 0A00     		.short	10
 1244 02c8 8553     		.short	21381
 1245 02ca 7E00     		.short	126
 1246 02cc 8653     		.short	21382
 1247 02ce 8800     		.short	136
 1248 02d0 8753     		.short	21383
 1249 02d2 7C00     		.short	124
 1250 02d4 8853     		.short	21384
 1251 02d6 6C00     		.short	108
 1252 02d8 8953     		.short	21385
 1253 02da 1000     		.short	16
 1254 02dc 8A53     		.short	21386
 1255 02de 0100     		.short	1
 1256 02e0 8B53     		.short	21387
 1257 02e2 9800     		.short	152
 1258 02e4 8055     		.short	21888
 1259 02e6 0600     		.short	6
ARM GAS  /var/folders/fz/x0kldt2j7vs_j4slv3pyc44m0000gp/T//ccFAVl1c.s 			page 28


 1260 02e8 8355     		.short	21891
 1261 02ea 4000     		.short	64
 1262 02ec 8455     		.short	21892
 1263 02ee 1000     		.short	16
 1264 02f0 8955     		.short	21897
 1265 02f2 1000     		.short	16
 1266 02f4 8A55     		.short	21898
 1267 02f6 0000     		.short	0
 1268 02f8 8B55     		.short	21899
 1269 02fa F800     		.short	248
 1270 02fc 1D50     		.short	20509
 1271 02fe 4000     		.short	64
 1272 0300 0053     		.short	21248
 1273 0302 0800     		.short	8
 1274 0304 0153     		.short	21249
 1275 0306 3000     		.short	48
 1276 0308 0253     		.short	21250
 1277 030a 1000     		.short	16
 1278 030c 0353     		.short	21251
 1279 030e 0000     		.short	0
 1280 0310 0453     		.short	21252
 1281 0312 0800     		.short	8
 1282 0314 0553     		.short	21253
 1283 0316 3000     		.short	48
 1284 0318 0653     		.short	21254
 1285 031a 0800     		.short	8
 1286 031c 0753     		.short	21255
 1287 031e 1600     		.short	22
 1288 0320 0953     		.short	21257
 1289 0322 0800     		.short	8
 1290 0324 0A53     		.short	21258
 1291 0326 3000     		.short	48
 1292 0328 0B53     		.short	21259
 1293 032a 0400     		.short	4
 1294 032c 0C53     		.short	21260
 1295 032e 0600     		.short	6
 1296 0330 2550     		.short	20517
 1297 0332 0000     		.short	0
 1298 0334 0830     		.short	12296
 1299 0336 0200     		.short	2
 1300 0338 4047     		.short	18240
 1301 033a 2100     		.short	33
 1302              		.text
 1303              	.Letext0:
 1304              		.file 2 "/Users/sol/Library/Application Support/Code/User/globalStorage/bmd.stm32-for-vscode/@xpac
 1305              		.file 3 "/Users/sol/Library/Application Support/Code/User/globalStorage/bmd.stm32-for-vscode/@xpac
 1306              		.file 4 "Cam/Inc/ov5640_reg_settings.h"
 1307              		.file 5 "/Users/sol/Library/Application Support/Code/User/globalStorage/bmd.stm32-for-vscode/@xpac
 1308              		.file 6 "Cam/Inc/camera_I2C.h"
 1309              		.file 7 "Cam/Inc/ov5640_driver.h"
 1310              		.file 8 "Drivers/STM32F7xx_HAL_Driver/Inc/stm32f7xx_hal.h"
ARM GAS  /var/folders/fz/x0kldt2j7vs_j4slv3pyc44m0000gp/T//ccFAVl1c.s 			page 29

