ARM GAS  /var/folders/fz/x0kldt2j7vs_j4slv3pyc44m0000gp/T//ccoMI1M1.s 			page 1


   1              		.cpu cortex-m7
   2              		.arch armv7e-m
   3              		.fpu fpv5-sp-d16
   4              		.eabi_attribute 27, 1
   5              		.eabi_attribute 28, 1
   6              		.eabi_attribute 20, 1
   7              		.eabi_attribute 21, 1
   8              		.eabi_attribute 23, 3
   9              		.eabi_attribute 24, 1
  10              		.eabi_attribute 25, 1
  11              		.eabi_attribute 26, 1
  12              		.eabi_attribute 30, 1
  13              		.eabi_attribute 34, 1
  14              		.eabi_attribute 18, 4
  15              		.file	"stm32f7xx_hal_dcmi.c"
  16              		.text
  17              	.Ltext0:
  18              		.cfi_sections	.debug_frame
  19              		.file 1 "Drivers/STM32F7xx_HAL_Driver/Src/stm32f7xx_hal_dcmi.c"
  20              		.section	.text.DCMI_DMAXferCplt,"ax",%progbits
  21              		.align	1
  22              		.syntax unified
  23              		.thumb
  24              		.thumb_func
  26              	DCMI_DMAXferCplt:
  27              	.LVL0:
  28              	.LFB160:
   1:Drivers/STM32F7xx_HAL_Driver/Src/stm32f7xx_hal_dcmi.c **** /**
   2:Drivers/STM32F7xx_HAL_Driver/Src/stm32f7xx_hal_dcmi.c ****   ******************************************************************************
   3:Drivers/STM32F7xx_HAL_Driver/Src/stm32f7xx_hal_dcmi.c ****   * @file    stm32f7xx_hal_dcmi.c
   4:Drivers/STM32F7xx_HAL_Driver/Src/stm32f7xx_hal_dcmi.c ****   * @author  MCD Application Team
   5:Drivers/STM32F7xx_HAL_Driver/Src/stm32f7xx_hal_dcmi.c ****   * @brief   DCMI HAL module driver
   6:Drivers/STM32F7xx_HAL_Driver/Src/stm32f7xx_hal_dcmi.c ****   *          This file provides firmware functions to manage the following
   7:Drivers/STM32F7xx_HAL_Driver/Src/stm32f7xx_hal_dcmi.c ****   *          functionalities of the Digital Camera Interface (DCMI) peripheral:
   8:Drivers/STM32F7xx_HAL_Driver/Src/stm32f7xx_hal_dcmi.c ****   *           + Initialization and de-initialization functions
   9:Drivers/STM32F7xx_HAL_Driver/Src/stm32f7xx_hal_dcmi.c ****   *           + IO operation functions
  10:Drivers/STM32F7xx_HAL_Driver/Src/stm32f7xx_hal_dcmi.c ****   *           + Peripheral Control functions
  11:Drivers/STM32F7xx_HAL_Driver/Src/stm32f7xx_hal_dcmi.c ****   *           + Peripheral State and Error functions
  12:Drivers/STM32F7xx_HAL_Driver/Src/stm32f7xx_hal_dcmi.c ****   *
  13:Drivers/STM32F7xx_HAL_Driver/Src/stm32f7xx_hal_dcmi.c ****   ******************************************************************************
  14:Drivers/STM32F7xx_HAL_Driver/Src/stm32f7xx_hal_dcmi.c ****   * @attention
  15:Drivers/STM32F7xx_HAL_Driver/Src/stm32f7xx_hal_dcmi.c ****   *
  16:Drivers/STM32F7xx_HAL_Driver/Src/stm32f7xx_hal_dcmi.c ****   * Copyright (c) 2017 STMicroelectronics.
  17:Drivers/STM32F7xx_HAL_Driver/Src/stm32f7xx_hal_dcmi.c ****   * All rights reserved.
  18:Drivers/STM32F7xx_HAL_Driver/Src/stm32f7xx_hal_dcmi.c ****   *
  19:Drivers/STM32F7xx_HAL_Driver/Src/stm32f7xx_hal_dcmi.c ****   * This software is licensed under terms that can be found in the LICENSE file
  20:Drivers/STM32F7xx_HAL_Driver/Src/stm32f7xx_hal_dcmi.c ****   * in the root directory of this software component.
  21:Drivers/STM32F7xx_HAL_Driver/Src/stm32f7xx_hal_dcmi.c ****   * If no LICENSE file comes with this software, it is provided AS-IS.
  22:Drivers/STM32F7xx_HAL_Driver/Src/stm32f7xx_hal_dcmi.c ****   *
  23:Drivers/STM32F7xx_HAL_Driver/Src/stm32f7xx_hal_dcmi.c ****   ******************************************************************************
  24:Drivers/STM32F7xx_HAL_Driver/Src/stm32f7xx_hal_dcmi.c ****   @verbatim
  25:Drivers/STM32F7xx_HAL_Driver/Src/stm32f7xx_hal_dcmi.c ****   ==============================================================================
  26:Drivers/STM32F7xx_HAL_Driver/Src/stm32f7xx_hal_dcmi.c ****                         ##### How to use this driver #####
  27:Drivers/STM32F7xx_HAL_Driver/Src/stm32f7xx_hal_dcmi.c ****   ==============================================================================
  28:Drivers/STM32F7xx_HAL_Driver/Src/stm32f7xx_hal_dcmi.c ****   [..]
  29:Drivers/STM32F7xx_HAL_Driver/Src/stm32f7xx_hal_dcmi.c ****       The sequence below describes how to use this driver to capture image
  30:Drivers/STM32F7xx_HAL_Driver/Src/stm32f7xx_hal_dcmi.c ****       from a camera module connected to the DCMI Interface.
ARM GAS  /var/folders/fz/x0kldt2j7vs_j4slv3pyc44m0000gp/T//ccoMI1M1.s 			page 2


  31:Drivers/STM32F7xx_HAL_Driver/Src/stm32f7xx_hal_dcmi.c ****       This sequence does not take into account the configuration of the
  32:Drivers/STM32F7xx_HAL_Driver/Src/stm32f7xx_hal_dcmi.c ****       camera module, which should be made before to configure and enable
  33:Drivers/STM32F7xx_HAL_Driver/Src/stm32f7xx_hal_dcmi.c ****       the DCMI to capture images.
  34:Drivers/STM32F7xx_HAL_Driver/Src/stm32f7xx_hal_dcmi.c **** 
  35:Drivers/STM32F7xx_HAL_Driver/Src/stm32f7xx_hal_dcmi.c ****     (#) Program the required configuration through following parameters:
  36:Drivers/STM32F7xx_HAL_Driver/Src/stm32f7xx_hal_dcmi.c ****         horizontal and vertical polarity, pixel clock polarity, Capture Rate,
  37:Drivers/STM32F7xx_HAL_Driver/Src/stm32f7xx_hal_dcmi.c ****         Synchronization Mode, code of the frame delimiter and data width
  38:Drivers/STM32F7xx_HAL_Driver/Src/stm32f7xx_hal_dcmi.c ****         using HAL_DCMI_Init() function.
  39:Drivers/STM32F7xx_HAL_Driver/Src/stm32f7xx_hal_dcmi.c **** 
  40:Drivers/STM32F7xx_HAL_Driver/Src/stm32f7xx_hal_dcmi.c ****     (#) Configure the DMA2_Stream1 channel1 to transfer Data from DCMI DR
  41:Drivers/STM32F7xx_HAL_Driver/Src/stm32f7xx_hal_dcmi.c ****         register to the destination memory buffer.
  42:Drivers/STM32F7xx_HAL_Driver/Src/stm32f7xx_hal_dcmi.c **** 
  43:Drivers/STM32F7xx_HAL_Driver/Src/stm32f7xx_hal_dcmi.c ****     (#) Program the required configuration through following parameters:
  44:Drivers/STM32F7xx_HAL_Driver/Src/stm32f7xx_hal_dcmi.c ****         DCMI mode, destination memory Buffer address and the data length
  45:Drivers/STM32F7xx_HAL_Driver/Src/stm32f7xx_hal_dcmi.c ****         and enable capture using HAL_DCMI_Start_DMA() function.
  46:Drivers/STM32F7xx_HAL_Driver/Src/stm32f7xx_hal_dcmi.c **** 
  47:Drivers/STM32F7xx_HAL_Driver/Src/stm32f7xx_hal_dcmi.c ****     (#) Optionally, configure and Enable the CROP feature to select a rectangular
  48:Drivers/STM32F7xx_HAL_Driver/Src/stm32f7xx_hal_dcmi.c ****         window from the received image using HAL_DCMI_ConfigCrop()
  49:Drivers/STM32F7xx_HAL_Driver/Src/stm32f7xx_hal_dcmi.c ****         and HAL_DCMI_EnableCROP() functions
  50:Drivers/STM32F7xx_HAL_Driver/Src/stm32f7xx_hal_dcmi.c **** 
  51:Drivers/STM32F7xx_HAL_Driver/Src/stm32f7xx_hal_dcmi.c ****     (#) The capture can be stopped using HAL_DCMI_Stop() function.
  52:Drivers/STM32F7xx_HAL_Driver/Src/stm32f7xx_hal_dcmi.c **** 
  53:Drivers/STM32F7xx_HAL_Driver/Src/stm32f7xx_hal_dcmi.c ****     (#) To control DCMI state you can use the function HAL_DCMI_GetState().
  54:Drivers/STM32F7xx_HAL_Driver/Src/stm32f7xx_hal_dcmi.c **** 
  55:Drivers/STM32F7xx_HAL_Driver/Src/stm32f7xx_hal_dcmi.c ****      *** DCMI HAL driver macros list ***
  56:Drivers/STM32F7xx_HAL_Driver/Src/stm32f7xx_hal_dcmi.c ****      =============================================
  57:Drivers/STM32F7xx_HAL_Driver/Src/stm32f7xx_hal_dcmi.c ****      [..]
  58:Drivers/STM32F7xx_HAL_Driver/Src/stm32f7xx_hal_dcmi.c ****        Below the list of most used macros in DCMI HAL driver.
  59:Drivers/STM32F7xx_HAL_Driver/Src/stm32f7xx_hal_dcmi.c **** 
  60:Drivers/STM32F7xx_HAL_Driver/Src/stm32f7xx_hal_dcmi.c ****       (+) __HAL_DCMI_ENABLE: Enable the DCMI peripheral.
  61:Drivers/STM32F7xx_HAL_Driver/Src/stm32f7xx_hal_dcmi.c ****       (+) __HAL_DCMI_DISABLE: Disable the DCMI peripheral.
  62:Drivers/STM32F7xx_HAL_Driver/Src/stm32f7xx_hal_dcmi.c ****       (+) __HAL_DCMI_GET_FLAG: Get the DCMI pending flags.
  63:Drivers/STM32F7xx_HAL_Driver/Src/stm32f7xx_hal_dcmi.c ****       (+) __HAL_DCMI_CLEAR_FLAG: Clear the DCMI pending flags.
  64:Drivers/STM32F7xx_HAL_Driver/Src/stm32f7xx_hal_dcmi.c ****       (+) __HAL_DCMI_ENABLE_IT: Enable the specified DCMI interrupts.
  65:Drivers/STM32F7xx_HAL_Driver/Src/stm32f7xx_hal_dcmi.c ****       (+) __HAL_DCMI_DISABLE_IT: Disable the specified DCMI interrupts.
  66:Drivers/STM32F7xx_HAL_Driver/Src/stm32f7xx_hal_dcmi.c ****       (+) __HAL_DCMI_GET_IT_SOURCE: Check whether the specified DCMI interrupt has occurred or not.
  67:Drivers/STM32F7xx_HAL_Driver/Src/stm32f7xx_hal_dcmi.c **** 
  68:Drivers/STM32F7xx_HAL_Driver/Src/stm32f7xx_hal_dcmi.c ****      [..]
  69:Drivers/STM32F7xx_HAL_Driver/Src/stm32f7xx_hal_dcmi.c ****        (@) You can refer to the DCMI HAL driver header file for more useful macros
  70:Drivers/STM32F7xx_HAL_Driver/Src/stm32f7xx_hal_dcmi.c **** 
  71:Drivers/STM32F7xx_HAL_Driver/Src/stm32f7xx_hal_dcmi.c ****     *** Callback registration ***
  72:Drivers/STM32F7xx_HAL_Driver/Src/stm32f7xx_hal_dcmi.c ****     =============================
  73:Drivers/STM32F7xx_HAL_Driver/Src/stm32f7xx_hal_dcmi.c **** 
  74:Drivers/STM32F7xx_HAL_Driver/Src/stm32f7xx_hal_dcmi.c ****     The compilation define USE_HAL_DCMI_REGISTER_CALLBACKS when set to 1
  75:Drivers/STM32F7xx_HAL_Driver/Src/stm32f7xx_hal_dcmi.c ****     allows the user to configure dynamically the driver callbacks.
  76:Drivers/STM32F7xx_HAL_Driver/Src/stm32f7xx_hal_dcmi.c ****     Use functions HAL_DCMI_RegisterCallback() to register a user callback.
  77:Drivers/STM32F7xx_HAL_Driver/Src/stm32f7xx_hal_dcmi.c **** 
  78:Drivers/STM32F7xx_HAL_Driver/Src/stm32f7xx_hal_dcmi.c ****     Function HAL_DCMI_RegisterCallback() allows to register following callbacks:
  79:Drivers/STM32F7xx_HAL_Driver/Src/stm32f7xx_hal_dcmi.c ****       (+) FrameEventCallback : DCMI Frame Event.
  80:Drivers/STM32F7xx_HAL_Driver/Src/stm32f7xx_hal_dcmi.c ****       (+) VsyncEventCallback : DCMI Vsync Event.
  81:Drivers/STM32F7xx_HAL_Driver/Src/stm32f7xx_hal_dcmi.c ****       (+) LineEventCallback  : DCMI Line Event.
  82:Drivers/STM32F7xx_HAL_Driver/Src/stm32f7xx_hal_dcmi.c ****       (+) ErrorCallback      : DCMI error.
  83:Drivers/STM32F7xx_HAL_Driver/Src/stm32f7xx_hal_dcmi.c ****       (+) MspInitCallback    : DCMI MspInit.
  84:Drivers/STM32F7xx_HAL_Driver/Src/stm32f7xx_hal_dcmi.c ****       (+) MspDeInitCallback  : DCMI MspDeInit.
  85:Drivers/STM32F7xx_HAL_Driver/Src/stm32f7xx_hal_dcmi.c ****     This function takes as parameters the HAL peripheral handle, the callback ID
  86:Drivers/STM32F7xx_HAL_Driver/Src/stm32f7xx_hal_dcmi.c ****     and a pointer to the user callback function.
  87:Drivers/STM32F7xx_HAL_Driver/Src/stm32f7xx_hal_dcmi.c **** 
ARM GAS  /var/folders/fz/x0kldt2j7vs_j4slv3pyc44m0000gp/T//ccoMI1M1.s 			page 3


  88:Drivers/STM32F7xx_HAL_Driver/Src/stm32f7xx_hal_dcmi.c ****     Use function HAL_DCMI_UnRegisterCallback() to reset a callback to the default
  89:Drivers/STM32F7xx_HAL_Driver/Src/stm32f7xx_hal_dcmi.c ****     weak (surcharged) function.
  90:Drivers/STM32F7xx_HAL_Driver/Src/stm32f7xx_hal_dcmi.c ****     HAL_DCMI_UnRegisterCallback() takes as parameters the HAL peripheral handle,
  91:Drivers/STM32F7xx_HAL_Driver/Src/stm32f7xx_hal_dcmi.c ****     and the callback ID.
  92:Drivers/STM32F7xx_HAL_Driver/Src/stm32f7xx_hal_dcmi.c ****     This function allows to reset following callbacks:
  93:Drivers/STM32F7xx_HAL_Driver/Src/stm32f7xx_hal_dcmi.c ****       (+) FrameEventCallback : DCMI Frame Event.
  94:Drivers/STM32F7xx_HAL_Driver/Src/stm32f7xx_hal_dcmi.c ****       (+) VsyncEventCallback : DCMI Vsync Event.
  95:Drivers/STM32F7xx_HAL_Driver/Src/stm32f7xx_hal_dcmi.c ****       (+) LineEventCallback  : DCMI Line Event.
  96:Drivers/STM32F7xx_HAL_Driver/Src/stm32f7xx_hal_dcmi.c ****       (+) ErrorCallback      : DCMI error.
  97:Drivers/STM32F7xx_HAL_Driver/Src/stm32f7xx_hal_dcmi.c ****       (+) MspInitCallback    : DCMI MspInit.
  98:Drivers/STM32F7xx_HAL_Driver/Src/stm32f7xx_hal_dcmi.c ****       (+) MspDeInitCallback  : DCMI MspDeInit.
  99:Drivers/STM32F7xx_HAL_Driver/Src/stm32f7xx_hal_dcmi.c **** 
 100:Drivers/STM32F7xx_HAL_Driver/Src/stm32f7xx_hal_dcmi.c ****     By default, after the HAL_DCMI_Init and if the state is HAL_DCMI_STATE_RESET
 101:Drivers/STM32F7xx_HAL_Driver/Src/stm32f7xx_hal_dcmi.c ****     all callbacks are reset to the corresponding legacy weak (surcharged) functions:
 102:Drivers/STM32F7xx_HAL_Driver/Src/stm32f7xx_hal_dcmi.c ****     examples FrameEventCallback(), HAL_DCMI_ErrorCallback().
 103:Drivers/STM32F7xx_HAL_Driver/Src/stm32f7xx_hal_dcmi.c ****     Exception done for MspInit and MspDeInit callbacks that are respectively
 104:Drivers/STM32F7xx_HAL_Driver/Src/stm32f7xx_hal_dcmi.c ****     reset to the legacy weak (surcharged) functions in the HAL_DCMI_Init
 105:Drivers/STM32F7xx_HAL_Driver/Src/stm32f7xx_hal_dcmi.c ****     and  HAL_DCMI_DeInit only when these callbacks are null (not registered beforehand).
 106:Drivers/STM32F7xx_HAL_Driver/Src/stm32f7xx_hal_dcmi.c ****     If not, MspInit or MspDeInit are not null, the HAL_DCMI_Init and HAL_DCMI_DeInit
 107:Drivers/STM32F7xx_HAL_Driver/Src/stm32f7xx_hal_dcmi.c ****     keep and use the user MspInit/MspDeInit callbacks (registered beforehand).
 108:Drivers/STM32F7xx_HAL_Driver/Src/stm32f7xx_hal_dcmi.c **** 
 109:Drivers/STM32F7xx_HAL_Driver/Src/stm32f7xx_hal_dcmi.c ****     Callbacks can be registered/unregistered in READY state only.
 110:Drivers/STM32F7xx_HAL_Driver/Src/stm32f7xx_hal_dcmi.c ****     Exception done for MspInit/MspDeInit callbacks that can be registered/unregistered
 111:Drivers/STM32F7xx_HAL_Driver/Src/stm32f7xx_hal_dcmi.c ****     in READY or RESET state, thus registered (user) MspInit/DeInit callbacks can be used
 112:Drivers/STM32F7xx_HAL_Driver/Src/stm32f7xx_hal_dcmi.c ****     during the Init/DeInit.
 113:Drivers/STM32F7xx_HAL_Driver/Src/stm32f7xx_hal_dcmi.c ****     In that case first register the MspInit/MspDeInit user callbacks
 114:Drivers/STM32F7xx_HAL_Driver/Src/stm32f7xx_hal_dcmi.c ****     using HAL_DCMI_RegisterCallback before calling HAL_DCMI_DeInit
 115:Drivers/STM32F7xx_HAL_Driver/Src/stm32f7xx_hal_dcmi.c ****     or HAL_DCMI_Init function.
 116:Drivers/STM32F7xx_HAL_Driver/Src/stm32f7xx_hal_dcmi.c **** 
 117:Drivers/STM32F7xx_HAL_Driver/Src/stm32f7xx_hal_dcmi.c ****     When the compilation define USE_HAL_DCMI_REGISTER_CALLBACKS is set to 0 or
 118:Drivers/STM32F7xx_HAL_Driver/Src/stm32f7xx_hal_dcmi.c ****     not defined, the callback registering feature is not available
 119:Drivers/STM32F7xx_HAL_Driver/Src/stm32f7xx_hal_dcmi.c ****     and weak (surcharged) callbacks are used.
 120:Drivers/STM32F7xx_HAL_Driver/Src/stm32f7xx_hal_dcmi.c **** 
 121:Drivers/STM32F7xx_HAL_Driver/Src/stm32f7xx_hal_dcmi.c ****   @endverbatim
 122:Drivers/STM32F7xx_HAL_Driver/Src/stm32f7xx_hal_dcmi.c ****   ******************************************************************************
 123:Drivers/STM32F7xx_HAL_Driver/Src/stm32f7xx_hal_dcmi.c ****   */
 124:Drivers/STM32F7xx_HAL_Driver/Src/stm32f7xx_hal_dcmi.c **** 
 125:Drivers/STM32F7xx_HAL_Driver/Src/stm32f7xx_hal_dcmi.c **** /* Includes ------------------------------------------------------------------*/
 126:Drivers/STM32F7xx_HAL_Driver/Src/stm32f7xx_hal_dcmi.c **** #include "stm32f7xx_hal.h"
 127:Drivers/STM32F7xx_HAL_Driver/Src/stm32f7xx_hal_dcmi.c **** 
 128:Drivers/STM32F7xx_HAL_Driver/Src/stm32f7xx_hal_dcmi.c **** /** @addtogroup STM32F7xx_HAL_Driver
 129:Drivers/STM32F7xx_HAL_Driver/Src/stm32f7xx_hal_dcmi.c ****   * @{
 130:Drivers/STM32F7xx_HAL_Driver/Src/stm32f7xx_hal_dcmi.c ****   */
 131:Drivers/STM32F7xx_HAL_Driver/Src/stm32f7xx_hal_dcmi.c **** /** @defgroup DCMI DCMI
 132:Drivers/STM32F7xx_HAL_Driver/Src/stm32f7xx_hal_dcmi.c ****   * @brief DCMI HAL module driver
 133:Drivers/STM32F7xx_HAL_Driver/Src/stm32f7xx_hal_dcmi.c ****   * @{
 134:Drivers/STM32F7xx_HAL_Driver/Src/stm32f7xx_hal_dcmi.c ****   */
 135:Drivers/STM32F7xx_HAL_Driver/Src/stm32f7xx_hal_dcmi.c **** 
 136:Drivers/STM32F7xx_HAL_Driver/Src/stm32f7xx_hal_dcmi.c **** #ifdef HAL_DCMI_MODULE_ENABLED
 137:Drivers/STM32F7xx_HAL_Driver/Src/stm32f7xx_hal_dcmi.c **** #if defined (DCMI)
 138:Drivers/STM32F7xx_HAL_Driver/Src/stm32f7xx_hal_dcmi.c **** 
 139:Drivers/STM32F7xx_HAL_Driver/Src/stm32f7xx_hal_dcmi.c **** /* Private typedef -----------------------------------------------------------*/
 140:Drivers/STM32F7xx_HAL_Driver/Src/stm32f7xx_hal_dcmi.c **** /* Private define ------------------------------------------------------------*/
 141:Drivers/STM32F7xx_HAL_Driver/Src/stm32f7xx_hal_dcmi.c **** #define HAL_TIMEOUT_DCMI_STOP    ((uint32_t)1000) /* Set timeout to 1s  */
 142:Drivers/STM32F7xx_HAL_Driver/Src/stm32f7xx_hal_dcmi.c **** 
 143:Drivers/STM32F7xx_HAL_Driver/Src/stm32f7xx_hal_dcmi.c **** /* Private macro -------------------------------------------------------------*/
 144:Drivers/STM32F7xx_HAL_Driver/Src/stm32f7xx_hal_dcmi.c **** /* Private variables ---------------------------------------------------------*/
ARM GAS  /var/folders/fz/x0kldt2j7vs_j4slv3pyc44m0000gp/T//ccoMI1M1.s 			page 4


 145:Drivers/STM32F7xx_HAL_Driver/Src/stm32f7xx_hal_dcmi.c **** /* Private function prototypes -----------------------------------------------*/
 146:Drivers/STM32F7xx_HAL_Driver/Src/stm32f7xx_hal_dcmi.c **** static void       DCMI_DMAXferCplt(DMA_HandleTypeDef *hdma);
 147:Drivers/STM32F7xx_HAL_Driver/Src/stm32f7xx_hal_dcmi.c **** static void       DCMI_DMAError(DMA_HandleTypeDef *hdma);
 148:Drivers/STM32F7xx_HAL_Driver/Src/stm32f7xx_hal_dcmi.c **** 
 149:Drivers/STM32F7xx_HAL_Driver/Src/stm32f7xx_hal_dcmi.c **** /* Exported functions --------------------------------------------------------*/
 150:Drivers/STM32F7xx_HAL_Driver/Src/stm32f7xx_hal_dcmi.c **** 
 151:Drivers/STM32F7xx_HAL_Driver/Src/stm32f7xx_hal_dcmi.c **** /** @defgroup DCMI_Exported_Functions DCMI Exported Functions
 152:Drivers/STM32F7xx_HAL_Driver/Src/stm32f7xx_hal_dcmi.c ****   * @{
 153:Drivers/STM32F7xx_HAL_Driver/Src/stm32f7xx_hal_dcmi.c ****   */
 154:Drivers/STM32F7xx_HAL_Driver/Src/stm32f7xx_hal_dcmi.c **** 
 155:Drivers/STM32F7xx_HAL_Driver/Src/stm32f7xx_hal_dcmi.c **** /** @defgroup DCMI_Exported_Functions_Group1 Initialization and Configuration functions
 156:Drivers/STM32F7xx_HAL_Driver/Src/stm32f7xx_hal_dcmi.c ****  *  @brief   Initialization and Configuration functions
 157:Drivers/STM32F7xx_HAL_Driver/Src/stm32f7xx_hal_dcmi.c ****  *
 158:Drivers/STM32F7xx_HAL_Driver/Src/stm32f7xx_hal_dcmi.c **** @verbatim
 159:Drivers/STM32F7xx_HAL_Driver/Src/stm32f7xx_hal_dcmi.c ****  ===============================================================================
 160:Drivers/STM32F7xx_HAL_Driver/Src/stm32f7xx_hal_dcmi.c ****                 ##### Initialization and Configuration functions #####
 161:Drivers/STM32F7xx_HAL_Driver/Src/stm32f7xx_hal_dcmi.c ****  ===============================================================================
 162:Drivers/STM32F7xx_HAL_Driver/Src/stm32f7xx_hal_dcmi.c ****     [..]  This section provides functions allowing to:
 163:Drivers/STM32F7xx_HAL_Driver/Src/stm32f7xx_hal_dcmi.c ****       (+) Initialize and configure the DCMI
 164:Drivers/STM32F7xx_HAL_Driver/Src/stm32f7xx_hal_dcmi.c ****       (+) De-initialize the DCMI
 165:Drivers/STM32F7xx_HAL_Driver/Src/stm32f7xx_hal_dcmi.c **** 
 166:Drivers/STM32F7xx_HAL_Driver/Src/stm32f7xx_hal_dcmi.c **** @endverbatim
 167:Drivers/STM32F7xx_HAL_Driver/Src/stm32f7xx_hal_dcmi.c ****   * @{
 168:Drivers/STM32F7xx_HAL_Driver/Src/stm32f7xx_hal_dcmi.c ****   */
 169:Drivers/STM32F7xx_HAL_Driver/Src/stm32f7xx_hal_dcmi.c **** 
 170:Drivers/STM32F7xx_HAL_Driver/Src/stm32f7xx_hal_dcmi.c **** /**
 171:Drivers/STM32F7xx_HAL_Driver/Src/stm32f7xx_hal_dcmi.c ****   * @brief  Initializes the DCMI according to the specified
 172:Drivers/STM32F7xx_HAL_Driver/Src/stm32f7xx_hal_dcmi.c ****   *         parameters in the DCMI_InitTypeDef and create the associated handle.
 173:Drivers/STM32F7xx_HAL_Driver/Src/stm32f7xx_hal_dcmi.c ****   * @param  hdcmi pointer to a DCMI_HandleTypeDef structure that contains
 174:Drivers/STM32F7xx_HAL_Driver/Src/stm32f7xx_hal_dcmi.c ****   *                the configuration information for DCMI.
 175:Drivers/STM32F7xx_HAL_Driver/Src/stm32f7xx_hal_dcmi.c ****   * @retval HAL status
 176:Drivers/STM32F7xx_HAL_Driver/Src/stm32f7xx_hal_dcmi.c ****   */
 177:Drivers/STM32F7xx_HAL_Driver/Src/stm32f7xx_hal_dcmi.c **** HAL_StatusTypeDef HAL_DCMI_Init(DCMI_HandleTypeDef *hdcmi)
 178:Drivers/STM32F7xx_HAL_Driver/Src/stm32f7xx_hal_dcmi.c **** {
 179:Drivers/STM32F7xx_HAL_Driver/Src/stm32f7xx_hal_dcmi.c ****   /* Check the DCMI peripheral state */
 180:Drivers/STM32F7xx_HAL_Driver/Src/stm32f7xx_hal_dcmi.c ****   if (hdcmi == NULL)
 181:Drivers/STM32F7xx_HAL_Driver/Src/stm32f7xx_hal_dcmi.c ****   {
 182:Drivers/STM32F7xx_HAL_Driver/Src/stm32f7xx_hal_dcmi.c ****     return HAL_ERROR;
 183:Drivers/STM32F7xx_HAL_Driver/Src/stm32f7xx_hal_dcmi.c ****   }
 184:Drivers/STM32F7xx_HAL_Driver/Src/stm32f7xx_hal_dcmi.c **** 
 185:Drivers/STM32F7xx_HAL_Driver/Src/stm32f7xx_hal_dcmi.c ****   /* Check function parameters */
 186:Drivers/STM32F7xx_HAL_Driver/Src/stm32f7xx_hal_dcmi.c ****   assert_param(IS_DCMI_ALL_INSTANCE(hdcmi->Instance));
 187:Drivers/STM32F7xx_HAL_Driver/Src/stm32f7xx_hal_dcmi.c ****   assert_param(IS_DCMI_PCKPOLARITY(hdcmi->Init.PCKPolarity));
 188:Drivers/STM32F7xx_HAL_Driver/Src/stm32f7xx_hal_dcmi.c ****   assert_param(IS_DCMI_VSPOLARITY(hdcmi->Init.VSPolarity));
 189:Drivers/STM32F7xx_HAL_Driver/Src/stm32f7xx_hal_dcmi.c ****   assert_param(IS_DCMI_HSPOLARITY(hdcmi->Init.HSPolarity));
 190:Drivers/STM32F7xx_HAL_Driver/Src/stm32f7xx_hal_dcmi.c ****   assert_param(IS_DCMI_SYNCHRO(hdcmi->Init.SynchroMode));
 191:Drivers/STM32F7xx_HAL_Driver/Src/stm32f7xx_hal_dcmi.c ****   assert_param(IS_DCMI_CAPTURE_RATE(hdcmi->Init.CaptureRate));
 192:Drivers/STM32F7xx_HAL_Driver/Src/stm32f7xx_hal_dcmi.c ****   assert_param(IS_DCMI_EXTENDED_DATA(hdcmi->Init.ExtendedDataMode));
 193:Drivers/STM32F7xx_HAL_Driver/Src/stm32f7xx_hal_dcmi.c ****   assert_param(IS_DCMI_MODE_JPEG(hdcmi->Init.JPEGMode));
 194:Drivers/STM32F7xx_HAL_Driver/Src/stm32f7xx_hal_dcmi.c **** 
 195:Drivers/STM32F7xx_HAL_Driver/Src/stm32f7xx_hal_dcmi.c **** #ifdef DCMI_CR_BSM
 196:Drivers/STM32F7xx_HAL_Driver/Src/stm32f7xx_hal_dcmi.c ****   assert_param(IS_DCMI_BYTE_SELECT_MODE(hdcmi->Init.ByteSelectMode));
 197:Drivers/STM32F7xx_HAL_Driver/Src/stm32f7xx_hal_dcmi.c ****   assert_param(IS_DCMI_BYTE_SELECT_START(hdcmi->Init.ByteSelectStart));
 198:Drivers/STM32F7xx_HAL_Driver/Src/stm32f7xx_hal_dcmi.c ****   assert_param(IS_DCMI_LINE_SELECT_MODE(hdcmi->Init.LineSelectMode));
 199:Drivers/STM32F7xx_HAL_Driver/Src/stm32f7xx_hal_dcmi.c ****   assert_param(IS_DCMI_LINE_SELECT_START(hdcmi->Init.LineSelectStart));
 200:Drivers/STM32F7xx_HAL_Driver/Src/stm32f7xx_hal_dcmi.c **** #endif
 201:Drivers/STM32F7xx_HAL_Driver/Src/stm32f7xx_hal_dcmi.c **** 
ARM GAS  /var/folders/fz/x0kldt2j7vs_j4slv3pyc44m0000gp/T//ccoMI1M1.s 			page 5


 202:Drivers/STM32F7xx_HAL_Driver/Src/stm32f7xx_hal_dcmi.c ****   if (hdcmi->State == HAL_DCMI_STATE_RESET)
 203:Drivers/STM32F7xx_HAL_Driver/Src/stm32f7xx_hal_dcmi.c ****   {
 204:Drivers/STM32F7xx_HAL_Driver/Src/stm32f7xx_hal_dcmi.c ****     /* Init the DCMI Callback settings */
 205:Drivers/STM32F7xx_HAL_Driver/Src/stm32f7xx_hal_dcmi.c **** #if (USE_HAL_DCMI_REGISTER_CALLBACKS == 1)
 206:Drivers/STM32F7xx_HAL_Driver/Src/stm32f7xx_hal_dcmi.c ****     hdcmi->FrameEventCallback = HAL_DCMI_FrameEventCallback; /* Legacy weak FrameEventCallback  */
 207:Drivers/STM32F7xx_HAL_Driver/Src/stm32f7xx_hal_dcmi.c ****     hdcmi->VsyncEventCallback = HAL_DCMI_VsyncEventCallback; /* Legacy weak VsyncEventCallback  */
 208:Drivers/STM32F7xx_HAL_Driver/Src/stm32f7xx_hal_dcmi.c ****     hdcmi->LineEventCallback  = HAL_DCMI_LineEventCallback;  /* Legacy weak LineEventCallback   */
 209:Drivers/STM32F7xx_HAL_Driver/Src/stm32f7xx_hal_dcmi.c ****     hdcmi->ErrorCallback      = HAL_DCMI_ErrorCallback;      /* Legacy weak ErrorCallback       */
 210:Drivers/STM32F7xx_HAL_Driver/Src/stm32f7xx_hal_dcmi.c **** 
 211:Drivers/STM32F7xx_HAL_Driver/Src/stm32f7xx_hal_dcmi.c ****     if (hdcmi->MspInitCallback == NULL)
 212:Drivers/STM32F7xx_HAL_Driver/Src/stm32f7xx_hal_dcmi.c ****     {
 213:Drivers/STM32F7xx_HAL_Driver/Src/stm32f7xx_hal_dcmi.c ****       /* Legacy weak MspInit Callback        */
 214:Drivers/STM32F7xx_HAL_Driver/Src/stm32f7xx_hal_dcmi.c ****       hdcmi->MspInitCallback = HAL_DCMI_MspInit;
 215:Drivers/STM32F7xx_HAL_Driver/Src/stm32f7xx_hal_dcmi.c ****     }
 216:Drivers/STM32F7xx_HAL_Driver/Src/stm32f7xx_hal_dcmi.c ****     /* Initialize the low level hardware (MSP) */
 217:Drivers/STM32F7xx_HAL_Driver/Src/stm32f7xx_hal_dcmi.c ****     hdcmi->MspInitCallback(hdcmi);
 218:Drivers/STM32F7xx_HAL_Driver/Src/stm32f7xx_hal_dcmi.c **** #else
 219:Drivers/STM32F7xx_HAL_Driver/Src/stm32f7xx_hal_dcmi.c ****     /* Init the low level hardware : GPIO, CLOCK, NVIC and DMA */
 220:Drivers/STM32F7xx_HAL_Driver/Src/stm32f7xx_hal_dcmi.c ****     HAL_DCMI_MspInit(hdcmi);
 221:Drivers/STM32F7xx_HAL_Driver/Src/stm32f7xx_hal_dcmi.c **** #endif /* (USE_HAL_DCMI_REGISTER_CALLBACKS) */
 222:Drivers/STM32F7xx_HAL_Driver/Src/stm32f7xx_hal_dcmi.c ****   }
 223:Drivers/STM32F7xx_HAL_Driver/Src/stm32f7xx_hal_dcmi.c **** 
 224:Drivers/STM32F7xx_HAL_Driver/Src/stm32f7xx_hal_dcmi.c ****   /* Change the DCMI state */
 225:Drivers/STM32F7xx_HAL_Driver/Src/stm32f7xx_hal_dcmi.c ****   hdcmi->State = HAL_DCMI_STATE_BUSY;
 226:Drivers/STM32F7xx_HAL_Driver/Src/stm32f7xx_hal_dcmi.c **** 
 227:Drivers/STM32F7xx_HAL_Driver/Src/stm32f7xx_hal_dcmi.c **** #ifdef DCMI_CR_BSM
 228:Drivers/STM32F7xx_HAL_Driver/Src/stm32f7xx_hal_dcmi.c ****   if (hdcmi->Init.ExtendedDataMode != DCMI_EXTEND_DATA_8B)
 229:Drivers/STM32F7xx_HAL_Driver/Src/stm32f7xx_hal_dcmi.c ****   {
 230:Drivers/STM32F7xx_HAL_Driver/Src/stm32f7xx_hal_dcmi.c ****     /* Byte select mode must be programmed to the reset value if the extended mode
 231:Drivers/STM32F7xx_HAL_Driver/Src/stm32f7xx_hal_dcmi.c ****     is not set to 8-bit data capture on every pixel clock */
 232:Drivers/STM32F7xx_HAL_Driver/Src/stm32f7xx_hal_dcmi.c ****     hdcmi->Init.ByteSelectMode = DCMI_BSM_ALL;
 233:Drivers/STM32F7xx_HAL_Driver/Src/stm32f7xx_hal_dcmi.c ****   }
 234:Drivers/STM32F7xx_HAL_Driver/Src/stm32f7xx_hal_dcmi.c **** #endif
 235:Drivers/STM32F7xx_HAL_Driver/Src/stm32f7xx_hal_dcmi.c ****   /* Configures the HS, VS, DE and PC polarity */
 236:Drivers/STM32F7xx_HAL_Driver/Src/stm32f7xx_hal_dcmi.c **** #ifdef DCMI_CR_BSM
 237:Drivers/STM32F7xx_HAL_Driver/Src/stm32f7xx_hal_dcmi.c ****   hdcmi->Instance->CR &= ~(DCMI_CR_PCKPOL | DCMI_CR_HSPOL  | DCMI_CR_VSPOL  | DCMI_CR_EDM_0 | \
 238:Drivers/STM32F7xx_HAL_Driver/Src/stm32f7xx_hal_dcmi.c ****                            DCMI_CR_EDM_1  | DCMI_CR_FCRC_0 | DCMI_CR_FCRC_1 | DCMI_CR_JPEG  | \
 239:Drivers/STM32F7xx_HAL_Driver/Src/stm32f7xx_hal_dcmi.c ****                            DCMI_CR_ESS | DCMI_CR_BSM_0 | DCMI_CR_BSM_1 | DCMI_CR_OEBS | \
 240:Drivers/STM32F7xx_HAL_Driver/Src/stm32f7xx_hal_dcmi.c ****                            DCMI_CR_LSM | DCMI_CR_OELS);
 241:Drivers/STM32F7xx_HAL_Driver/Src/stm32f7xx_hal_dcmi.c **** 
 242:Drivers/STM32F7xx_HAL_Driver/Src/stm32f7xx_hal_dcmi.c ****   hdcmi->Instance->CR |= (uint32_t)(hdcmi->Init.SynchroMode | hdcmi->Init.CaptureRate | \
 243:Drivers/STM32F7xx_HAL_Driver/Src/stm32f7xx_hal_dcmi.c ****                                     hdcmi->Init.VSPolarity  | hdcmi->Init.HSPolarity  | \
 244:Drivers/STM32F7xx_HAL_Driver/Src/stm32f7xx_hal_dcmi.c ****                                     hdcmi->Init.PCKPolarity | hdcmi->Init.ExtendedDataMode | \
 245:Drivers/STM32F7xx_HAL_Driver/Src/stm32f7xx_hal_dcmi.c ****                                     hdcmi->Init.JPEGMode | hdcmi->Init.ByteSelectMode | \
 246:Drivers/STM32F7xx_HAL_Driver/Src/stm32f7xx_hal_dcmi.c ****                                     hdcmi->Init.ByteSelectStart | hdcmi->Init.LineSelectMode | \
 247:Drivers/STM32F7xx_HAL_Driver/Src/stm32f7xx_hal_dcmi.c ****                                     hdcmi->Init.LineSelectStart);
 248:Drivers/STM32F7xx_HAL_Driver/Src/stm32f7xx_hal_dcmi.c **** #else
 249:Drivers/STM32F7xx_HAL_Driver/Src/stm32f7xx_hal_dcmi.c ****   hdcmi->Instance->CR &= ~(DCMI_CR_PCKPOL | DCMI_CR_HSPOL  | DCMI_CR_VSPOL  | DCMI_CR_EDM_0 | \
 250:Drivers/STM32F7xx_HAL_Driver/Src/stm32f7xx_hal_dcmi.c ****                            DCMI_CR_EDM_1  | DCMI_CR_FCRC_0 | DCMI_CR_FCRC_1 | DCMI_CR_JPEG);
 251:Drivers/STM32F7xx_HAL_Driver/Src/stm32f7xx_hal_dcmi.c **** 
 252:Drivers/STM32F7xx_HAL_Driver/Src/stm32f7xx_hal_dcmi.c ****   hdcmi->Instance->CR |= (uint32_t)(hdcmi->Init.SynchroMode | hdcmi->Init.CaptureRate | \
 253:Drivers/STM32F7xx_HAL_Driver/Src/stm32f7xx_hal_dcmi.c ****                                     hdcmi->Init.VSPolarity  | hdcmi->Init.HSPolarity  | \
 254:Drivers/STM32F7xx_HAL_Driver/Src/stm32f7xx_hal_dcmi.c ****                                     hdcmi->Init.PCKPolarity | hdcmi->Init.ExtendedDataMode | \
 255:Drivers/STM32F7xx_HAL_Driver/Src/stm32f7xx_hal_dcmi.c ****                                     hdcmi->Init.JPEGMode);
 256:Drivers/STM32F7xx_HAL_Driver/Src/stm32f7xx_hal_dcmi.c **** #endif
 257:Drivers/STM32F7xx_HAL_Driver/Src/stm32f7xx_hal_dcmi.c **** 
 258:Drivers/STM32F7xx_HAL_Driver/Src/stm32f7xx_hal_dcmi.c ****   if (hdcmi->Init.SynchroMode == DCMI_SYNCHRO_EMBEDDED)
ARM GAS  /var/folders/fz/x0kldt2j7vs_j4slv3pyc44m0000gp/T//ccoMI1M1.s 			page 6


 259:Drivers/STM32F7xx_HAL_Driver/Src/stm32f7xx_hal_dcmi.c ****   {
 260:Drivers/STM32F7xx_HAL_Driver/Src/stm32f7xx_hal_dcmi.c ****     hdcmi->Instance->ESCR = (((uint32_t)hdcmi->Init.SyncroCode.FrameStartCode)    | \
 261:Drivers/STM32F7xx_HAL_Driver/Src/stm32f7xx_hal_dcmi.c ****                              ((uint32_t)hdcmi->Init.SyncroCode.LineStartCode << DCMI_ESCR_LSC_Pos) 
 262:Drivers/STM32F7xx_HAL_Driver/Src/stm32f7xx_hal_dcmi.c ****                              ((uint32_t)hdcmi->Init.SyncroCode.LineEndCode << DCMI_ESCR_LEC_Pos) | 
 263:Drivers/STM32F7xx_HAL_Driver/Src/stm32f7xx_hal_dcmi.c ****                              ((uint32_t)hdcmi->Init.SyncroCode.FrameEndCode << DCMI_ESCR_FEC_Pos));
 264:Drivers/STM32F7xx_HAL_Driver/Src/stm32f7xx_hal_dcmi.c **** 
 265:Drivers/STM32F7xx_HAL_Driver/Src/stm32f7xx_hal_dcmi.c ****   }
 266:Drivers/STM32F7xx_HAL_Driver/Src/stm32f7xx_hal_dcmi.c **** 
 267:Drivers/STM32F7xx_HAL_Driver/Src/stm32f7xx_hal_dcmi.c ****   /* Enable the Line, Vsync, Error and Overrun interrupts */
 268:Drivers/STM32F7xx_HAL_Driver/Src/stm32f7xx_hal_dcmi.c ****   __HAL_DCMI_ENABLE_IT(hdcmi, DCMI_IT_LINE | DCMI_IT_VSYNC | DCMI_IT_ERR | DCMI_IT_OVR);
 269:Drivers/STM32F7xx_HAL_Driver/Src/stm32f7xx_hal_dcmi.c **** 
 270:Drivers/STM32F7xx_HAL_Driver/Src/stm32f7xx_hal_dcmi.c ****   /* Update error code */
 271:Drivers/STM32F7xx_HAL_Driver/Src/stm32f7xx_hal_dcmi.c ****   hdcmi->ErrorCode = HAL_DCMI_ERROR_NONE;
 272:Drivers/STM32F7xx_HAL_Driver/Src/stm32f7xx_hal_dcmi.c **** 
 273:Drivers/STM32F7xx_HAL_Driver/Src/stm32f7xx_hal_dcmi.c ****   /* Initialize the DCMI state*/
 274:Drivers/STM32F7xx_HAL_Driver/Src/stm32f7xx_hal_dcmi.c ****   hdcmi->State  = HAL_DCMI_STATE_READY;
 275:Drivers/STM32F7xx_HAL_Driver/Src/stm32f7xx_hal_dcmi.c **** 
 276:Drivers/STM32F7xx_HAL_Driver/Src/stm32f7xx_hal_dcmi.c ****   return HAL_OK;
 277:Drivers/STM32F7xx_HAL_Driver/Src/stm32f7xx_hal_dcmi.c **** }
 278:Drivers/STM32F7xx_HAL_Driver/Src/stm32f7xx_hal_dcmi.c **** 
 279:Drivers/STM32F7xx_HAL_Driver/Src/stm32f7xx_hal_dcmi.c **** /**
 280:Drivers/STM32F7xx_HAL_Driver/Src/stm32f7xx_hal_dcmi.c ****   * @brief  Deinitializes the DCMI peripheral registers to their default reset
 281:Drivers/STM32F7xx_HAL_Driver/Src/stm32f7xx_hal_dcmi.c ****   *         values.
 282:Drivers/STM32F7xx_HAL_Driver/Src/stm32f7xx_hal_dcmi.c ****   * @param  hdcmi pointer to a DCMI_HandleTypeDef structure that contains
 283:Drivers/STM32F7xx_HAL_Driver/Src/stm32f7xx_hal_dcmi.c ****   *                the configuration information for DCMI.
 284:Drivers/STM32F7xx_HAL_Driver/Src/stm32f7xx_hal_dcmi.c ****   * @retval HAL status
 285:Drivers/STM32F7xx_HAL_Driver/Src/stm32f7xx_hal_dcmi.c ****   */
 286:Drivers/STM32F7xx_HAL_Driver/Src/stm32f7xx_hal_dcmi.c **** 
 287:Drivers/STM32F7xx_HAL_Driver/Src/stm32f7xx_hal_dcmi.c **** HAL_StatusTypeDef HAL_DCMI_DeInit(DCMI_HandleTypeDef *hdcmi)
 288:Drivers/STM32F7xx_HAL_Driver/Src/stm32f7xx_hal_dcmi.c **** {
 289:Drivers/STM32F7xx_HAL_Driver/Src/stm32f7xx_hal_dcmi.c **** #if (USE_HAL_DCMI_REGISTER_CALLBACKS == 1)
 290:Drivers/STM32F7xx_HAL_Driver/Src/stm32f7xx_hal_dcmi.c ****   if (hdcmi->MspDeInitCallback == NULL)
 291:Drivers/STM32F7xx_HAL_Driver/Src/stm32f7xx_hal_dcmi.c ****   {
 292:Drivers/STM32F7xx_HAL_Driver/Src/stm32f7xx_hal_dcmi.c ****     hdcmi->MspDeInitCallback = HAL_DCMI_MspDeInit;
 293:Drivers/STM32F7xx_HAL_Driver/Src/stm32f7xx_hal_dcmi.c ****   }
 294:Drivers/STM32F7xx_HAL_Driver/Src/stm32f7xx_hal_dcmi.c ****   /* De-Initialize the low level hardware (MSP) */
 295:Drivers/STM32F7xx_HAL_Driver/Src/stm32f7xx_hal_dcmi.c ****   hdcmi->MspDeInitCallback(hdcmi);
 296:Drivers/STM32F7xx_HAL_Driver/Src/stm32f7xx_hal_dcmi.c **** #else
 297:Drivers/STM32F7xx_HAL_Driver/Src/stm32f7xx_hal_dcmi.c ****   /* DeInit the low level hardware: GPIO, CLOCK, NVIC and DMA */
 298:Drivers/STM32F7xx_HAL_Driver/Src/stm32f7xx_hal_dcmi.c ****   HAL_DCMI_MspDeInit(hdcmi);
 299:Drivers/STM32F7xx_HAL_Driver/Src/stm32f7xx_hal_dcmi.c **** #endif /* (USE_HAL_DCMI_REGISTER_CALLBACKS) */
 300:Drivers/STM32F7xx_HAL_Driver/Src/stm32f7xx_hal_dcmi.c **** 
 301:Drivers/STM32F7xx_HAL_Driver/Src/stm32f7xx_hal_dcmi.c ****   /* Update error code */
 302:Drivers/STM32F7xx_HAL_Driver/Src/stm32f7xx_hal_dcmi.c ****   hdcmi->ErrorCode = HAL_DCMI_ERROR_NONE;
 303:Drivers/STM32F7xx_HAL_Driver/Src/stm32f7xx_hal_dcmi.c **** 
 304:Drivers/STM32F7xx_HAL_Driver/Src/stm32f7xx_hal_dcmi.c ****   /* Initialize the DCMI state*/
 305:Drivers/STM32F7xx_HAL_Driver/Src/stm32f7xx_hal_dcmi.c ****   hdcmi->State = HAL_DCMI_STATE_RESET;
 306:Drivers/STM32F7xx_HAL_Driver/Src/stm32f7xx_hal_dcmi.c **** 
 307:Drivers/STM32F7xx_HAL_Driver/Src/stm32f7xx_hal_dcmi.c ****   /* Release Lock */
 308:Drivers/STM32F7xx_HAL_Driver/Src/stm32f7xx_hal_dcmi.c ****   __HAL_UNLOCK(hdcmi);
 309:Drivers/STM32F7xx_HAL_Driver/Src/stm32f7xx_hal_dcmi.c **** 
 310:Drivers/STM32F7xx_HAL_Driver/Src/stm32f7xx_hal_dcmi.c ****   return HAL_OK;
 311:Drivers/STM32F7xx_HAL_Driver/Src/stm32f7xx_hal_dcmi.c **** }
 312:Drivers/STM32F7xx_HAL_Driver/Src/stm32f7xx_hal_dcmi.c **** 
 313:Drivers/STM32F7xx_HAL_Driver/Src/stm32f7xx_hal_dcmi.c **** /**
 314:Drivers/STM32F7xx_HAL_Driver/Src/stm32f7xx_hal_dcmi.c ****   * @brief  Initializes the DCMI MSP.
 315:Drivers/STM32F7xx_HAL_Driver/Src/stm32f7xx_hal_dcmi.c ****   * @param  hdcmi pointer to a DCMI_HandleTypeDef structure that contains
ARM GAS  /var/folders/fz/x0kldt2j7vs_j4slv3pyc44m0000gp/T//ccoMI1M1.s 			page 7


 316:Drivers/STM32F7xx_HAL_Driver/Src/stm32f7xx_hal_dcmi.c ****   *                the configuration information for DCMI.
 317:Drivers/STM32F7xx_HAL_Driver/Src/stm32f7xx_hal_dcmi.c ****   * @retval None
 318:Drivers/STM32F7xx_HAL_Driver/Src/stm32f7xx_hal_dcmi.c ****   */
 319:Drivers/STM32F7xx_HAL_Driver/Src/stm32f7xx_hal_dcmi.c **** __weak void HAL_DCMI_MspInit(DCMI_HandleTypeDef *hdcmi)
 320:Drivers/STM32F7xx_HAL_Driver/Src/stm32f7xx_hal_dcmi.c **** {
 321:Drivers/STM32F7xx_HAL_Driver/Src/stm32f7xx_hal_dcmi.c ****   /* Prevent unused argument(s) compilation warning */
 322:Drivers/STM32F7xx_HAL_Driver/Src/stm32f7xx_hal_dcmi.c ****   UNUSED(hdcmi);
 323:Drivers/STM32F7xx_HAL_Driver/Src/stm32f7xx_hal_dcmi.c **** 
 324:Drivers/STM32F7xx_HAL_Driver/Src/stm32f7xx_hal_dcmi.c ****   /* NOTE : This function Should not be modified, when the callback is needed,
 325:Drivers/STM32F7xx_HAL_Driver/Src/stm32f7xx_hal_dcmi.c ****             the HAL_DCMI_MspInit could be implemented in the user file
 326:Drivers/STM32F7xx_HAL_Driver/Src/stm32f7xx_hal_dcmi.c ****    */
 327:Drivers/STM32F7xx_HAL_Driver/Src/stm32f7xx_hal_dcmi.c **** }
 328:Drivers/STM32F7xx_HAL_Driver/Src/stm32f7xx_hal_dcmi.c **** 
 329:Drivers/STM32F7xx_HAL_Driver/Src/stm32f7xx_hal_dcmi.c **** /**
 330:Drivers/STM32F7xx_HAL_Driver/Src/stm32f7xx_hal_dcmi.c ****   * @brief  DeInitializes the DCMI MSP.
 331:Drivers/STM32F7xx_HAL_Driver/Src/stm32f7xx_hal_dcmi.c ****   * @param  hdcmi pointer to a DCMI_HandleTypeDef structure that contains
 332:Drivers/STM32F7xx_HAL_Driver/Src/stm32f7xx_hal_dcmi.c ****   *                the configuration information for DCMI.
 333:Drivers/STM32F7xx_HAL_Driver/Src/stm32f7xx_hal_dcmi.c ****   * @retval None
 334:Drivers/STM32F7xx_HAL_Driver/Src/stm32f7xx_hal_dcmi.c ****   */
 335:Drivers/STM32F7xx_HAL_Driver/Src/stm32f7xx_hal_dcmi.c **** __weak void HAL_DCMI_MspDeInit(DCMI_HandleTypeDef *hdcmi)
 336:Drivers/STM32F7xx_HAL_Driver/Src/stm32f7xx_hal_dcmi.c **** {
 337:Drivers/STM32F7xx_HAL_Driver/Src/stm32f7xx_hal_dcmi.c ****   /* Prevent unused argument(s) compilation warning */
 338:Drivers/STM32F7xx_HAL_Driver/Src/stm32f7xx_hal_dcmi.c ****   UNUSED(hdcmi);
 339:Drivers/STM32F7xx_HAL_Driver/Src/stm32f7xx_hal_dcmi.c **** 
 340:Drivers/STM32F7xx_HAL_Driver/Src/stm32f7xx_hal_dcmi.c ****   /* NOTE : This function Should not be modified, when the callback is needed,
 341:Drivers/STM32F7xx_HAL_Driver/Src/stm32f7xx_hal_dcmi.c ****             the HAL_DCMI_MspDeInit could be implemented in the user file
 342:Drivers/STM32F7xx_HAL_Driver/Src/stm32f7xx_hal_dcmi.c ****    */
 343:Drivers/STM32F7xx_HAL_Driver/Src/stm32f7xx_hal_dcmi.c **** }
 344:Drivers/STM32F7xx_HAL_Driver/Src/stm32f7xx_hal_dcmi.c **** 
 345:Drivers/STM32F7xx_HAL_Driver/Src/stm32f7xx_hal_dcmi.c **** /**
 346:Drivers/STM32F7xx_HAL_Driver/Src/stm32f7xx_hal_dcmi.c ****   * @}
 347:Drivers/STM32F7xx_HAL_Driver/Src/stm32f7xx_hal_dcmi.c ****   */
 348:Drivers/STM32F7xx_HAL_Driver/Src/stm32f7xx_hal_dcmi.c **** /** @defgroup DCMI_Exported_Functions_Group2 IO operation functions
 349:Drivers/STM32F7xx_HAL_Driver/Src/stm32f7xx_hal_dcmi.c ****  *  @brief   IO operation functions
 350:Drivers/STM32F7xx_HAL_Driver/Src/stm32f7xx_hal_dcmi.c ****  *
 351:Drivers/STM32F7xx_HAL_Driver/Src/stm32f7xx_hal_dcmi.c **** @verbatim
 352:Drivers/STM32F7xx_HAL_Driver/Src/stm32f7xx_hal_dcmi.c ****  ===============================================================================
 353:Drivers/STM32F7xx_HAL_Driver/Src/stm32f7xx_hal_dcmi.c ****                       #####  IO operation functions  #####
 354:Drivers/STM32F7xx_HAL_Driver/Src/stm32f7xx_hal_dcmi.c ****  ===============================================================================
 355:Drivers/STM32F7xx_HAL_Driver/Src/stm32f7xx_hal_dcmi.c ****     [..]  This section provides functions allowing to:
 356:Drivers/STM32F7xx_HAL_Driver/Src/stm32f7xx_hal_dcmi.c ****       (+) Configure destination address and data length and
 357:Drivers/STM32F7xx_HAL_Driver/Src/stm32f7xx_hal_dcmi.c ****           Enables DCMI DMA request and enables DCMI capture
 358:Drivers/STM32F7xx_HAL_Driver/Src/stm32f7xx_hal_dcmi.c ****       (+) Stop the DCMI capture.
 359:Drivers/STM32F7xx_HAL_Driver/Src/stm32f7xx_hal_dcmi.c ****       (+) Handles DCMI interrupt request.
 360:Drivers/STM32F7xx_HAL_Driver/Src/stm32f7xx_hal_dcmi.c **** 
 361:Drivers/STM32F7xx_HAL_Driver/Src/stm32f7xx_hal_dcmi.c **** @endverbatim
 362:Drivers/STM32F7xx_HAL_Driver/Src/stm32f7xx_hal_dcmi.c ****   * @{
 363:Drivers/STM32F7xx_HAL_Driver/Src/stm32f7xx_hal_dcmi.c ****   */
 364:Drivers/STM32F7xx_HAL_Driver/Src/stm32f7xx_hal_dcmi.c **** 
 365:Drivers/STM32F7xx_HAL_Driver/Src/stm32f7xx_hal_dcmi.c **** /**
 366:Drivers/STM32F7xx_HAL_Driver/Src/stm32f7xx_hal_dcmi.c ****   * @brief  Enables DCMI DMA request and enables DCMI capture
 367:Drivers/STM32F7xx_HAL_Driver/Src/stm32f7xx_hal_dcmi.c ****   * @param  hdcmi     pointer to a DCMI_HandleTypeDef structure that contains
 368:Drivers/STM32F7xx_HAL_Driver/Src/stm32f7xx_hal_dcmi.c ****   *                    the configuration information for DCMI.
 369:Drivers/STM32F7xx_HAL_Driver/Src/stm32f7xx_hal_dcmi.c ****   * @param  DCMI_Mode DCMI capture mode snapshot or continuous grab.
 370:Drivers/STM32F7xx_HAL_Driver/Src/stm32f7xx_hal_dcmi.c ****   * @param  pData     The destination memory Buffer address (LCD Frame buffer).
 371:Drivers/STM32F7xx_HAL_Driver/Src/stm32f7xx_hal_dcmi.c ****   * @param  Length    The length of capture to be transferred.
 372:Drivers/STM32F7xx_HAL_Driver/Src/stm32f7xx_hal_dcmi.c ****   * @retval HAL status
ARM GAS  /var/folders/fz/x0kldt2j7vs_j4slv3pyc44m0000gp/T//ccoMI1M1.s 			page 8


 373:Drivers/STM32F7xx_HAL_Driver/Src/stm32f7xx_hal_dcmi.c ****   */
 374:Drivers/STM32F7xx_HAL_Driver/Src/stm32f7xx_hal_dcmi.c **** HAL_StatusTypeDef HAL_DCMI_Start_DMA(DCMI_HandleTypeDef *hdcmi, uint32_t DCMI_Mode, uint32_t pData,
 375:Drivers/STM32F7xx_HAL_Driver/Src/stm32f7xx_hal_dcmi.c **** {
 376:Drivers/STM32F7xx_HAL_Driver/Src/stm32f7xx_hal_dcmi.c ****   /* Initialize the second memory address */
 377:Drivers/STM32F7xx_HAL_Driver/Src/stm32f7xx_hal_dcmi.c ****   uint32_t SecondMemAddress = 0;
 378:Drivers/STM32F7xx_HAL_Driver/Src/stm32f7xx_hal_dcmi.c **** 
 379:Drivers/STM32F7xx_HAL_Driver/Src/stm32f7xx_hal_dcmi.c ****   /* Check function parameters */
 380:Drivers/STM32F7xx_HAL_Driver/Src/stm32f7xx_hal_dcmi.c ****   assert_param(IS_DCMI_CAPTURE_MODE(DCMI_Mode));
 381:Drivers/STM32F7xx_HAL_Driver/Src/stm32f7xx_hal_dcmi.c **** 
 382:Drivers/STM32F7xx_HAL_Driver/Src/stm32f7xx_hal_dcmi.c ****   /* Process Locked */
 383:Drivers/STM32F7xx_HAL_Driver/Src/stm32f7xx_hal_dcmi.c ****   __HAL_LOCK(hdcmi);
 384:Drivers/STM32F7xx_HAL_Driver/Src/stm32f7xx_hal_dcmi.c **** 
 385:Drivers/STM32F7xx_HAL_Driver/Src/stm32f7xx_hal_dcmi.c ****   /* Lock the DCMI peripheral state */
 386:Drivers/STM32F7xx_HAL_Driver/Src/stm32f7xx_hal_dcmi.c ****   hdcmi->State = HAL_DCMI_STATE_BUSY;
 387:Drivers/STM32F7xx_HAL_Driver/Src/stm32f7xx_hal_dcmi.c **** 
 388:Drivers/STM32F7xx_HAL_Driver/Src/stm32f7xx_hal_dcmi.c ****   /* Enable DCMI by setting DCMIEN bit */
 389:Drivers/STM32F7xx_HAL_Driver/Src/stm32f7xx_hal_dcmi.c ****   __HAL_DCMI_ENABLE(hdcmi);
 390:Drivers/STM32F7xx_HAL_Driver/Src/stm32f7xx_hal_dcmi.c **** 
 391:Drivers/STM32F7xx_HAL_Driver/Src/stm32f7xx_hal_dcmi.c ****   /* Configure the DCMI Mode */
 392:Drivers/STM32F7xx_HAL_Driver/Src/stm32f7xx_hal_dcmi.c ****   hdcmi->Instance->CR &= ~(DCMI_CR_CM);
 393:Drivers/STM32F7xx_HAL_Driver/Src/stm32f7xx_hal_dcmi.c ****   hdcmi->Instance->CR |= (uint32_t)(DCMI_Mode);
 394:Drivers/STM32F7xx_HAL_Driver/Src/stm32f7xx_hal_dcmi.c **** 
 395:Drivers/STM32F7xx_HAL_Driver/Src/stm32f7xx_hal_dcmi.c ****   /* Set the DMA memory0 conversion complete callback */
 396:Drivers/STM32F7xx_HAL_Driver/Src/stm32f7xx_hal_dcmi.c ****   hdcmi->DMA_Handle->XferCpltCallback = DCMI_DMAXferCplt;
 397:Drivers/STM32F7xx_HAL_Driver/Src/stm32f7xx_hal_dcmi.c **** 
 398:Drivers/STM32F7xx_HAL_Driver/Src/stm32f7xx_hal_dcmi.c ****   /* Set the DMA error callback */
 399:Drivers/STM32F7xx_HAL_Driver/Src/stm32f7xx_hal_dcmi.c ****   hdcmi->DMA_Handle->XferErrorCallback = DCMI_DMAError;
 400:Drivers/STM32F7xx_HAL_Driver/Src/stm32f7xx_hal_dcmi.c **** 
 401:Drivers/STM32F7xx_HAL_Driver/Src/stm32f7xx_hal_dcmi.c ****   /* Set the dma abort callback */
 402:Drivers/STM32F7xx_HAL_Driver/Src/stm32f7xx_hal_dcmi.c ****   hdcmi->DMA_Handle->XferAbortCallback = NULL;
 403:Drivers/STM32F7xx_HAL_Driver/Src/stm32f7xx_hal_dcmi.c **** 
 404:Drivers/STM32F7xx_HAL_Driver/Src/stm32f7xx_hal_dcmi.c ****   /* Reset transfer counters value */
 405:Drivers/STM32F7xx_HAL_Driver/Src/stm32f7xx_hal_dcmi.c ****   hdcmi->XferCount = 0;
 406:Drivers/STM32F7xx_HAL_Driver/Src/stm32f7xx_hal_dcmi.c ****   hdcmi->XferTransferNumber = 0;
 407:Drivers/STM32F7xx_HAL_Driver/Src/stm32f7xx_hal_dcmi.c ****   hdcmi->XferSize = 0;
 408:Drivers/STM32F7xx_HAL_Driver/Src/stm32f7xx_hal_dcmi.c ****   hdcmi->pBuffPtr = 0;
 409:Drivers/STM32F7xx_HAL_Driver/Src/stm32f7xx_hal_dcmi.c **** 
 410:Drivers/STM32F7xx_HAL_Driver/Src/stm32f7xx_hal_dcmi.c ****   if (Length <= 0xFFFFU)
 411:Drivers/STM32F7xx_HAL_Driver/Src/stm32f7xx_hal_dcmi.c ****   {
 412:Drivers/STM32F7xx_HAL_Driver/Src/stm32f7xx_hal_dcmi.c ****     /* Enable the DMA Stream */
 413:Drivers/STM32F7xx_HAL_Driver/Src/stm32f7xx_hal_dcmi.c ****     if (HAL_DMA_Start_IT(hdcmi->DMA_Handle, (uint32_t)&hdcmi->Instance->DR, (uint32_t)pData, Length
 414:Drivers/STM32F7xx_HAL_Driver/Src/stm32f7xx_hal_dcmi.c ****     {
 415:Drivers/STM32F7xx_HAL_Driver/Src/stm32f7xx_hal_dcmi.c ****       return HAL_ERROR;
 416:Drivers/STM32F7xx_HAL_Driver/Src/stm32f7xx_hal_dcmi.c ****     }
 417:Drivers/STM32F7xx_HAL_Driver/Src/stm32f7xx_hal_dcmi.c ****   }
 418:Drivers/STM32F7xx_HAL_Driver/Src/stm32f7xx_hal_dcmi.c ****   else /* DCMI_DOUBLE_BUFFER Mode */
 419:Drivers/STM32F7xx_HAL_Driver/Src/stm32f7xx_hal_dcmi.c ****   {
 420:Drivers/STM32F7xx_HAL_Driver/Src/stm32f7xx_hal_dcmi.c ****     /* Set the DMA memory1 conversion complete callback */
 421:Drivers/STM32F7xx_HAL_Driver/Src/stm32f7xx_hal_dcmi.c ****     hdcmi->DMA_Handle->XferM1CpltCallback = DCMI_DMAXferCplt;
 422:Drivers/STM32F7xx_HAL_Driver/Src/stm32f7xx_hal_dcmi.c **** 
 423:Drivers/STM32F7xx_HAL_Driver/Src/stm32f7xx_hal_dcmi.c ****     /* Initialize transfer parameters */
 424:Drivers/STM32F7xx_HAL_Driver/Src/stm32f7xx_hal_dcmi.c ****     hdcmi->XferCount = 1;
 425:Drivers/STM32F7xx_HAL_Driver/Src/stm32f7xx_hal_dcmi.c ****     hdcmi->XferSize = Length;
 426:Drivers/STM32F7xx_HAL_Driver/Src/stm32f7xx_hal_dcmi.c ****     hdcmi->pBuffPtr = pData;
 427:Drivers/STM32F7xx_HAL_Driver/Src/stm32f7xx_hal_dcmi.c **** 
 428:Drivers/STM32F7xx_HAL_Driver/Src/stm32f7xx_hal_dcmi.c ****     /* Get the number of buffer */
 429:Drivers/STM32F7xx_HAL_Driver/Src/stm32f7xx_hal_dcmi.c ****     while (hdcmi->XferSize > 0xFFFFU)
ARM GAS  /var/folders/fz/x0kldt2j7vs_j4slv3pyc44m0000gp/T//ccoMI1M1.s 			page 9


 430:Drivers/STM32F7xx_HAL_Driver/Src/stm32f7xx_hal_dcmi.c ****     {
 431:Drivers/STM32F7xx_HAL_Driver/Src/stm32f7xx_hal_dcmi.c ****       hdcmi->XferSize = (hdcmi->XferSize / 2U);
 432:Drivers/STM32F7xx_HAL_Driver/Src/stm32f7xx_hal_dcmi.c ****       hdcmi->XferCount = hdcmi->XferCount * 2U;
 433:Drivers/STM32F7xx_HAL_Driver/Src/stm32f7xx_hal_dcmi.c ****     }
 434:Drivers/STM32F7xx_HAL_Driver/Src/stm32f7xx_hal_dcmi.c **** 
 435:Drivers/STM32F7xx_HAL_Driver/Src/stm32f7xx_hal_dcmi.c ****     /* Update DCMI counter  and transfer number*/
 436:Drivers/STM32F7xx_HAL_Driver/Src/stm32f7xx_hal_dcmi.c ****     hdcmi->XferCount = (hdcmi->XferCount - 2U);
 437:Drivers/STM32F7xx_HAL_Driver/Src/stm32f7xx_hal_dcmi.c ****     hdcmi->XferTransferNumber = hdcmi->XferCount;
 438:Drivers/STM32F7xx_HAL_Driver/Src/stm32f7xx_hal_dcmi.c **** 
 439:Drivers/STM32F7xx_HAL_Driver/Src/stm32f7xx_hal_dcmi.c ****     /* Update second memory address */
 440:Drivers/STM32F7xx_HAL_Driver/Src/stm32f7xx_hal_dcmi.c ****     SecondMemAddress = (uint32_t)(pData + (4 * hdcmi->XferSize));
 441:Drivers/STM32F7xx_HAL_Driver/Src/stm32f7xx_hal_dcmi.c **** 
 442:Drivers/STM32F7xx_HAL_Driver/Src/stm32f7xx_hal_dcmi.c ****     /* Start DMA multi buffer transfer */
 443:Drivers/STM32F7xx_HAL_Driver/Src/stm32f7xx_hal_dcmi.c ****     if (HAL_DMAEx_MultiBufferStart_IT(hdcmi->DMA_Handle, (uint32_t)&hdcmi->Instance->DR, (uint32_t)
 444:Drivers/STM32F7xx_HAL_Driver/Src/stm32f7xx_hal_dcmi.c ****     {
 445:Drivers/STM32F7xx_HAL_Driver/Src/stm32f7xx_hal_dcmi.c ****       return HAL_ERROR;
 446:Drivers/STM32F7xx_HAL_Driver/Src/stm32f7xx_hal_dcmi.c ****     }
 447:Drivers/STM32F7xx_HAL_Driver/Src/stm32f7xx_hal_dcmi.c ****   }
 448:Drivers/STM32F7xx_HAL_Driver/Src/stm32f7xx_hal_dcmi.c **** 
 449:Drivers/STM32F7xx_HAL_Driver/Src/stm32f7xx_hal_dcmi.c ****   /* Enable Capture */
 450:Drivers/STM32F7xx_HAL_Driver/Src/stm32f7xx_hal_dcmi.c ****   hdcmi->Instance->CR |= DCMI_CR_CAPTURE;
 451:Drivers/STM32F7xx_HAL_Driver/Src/stm32f7xx_hal_dcmi.c **** 
 452:Drivers/STM32F7xx_HAL_Driver/Src/stm32f7xx_hal_dcmi.c ****   /* Release Lock */
 453:Drivers/STM32F7xx_HAL_Driver/Src/stm32f7xx_hal_dcmi.c ****   __HAL_UNLOCK(hdcmi);
 454:Drivers/STM32F7xx_HAL_Driver/Src/stm32f7xx_hal_dcmi.c **** 
 455:Drivers/STM32F7xx_HAL_Driver/Src/stm32f7xx_hal_dcmi.c ****   /* Return function status */
 456:Drivers/STM32F7xx_HAL_Driver/Src/stm32f7xx_hal_dcmi.c ****   return HAL_OK;
 457:Drivers/STM32F7xx_HAL_Driver/Src/stm32f7xx_hal_dcmi.c **** }
 458:Drivers/STM32F7xx_HAL_Driver/Src/stm32f7xx_hal_dcmi.c **** 
 459:Drivers/STM32F7xx_HAL_Driver/Src/stm32f7xx_hal_dcmi.c **** /**
 460:Drivers/STM32F7xx_HAL_Driver/Src/stm32f7xx_hal_dcmi.c ****   * @brief  Disable DCMI DMA request and Disable DCMI capture
 461:Drivers/STM32F7xx_HAL_Driver/Src/stm32f7xx_hal_dcmi.c ****   * @param  hdcmi pointer to a DCMI_HandleTypeDef structure that contains
 462:Drivers/STM32F7xx_HAL_Driver/Src/stm32f7xx_hal_dcmi.c ****   *                the configuration information for DCMI.
 463:Drivers/STM32F7xx_HAL_Driver/Src/stm32f7xx_hal_dcmi.c ****   * @retval HAL status
 464:Drivers/STM32F7xx_HAL_Driver/Src/stm32f7xx_hal_dcmi.c ****   */
 465:Drivers/STM32F7xx_HAL_Driver/Src/stm32f7xx_hal_dcmi.c **** HAL_StatusTypeDef HAL_DCMI_Stop(DCMI_HandleTypeDef *hdcmi)
 466:Drivers/STM32F7xx_HAL_Driver/Src/stm32f7xx_hal_dcmi.c **** {
 467:Drivers/STM32F7xx_HAL_Driver/Src/stm32f7xx_hal_dcmi.c ****   register uint32_t count = HAL_TIMEOUT_DCMI_STOP * (SystemCoreClock / 8U / 1000U);
 468:Drivers/STM32F7xx_HAL_Driver/Src/stm32f7xx_hal_dcmi.c ****   HAL_StatusTypeDef status = HAL_OK;
 469:Drivers/STM32F7xx_HAL_Driver/Src/stm32f7xx_hal_dcmi.c **** 
 470:Drivers/STM32F7xx_HAL_Driver/Src/stm32f7xx_hal_dcmi.c ****   /* Process locked */
 471:Drivers/STM32F7xx_HAL_Driver/Src/stm32f7xx_hal_dcmi.c ****   __HAL_LOCK(hdcmi);
 472:Drivers/STM32F7xx_HAL_Driver/Src/stm32f7xx_hal_dcmi.c **** 
 473:Drivers/STM32F7xx_HAL_Driver/Src/stm32f7xx_hal_dcmi.c ****   /* Lock the DCMI peripheral state */
 474:Drivers/STM32F7xx_HAL_Driver/Src/stm32f7xx_hal_dcmi.c ****   hdcmi->State = HAL_DCMI_STATE_BUSY;
 475:Drivers/STM32F7xx_HAL_Driver/Src/stm32f7xx_hal_dcmi.c **** 
 476:Drivers/STM32F7xx_HAL_Driver/Src/stm32f7xx_hal_dcmi.c ****   /* Disable Capture */
 477:Drivers/STM32F7xx_HAL_Driver/Src/stm32f7xx_hal_dcmi.c ****   hdcmi->Instance->CR &= ~(DCMI_CR_CAPTURE);
 478:Drivers/STM32F7xx_HAL_Driver/Src/stm32f7xx_hal_dcmi.c **** 
 479:Drivers/STM32F7xx_HAL_Driver/Src/stm32f7xx_hal_dcmi.c ****   /* Check if the DCMI capture effectively disabled */
 480:Drivers/STM32F7xx_HAL_Driver/Src/stm32f7xx_hal_dcmi.c ****   do
 481:Drivers/STM32F7xx_HAL_Driver/Src/stm32f7xx_hal_dcmi.c ****   {
 482:Drivers/STM32F7xx_HAL_Driver/Src/stm32f7xx_hal_dcmi.c ****     if (count-- == 0U)
 483:Drivers/STM32F7xx_HAL_Driver/Src/stm32f7xx_hal_dcmi.c ****     {
 484:Drivers/STM32F7xx_HAL_Driver/Src/stm32f7xx_hal_dcmi.c ****       /* Update error code */
 485:Drivers/STM32F7xx_HAL_Driver/Src/stm32f7xx_hal_dcmi.c ****       hdcmi->ErrorCode |= HAL_DCMI_ERROR_TIMEOUT;
 486:Drivers/STM32F7xx_HAL_Driver/Src/stm32f7xx_hal_dcmi.c **** 
ARM GAS  /var/folders/fz/x0kldt2j7vs_j4slv3pyc44m0000gp/T//ccoMI1M1.s 			page 10


 487:Drivers/STM32F7xx_HAL_Driver/Src/stm32f7xx_hal_dcmi.c ****       status = HAL_TIMEOUT;
 488:Drivers/STM32F7xx_HAL_Driver/Src/stm32f7xx_hal_dcmi.c ****       break;
 489:Drivers/STM32F7xx_HAL_Driver/Src/stm32f7xx_hal_dcmi.c ****     }
 490:Drivers/STM32F7xx_HAL_Driver/Src/stm32f7xx_hal_dcmi.c ****   }
 491:Drivers/STM32F7xx_HAL_Driver/Src/stm32f7xx_hal_dcmi.c ****   while ((hdcmi->Instance->CR & DCMI_CR_CAPTURE) != 0U);
 492:Drivers/STM32F7xx_HAL_Driver/Src/stm32f7xx_hal_dcmi.c **** 
 493:Drivers/STM32F7xx_HAL_Driver/Src/stm32f7xx_hal_dcmi.c ****   /* Disable the DCMI */
 494:Drivers/STM32F7xx_HAL_Driver/Src/stm32f7xx_hal_dcmi.c ****   __HAL_DCMI_DISABLE(hdcmi);
 495:Drivers/STM32F7xx_HAL_Driver/Src/stm32f7xx_hal_dcmi.c **** 
 496:Drivers/STM32F7xx_HAL_Driver/Src/stm32f7xx_hal_dcmi.c ****   /* Disable the DMA */
 497:Drivers/STM32F7xx_HAL_Driver/Src/stm32f7xx_hal_dcmi.c ****   (void)HAL_DMA_Abort(hdcmi->DMA_Handle);
 498:Drivers/STM32F7xx_HAL_Driver/Src/stm32f7xx_hal_dcmi.c **** 
 499:Drivers/STM32F7xx_HAL_Driver/Src/stm32f7xx_hal_dcmi.c ****   /* Update error code */
 500:Drivers/STM32F7xx_HAL_Driver/Src/stm32f7xx_hal_dcmi.c ****   hdcmi->ErrorCode |= HAL_DCMI_ERROR_NONE;
 501:Drivers/STM32F7xx_HAL_Driver/Src/stm32f7xx_hal_dcmi.c **** 
 502:Drivers/STM32F7xx_HAL_Driver/Src/stm32f7xx_hal_dcmi.c ****   /* Change DCMI state */
 503:Drivers/STM32F7xx_HAL_Driver/Src/stm32f7xx_hal_dcmi.c ****   hdcmi->State = HAL_DCMI_STATE_READY;
 504:Drivers/STM32F7xx_HAL_Driver/Src/stm32f7xx_hal_dcmi.c **** 
 505:Drivers/STM32F7xx_HAL_Driver/Src/stm32f7xx_hal_dcmi.c ****   /* Process Unlocked */
 506:Drivers/STM32F7xx_HAL_Driver/Src/stm32f7xx_hal_dcmi.c ****   __HAL_UNLOCK(hdcmi);
 507:Drivers/STM32F7xx_HAL_Driver/Src/stm32f7xx_hal_dcmi.c **** 
 508:Drivers/STM32F7xx_HAL_Driver/Src/stm32f7xx_hal_dcmi.c ****   /* Return function status */
 509:Drivers/STM32F7xx_HAL_Driver/Src/stm32f7xx_hal_dcmi.c ****   return status;
 510:Drivers/STM32F7xx_HAL_Driver/Src/stm32f7xx_hal_dcmi.c **** }
 511:Drivers/STM32F7xx_HAL_Driver/Src/stm32f7xx_hal_dcmi.c **** 
 512:Drivers/STM32F7xx_HAL_Driver/Src/stm32f7xx_hal_dcmi.c **** /**
 513:Drivers/STM32F7xx_HAL_Driver/Src/stm32f7xx_hal_dcmi.c ****   * @brief  Suspend DCMI capture
 514:Drivers/STM32F7xx_HAL_Driver/Src/stm32f7xx_hal_dcmi.c ****   * @param  hdcmi pointer to a DCMI_HandleTypeDef structure that contains
 515:Drivers/STM32F7xx_HAL_Driver/Src/stm32f7xx_hal_dcmi.c ****   *                the configuration information for DCMI.
 516:Drivers/STM32F7xx_HAL_Driver/Src/stm32f7xx_hal_dcmi.c ****   * @retval HAL status
 517:Drivers/STM32F7xx_HAL_Driver/Src/stm32f7xx_hal_dcmi.c ****   */
 518:Drivers/STM32F7xx_HAL_Driver/Src/stm32f7xx_hal_dcmi.c **** HAL_StatusTypeDef HAL_DCMI_Suspend(DCMI_HandleTypeDef *hdcmi)
 519:Drivers/STM32F7xx_HAL_Driver/Src/stm32f7xx_hal_dcmi.c **** {
 520:Drivers/STM32F7xx_HAL_Driver/Src/stm32f7xx_hal_dcmi.c ****   register uint32_t count = HAL_TIMEOUT_DCMI_STOP * (SystemCoreClock / 8U / 1000U);
 521:Drivers/STM32F7xx_HAL_Driver/Src/stm32f7xx_hal_dcmi.c ****   HAL_StatusTypeDef status = HAL_OK;
 522:Drivers/STM32F7xx_HAL_Driver/Src/stm32f7xx_hal_dcmi.c **** 
 523:Drivers/STM32F7xx_HAL_Driver/Src/stm32f7xx_hal_dcmi.c ****   /* Process locked */
 524:Drivers/STM32F7xx_HAL_Driver/Src/stm32f7xx_hal_dcmi.c ****   __HAL_LOCK(hdcmi);
 525:Drivers/STM32F7xx_HAL_Driver/Src/stm32f7xx_hal_dcmi.c **** 
 526:Drivers/STM32F7xx_HAL_Driver/Src/stm32f7xx_hal_dcmi.c ****   if (hdcmi->State == HAL_DCMI_STATE_BUSY)
 527:Drivers/STM32F7xx_HAL_Driver/Src/stm32f7xx_hal_dcmi.c ****   {
 528:Drivers/STM32F7xx_HAL_Driver/Src/stm32f7xx_hal_dcmi.c ****     /* Change DCMI state */
 529:Drivers/STM32F7xx_HAL_Driver/Src/stm32f7xx_hal_dcmi.c ****     hdcmi->State = HAL_DCMI_STATE_SUSPENDED;
 530:Drivers/STM32F7xx_HAL_Driver/Src/stm32f7xx_hal_dcmi.c **** 
 531:Drivers/STM32F7xx_HAL_Driver/Src/stm32f7xx_hal_dcmi.c ****     /* Disable Capture */
 532:Drivers/STM32F7xx_HAL_Driver/Src/stm32f7xx_hal_dcmi.c ****     hdcmi->Instance->CR &= ~(DCMI_CR_CAPTURE);
 533:Drivers/STM32F7xx_HAL_Driver/Src/stm32f7xx_hal_dcmi.c **** 
 534:Drivers/STM32F7xx_HAL_Driver/Src/stm32f7xx_hal_dcmi.c ****     /* Check if the DCMI capture effectively disabled */
 535:Drivers/STM32F7xx_HAL_Driver/Src/stm32f7xx_hal_dcmi.c ****     do
 536:Drivers/STM32F7xx_HAL_Driver/Src/stm32f7xx_hal_dcmi.c ****     {
 537:Drivers/STM32F7xx_HAL_Driver/Src/stm32f7xx_hal_dcmi.c ****       if (count-- == 0U)
 538:Drivers/STM32F7xx_HAL_Driver/Src/stm32f7xx_hal_dcmi.c ****       {
 539:Drivers/STM32F7xx_HAL_Driver/Src/stm32f7xx_hal_dcmi.c ****         /* Update error code */
 540:Drivers/STM32F7xx_HAL_Driver/Src/stm32f7xx_hal_dcmi.c ****         hdcmi->ErrorCode |= HAL_DCMI_ERROR_TIMEOUT;
 541:Drivers/STM32F7xx_HAL_Driver/Src/stm32f7xx_hal_dcmi.c **** 
 542:Drivers/STM32F7xx_HAL_Driver/Src/stm32f7xx_hal_dcmi.c ****         /* Change DCMI state */
 543:Drivers/STM32F7xx_HAL_Driver/Src/stm32f7xx_hal_dcmi.c ****         hdcmi->State = HAL_DCMI_STATE_READY;
ARM GAS  /var/folders/fz/x0kldt2j7vs_j4slv3pyc44m0000gp/T//ccoMI1M1.s 			page 11


 544:Drivers/STM32F7xx_HAL_Driver/Src/stm32f7xx_hal_dcmi.c **** 
 545:Drivers/STM32F7xx_HAL_Driver/Src/stm32f7xx_hal_dcmi.c ****         status = HAL_TIMEOUT;
 546:Drivers/STM32F7xx_HAL_Driver/Src/stm32f7xx_hal_dcmi.c ****         break;
 547:Drivers/STM32F7xx_HAL_Driver/Src/stm32f7xx_hal_dcmi.c ****       }
 548:Drivers/STM32F7xx_HAL_Driver/Src/stm32f7xx_hal_dcmi.c ****     }
 549:Drivers/STM32F7xx_HAL_Driver/Src/stm32f7xx_hal_dcmi.c ****     while ((hdcmi->Instance->CR & DCMI_CR_CAPTURE) != 0U);
 550:Drivers/STM32F7xx_HAL_Driver/Src/stm32f7xx_hal_dcmi.c ****   }
 551:Drivers/STM32F7xx_HAL_Driver/Src/stm32f7xx_hal_dcmi.c ****   /* Process Unlocked */
 552:Drivers/STM32F7xx_HAL_Driver/Src/stm32f7xx_hal_dcmi.c ****   __HAL_UNLOCK(hdcmi);
 553:Drivers/STM32F7xx_HAL_Driver/Src/stm32f7xx_hal_dcmi.c **** 
 554:Drivers/STM32F7xx_HAL_Driver/Src/stm32f7xx_hal_dcmi.c ****   /* Return function status */
 555:Drivers/STM32F7xx_HAL_Driver/Src/stm32f7xx_hal_dcmi.c ****   return status;
 556:Drivers/STM32F7xx_HAL_Driver/Src/stm32f7xx_hal_dcmi.c **** }
 557:Drivers/STM32F7xx_HAL_Driver/Src/stm32f7xx_hal_dcmi.c **** 
 558:Drivers/STM32F7xx_HAL_Driver/Src/stm32f7xx_hal_dcmi.c **** /**
 559:Drivers/STM32F7xx_HAL_Driver/Src/stm32f7xx_hal_dcmi.c ****   * @brief  Resume DCMI capture
 560:Drivers/STM32F7xx_HAL_Driver/Src/stm32f7xx_hal_dcmi.c ****   * @param  hdcmi pointer to a DCMI_HandleTypeDef structure that contains
 561:Drivers/STM32F7xx_HAL_Driver/Src/stm32f7xx_hal_dcmi.c ****   *                the configuration information for DCMI.
 562:Drivers/STM32F7xx_HAL_Driver/Src/stm32f7xx_hal_dcmi.c ****   * @retval HAL status
 563:Drivers/STM32F7xx_HAL_Driver/Src/stm32f7xx_hal_dcmi.c ****   */
 564:Drivers/STM32F7xx_HAL_Driver/Src/stm32f7xx_hal_dcmi.c **** HAL_StatusTypeDef HAL_DCMI_Resume(DCMI_HandleTypeDef *hdcmi)
 565:Drivers/STM32F7xx_HAL_Driver/Src/stm32f7xx_hal_dcmi.c **** {
 566:Drivers/STM32F7xx_HAL_Driver/Src/stm32f7xx_hal_dcmi.c ****   /* Process locked */
 567:Drivers/STM32F7xx_HAL_Driver/Src/stm32f7xx_hal_dcmi.c ****   __HAL_LOCK(hdcmi);
 568:Drivers/STM32F7xx_HAL_Driver/Src/stm32f7xx_hal_dcmi.c **** 
 569:Drivers/STM32F7xx_HAL_Driver/Src/stm32f7xx_hal_dcmi.c ****   if (hdcmi->State == HAL_DCMI_STATE_SUSPENDED)
 570:Drivers/STM32F7xx_HAL_Driver/Src/stm32f7xx_hal_dcmi.c ****   {
 571:Drivers/STM32F7xx_HAL_Driver/Src/stm32f7xx_hal_dcmi.c ****     /* Change DCMI state */
 572:Drivers/STM32F7xx_HAL_Driver/Src/stm32f7xx_hal_dcmi.c ****     hdcmi->State = HAL_DCMI_STATE_BUSY;
 573:Drivers/STM32F7xx_HAL_Driver/Src/stm32f7xx_hal_dcmi.c **** 
 574:Drivers/STM32F7xx_HAL_Driver/Src/stm32f7xx_hal_dcmi.c ****     /* Disable Capture */
 575:Drivers/STM32F7xx_HAL_Driver/Src/stm32f7xx_hal_dcmi.c ****     hdcmi->Instance->CR |= DCMI_CR_CAPTURE;
 576:Drivers/STM32F7xx_HAL_Driver/Src/stm32f7xx_hal_dcmi.c ****   }
 577:Drivers/STM32F7xx_HAL_Driver/Src/stm32f7xx_hal_dcmi.c ****   /* Process Unlocked */
 578:Drivers/STM32F7xx_HAL_Driver/Src/stm32f7xx_hal_dcmi.c ****   __HAL_UNLOCK(hdcmi);
 579:Drivers/STM32F7xx_HAL_Driver/Src/stm32f7xx_hal_dcmi.c **** 
 580:Drivers/STM32F7xx_HAL_Driver/Src/stm32f7xx_hal_dcmi.c ****   /* Return function status */
 581:Drivers/STM32F7xx_HAL_Driver/Src/stm32f7xx_hal_dcmi.c ****   return HAL_OK;
 582:Drivers/STM32F7xx_HAL_Driver/Src/stm32f7xx_hal_dcmi.c **** }
 583:Drivers/STM32F7xx_HAL_Driver/Src/stm32f7xx_hal_dcmi.c **** 
 584:Drivers/STM32F7xx_HAL_Driver/Src/stm32f7xx_hal_dcmi.c **** /**
 585:Drivers/STM32F7xx_HAL_Driver/Src/stm32f7xx_hal_dcmi.c ****   * @brief  Handles DCMI interrupt request.
 586:Drivers/STM32F7xx_HAL_Driver/Src/stm32f7xx_hal_dcmi.c ****   * @param  hdcmi pointer to a DCMI_HandleTypeDef structure that contains
 587:Drivers/STM32F7xx_HAL_Driver/Src/stm32f7xx_hal_dcmi.c ****   *                the configuration information for the DCMI.
 588:Drivers/STM32F7xx_HAL_Driver/Src/stm32f7xx_hal_dcmi.c ****   * @retval None
 589:Drivers/STM32F7xx_HAL_Driver/Src/stm32f7xx_hal_dcmi.c ****   */
 590:Drivers/STM32F7xx_HAL_Driver/Src/stm32f7xx_hal_dcmi.c **** void HAL_DCMI_IRQHandler(DCMI_HandleTypeDef *hdcmi)
 591:Drivers/STM32F7xx_HAL_Driver/Src/stm32f7xx_hal_dcmi.c **** {
 592:Drivers/STM32F7xx_HAL_Driver/Src/stm32f7xx_hal_dcmi.c ****   uint32_t isr_value = READ_REG(hdcmi->Instance->MISR);
 593:Drivers/STM32F7xx_HAL_Driver/Src/stm32f7xx_hal_dcmi.c **** 
 594:Drivers/STM32F7xx_HAL_Driver/Src/stm32f7xx_hal_dcmi.c ****   /* Synchronization error interrupt management *******************************/
 595:Drivers/STM32F7xx_HAL_Driver/Src/stm32f7xx_hal_dcmi.c ****   if ((isr_value & DCMI_FLAG_ERRRI) == DCMI_FLAG_ERRRI)
 596:Drivers/STM32F7xx_HAL_Driver/Src/stm32f7xx_hal_dcmi.c ****   {
 597:Drivers/STM32F7xx_HAL_Driver/Src/stm32f7xx_hal_dcmi.c ****     /* Clear the Synchronization error flag */
 598:Drivers/STM32F7xx_HAL_Driver/Src/stm32f7xx_hal_dcmi.c ****     __HAL_DCMI_CLEAR_FLAG(hdcmi, DCMI_FLAG_ERRRI);
 599:Drivers/STM32F7xx_HAL_Driver/Src/stm32f7xx_hal_dcmi.c **** 
 600:Drivers/STM32F7xx_HAL_Driver/Src/stm32f7xx_hal_dcmi.c ****     /* Update error code */
ARM GAS  /var/folders/fz/x0kldt2j7vs_j4slv3pyc44m0000gp/T//ccoMI1M1.s 			page 12


 601:Drivers/STM32F7xx_HAL_Driver/Src/stm32f7xx_hal_dcmi.c ****     hdcmi->ErrorCode |= HAL_DCMI_ERROR_SYNC;
 602:Drivers/STM32F7xx_HAL_Driver/Src/stm32f7xx_hal_dcmi.c **** 
 603:Drivers/STM32F7xx_HAL_Driver/Src/stm32f7xx_hal_dcmi.c ****     /* Change DCMI state */
 604:Drivers/STM32F7xx_HAL_Driver/Src/stm32f7xx_hal_dcmi.c ****     hdcmi->State = HAL_DCMI_STATE_ERROR;
 605:Drivers/STM32F7xx_HAL_Driver/Src/stm32f7xx_hal_dcmi.c **** 
 606:Drivers/STM32F7xx_HAL_Driver/Src/stm32f7xx_hal_dcmi.c ****     /* Set the synchronization error callback */
 607:Drivers/STM32F7xx_HAL_Driver/Src/stm32f7xx_hal_dcmi.c ****     hdcmi->DMA_Handle->XferAbortCallback = DCMI_DMAError;
 608:Drivers/STM32F7xx_HAL_Driver/Src/stm32f7xx_hal_dcmi.c **** 
 609:Drivers/STM32F7xx_HAL_Driver/Src/stm32f7xx_hal_dcmi.c ****     /* Abort the DMA Transfer */
 610:Drivers/STM32F7xx_HAL_Driver/Src/stm32f7xx_hal_dcmi.c ****     (void)HAL_DMA_Abort_IT(hdcmi->DMA_Handle);
 611:Drivers/STM32F7xx_HAL_Driver/Src/stm32f7xx_hal_dcmi.c ****   }
 612:Drivers/STM32F7xx_HAL_Driver/Src/stm32f7xx_hal_dcmi.c ****   /* Overflow interrupt management ********************************************/
 613:Drivers/STM32F7xx_HAL_Driver/Src/stm32f7xx_hal_dcmi.c ****   if ((isr_value & DCMI_FLAG_OVRRI) == DCMI_FLAG_OVRRI)
 614:Drivers/STM32F7xx_HAL_Driver/Src/stm32f7xx_hal_dcmi.c ****   {
 615:Drivers/STM32F7xx_HAL_Driver/Src/stm32f7xx_hal_dcmi.c ****     /* Clear the Overflow flag */
 616:Drivers/STM32F7xx_HAL_Driver/Src/stm32f7xx_hal_dcmi.c ****     __HAL_DCMI_CLEAR_FLAG(hdcmi, DCMI_FLAG_OVRRI);
 617:Drivers/STM32F7xx_HAL_Driver/Src/stm32f7xx_hal_dcmi.c **** 
 618:Drivers/STM32F7xx_HAL_Driver/Src/stm32f7xx_hal_dcmi.c ****     /* Update error code */
 619:Drivers/STM32F7xx_HAL_Driver/Src/stm32f7xx_hal_dcmi.c ****     hdcmi->ErrorCode |= HAL_DCMI_ERROR_OVR;
 620:Drivers/STM32F7xx_HAL_Driver/Src/stm32f7xx_hal_dcmi.c **** 
 621:Drivers/STM32F7xx_HAL_Driver/Src/stm32f7xx_hal_dcmi.c ****     /* Change DCMI state */
 622:Drivers/STM32F7xx_HAL_Driver/Src/stm32f7xx_hal_dcmi.c ****     hdcmi->State = HAL_DCMI_STATE_ERROR;
 623:Drivers/STM32F7xx_HAL_Driver/Src/stm32f7xx_hal_dcmi.c **** 
 624:Drivers/STM32F7xx_HAL_Driver/Src/stm32f7xx_hal_dcmi.c ****     /* Set the overflow callback */
 625:Drivers/STM32F7xx_HAL_Driver/Src/stm32f7xx_hal_dcmi.c ****     hdcmi->DMA_Handle->XferAbortCallback = DCMI_DMAError;
 626:Drivers/STM32F7xx_HAL_Driver/Src/stm32f7xx_hal_dcmi.c **** 
 627:Drivers/STM32F7xx_HAL_Driver/Src/stm32f7xx_hal_dcmi.c ****     /* Abort the DMA Transfer */
 628:Drivers/STM32F7xx_HAL_Driver/Src/stm32f7xx_hal_dcmi.c ****     if (HAL_DMA_Abort_IT(hdcmi->DMA_Handle) != HAL_OK)
 629:Drivers/STM32F7xx_HAL_Driver/Src/stm32f7xx_hal_dcmi.c ****     {
 630:Drivers/STM32F7xx_HAL_Driver/Src/stm32f7xx_hal_dcmi.c ****       DCMI_DMAError(hdcmi->DMA_Handle);
 631:Drivers/STM32F7xx_HAL_Driver/Src/stm32f7xx_hal_dcmi.c ****     }
 632:Drivers/STM32F7xx_HAL_Driver/Src/stm32f7xx_hal_dcmi.c ****   }
 633:Drivers/STM32F7xx_HAL_Driver/Src/stm32f7xx_hal_dcmi.c ****   /* Line Interrupt management ************************************************/
 634:Drivers/STM32F7xx_HAL_Driver/Src/stm32f7xx_hal_dcmi.c ****   if ((isr_value & DCMI_FLAG_LINERI) == DCMI_FLAG_LINERI)
 635:Drivers/STM32F7xx_HAL_Driver/Src/stm32f7xx_hal_dcmi.c ****   {
 636:Drivers/STM32F7xx_HAL_Driver/Src/stm32f7xx_hal_dcmi.c ****     /* Clear the Line interrupt flag */
 637:Drivers/STM32F7xx_HAL_Driver/Src/stm32f7xx_hal_dcmi.c ****     __HAL_DCMI_CLEAR_FLAG(hdcmi, DCMI_FLAG_LINERI);
 638:Drivers/STM32F7xx_HAL_Driver/Src/stm32f7xx_hal_dcmi.c **** 
 639:Drivers/STM32F7xx_HAL_Driver/Src/stm32f7xx_hal_dcmi.c ****     /* Line interrupt Callback */
 640:Drivers/STM32F7xx_HAL_Driver/Src/stm32f7xx_hal_dcmi.c **** #if (USE_HAL_DCMI_REGISTER_CALLBACKS == 1)
 641:Drivers/STM32F7xx_HAL_Driver/Src/stm32f7xx_hal_dcmi.c ****     /*Call registered DCMI line event callback*/
 642:Drivers/STM32F7xx_HAL_Driver/Src/stm32f7xx_hal_dcmi.c ****     hdcmi->LineEventCallback(hdcmi);
 643:Drivers/STM32F7xx_HAL_Driver/Src/stm32f7xx_hal_dcmi.c **** #else
 644:Drivers/STM32F7xx_HAL_Driver/Src/stm32f7xx_hal_dcmi.c ****     HAL_DCMI_LineEventCallback(hdcmi);
 645:Drivers/STM32F7xx_HAL_Driver/Src/stm32f7xx_hal_dcmi.c **** #endif /* USE_HAL_DCMI_REGISTER_CALLBACKS */
 646:Drivers/STM32F7xx_HAL_Driver/Src/stm32f7xx_hal_dcmi.c ****   }
 647:Drivers/STM32F7xx_HAL_Driver/Src/stm32f7xx_hal_dcmi.c ****   /* VSYNC interrupt management ***********************************************/
 648:Drivers/STM32F7xx_HAL_Driver/Src/stm32f7xx_hal_dcmi.c ****   if ((isr_value & DCMI_FLAG_VSYNCRI) == DCMI_FLAG_VSYNCRI)
 649:Drivers/STM32F7xx_HAL_Driver/Src/stm32f7xx_hal_dcmi.c ****   {
 650:Drivers/STM32F7xx_HAL_Driver/Src/stm32f7xx_hal_dcmi.c ****     /* Clear the VSYNC flag */
 651:Drivers/STM32F7xx_HAL_Driver/Src/stm32f7xx_hal_dcmi.c ****     __HAL_DCMI_CLEAR_FLAG(hdcmi, DCMI_FLAG_VSYNCRI);
 652:Drivers/STM32F7xx_HAL_Driver/Src/stm32f7xx_hal_dcmi.c **** 
 653:Drivers/STM32F7xx_HAL_Driver/Src/stm32f7xx_hal_dcmi.c ****     /* VSYNC Callback */
 654:Drivers/STM32F7xx_HAL_Driver/Src/stm32f7xx_hal_dcmi.c **** #if (USE_HAL_DCMI_REGISTER_CALLBACKS == 1)
 655:Drivers/STM32F7xx_HAL_Driver/Src/stm32f7xx_hal_dcmi.c ****     /*Call registered DCMI vsync event callback*/
 656:Drivers/STM32F7xx_HAL_Driver/Src/stm32f7xx_hal_dcmi.c ****     hdcmi->VsyncEventCallback(hdcmi);
 657:Drivers/STM32F7xx_HAL_Driver/Src/stm32f7xx_hal_dcmi.c **** #else
ARM GAS  /var/folders/fz/x0kldt2j7vs_j4slv3pyc44m0000gp/T//ccoMI1M1.s 			page 13


 658:Drivers/STM32F7xx_HAL_Driver/Src/stm32f7xx_hal_dcmi.c ****     HAL_DCMI_VsyncEventCallback(hdcmi);
 659:Drivers/STM32F7xx_HAL_Driver/Src/stm32f7xx_hal_dcmi.c **** #endif /* USE_HAL_DCMI_REGISTER_CALLBACKS */
 660:Drivers/STM32F7xx_HAL_Driver/Src/stm32f7xx_hal_dcmi.c ****   }
 661:Drivers/STM32F7xx_HAL_Driver/Src/stm32f7xx_hal_dcmi.c ****   /* FRAME interrupt management ***********************************************/
 662:Drivers/STM32F7xx_HAL_Driver/Src/stm32f7xx_hal_dcmi.c ****   if ((isr_value & DCMI_FLAG_FRAMERI) == DCMI_FLAG_FRAMERI)
 663:Drivers/STM32F7xx_HAL_Driver/Src/stm32f7xx_hal_dcmi.c ****   {
 664:Drivers/STM32F7xx_HAL_Driver/Src/stm32f7xx_hal_dcmi.c ****     /* When snapshot mode, disable Vsync, Error and Overrun interrupts */
 665:Drivers/STM32F7xx_HAL_Driver/Src/stm32f7xx_hal_dcmi.c ****     if ((hdcmi->Instance->CR & DCMI_CR_CM) == DCMI_MODE_SNAPSHOT)
 666:Drivers/STM32F7xx_HAL_Driver/Src/stm32f7xx_hal_dcmi.c ****     {
 667:Drivers/STM32F7xx_HAL_Driver/Src/stm32f7xx_hal_dcmi.c ****       /* Disable the Line, Vsync, Error and Overrun interrupts */
 668:Drivers/STM32F7xx_HAL_Driver/Src/stm32f7xx_hal_dcmi.c ****       __HAL_DCMI_DISABLE_IT(hdcmi, DCMI_IT_LINE | DCMI_IT_VSYNC | DCMI_IT_ERR | DCMI_IT_OVR);
 669:Drivers/STM32F7xx_HAL_Driver/Src/stm32f7xx_hal_dcmi.c ****     }
 670:Drivers/STM32F7xx_HAL_Driver/Src/stm32f7xx_hal_dcmi.c **** 
 671:Drivers/STM32F7xx_HAL_Driver/Src/stm32f7xx_hal_dcmi.c ****     /* Disable the Frame interrupt */
 672:Drivers/STM32F7xx_HAL_Driver/Src/stm32f7xx_hal_dcmi.c ****     __HAL_DCMI_DISABLE_IT(hdcmi, DCMI_IT_FRAME);
 673:Drivers/STM32F7xx_HAL_Driver/Src/stm32f7xx_hal_dcmi.c **** 
 674:Drivers/STM32F7xx_HAL_Driver/Src/stm32f7xx_hal_dcmi.c ****     /* Clear the End of Frame flag */
 675:Drivers/STM32F7xx_HAL_Driver/Src/stm32f7xx_hal_dcmi.c ****     __HAL_DCMI_CLEAR_FLAG(hdcmi, DCMI_FLAG_FRAMERI);
 676:Drivers/STM32F7xx_HAL_Driver/Src/stm32f7xx_hal_dcmi.c **** 
 677:Drivers/STM32F7xx_HAL_Driver/Src/stm32f7xx_hal_dcmi.c ****     /* Frame Callback */
 678:Drivers/STM32F7xx_HAL_Driver/Src/stm32f7xx_hal_dcmi.c **** #if (USE_HAL_DCMI_REGISTER_CALLBACKS == 1)
 679:Drivers/STM32F7xx_HAL_Driver/Src/stm32f7xx_hal_dcmi.c ****     /*Call registered DCMI frame event callback*/
 680:Drivers/STM32F7xx_HAL_Driver/Src/stm32f7xx_hal_dcmi.c ****     hdcmi->FrameEventCallback(hdcmi);
 681:Drivers/STM32F7xx_HAL_Driver/Src/stm32f7xx_hal_dcmi.c **** #else
 682:Drivers/STM32F7xx_HAL_Driver/Src/stm32f7xx_hal_dcmi.c ****     HAL_DCMI_FrameEventCallback(hdcmi);
 683:Drivers/STM32F7xx_HAL_Driver/Src/stm32f7xx_hal_dcmi.c **** #endif /* USE_HAL_DCMI_REGISTER_CALLBACKS */
 684:Drivers/STM32F7xx_HAL_Driver/Src/stm32f7xx_hal_dcmi.c ****   }
 685:Drivers/STM32F7xx_HAL_Driver/Src/stm32f7xx_hal_dcmi.c **** }
 686:Drivers/STM32F7xx_HAL_Driver/Src/stm32f7xx_hal_dcmi.c **** 
 687:Drivers/STM32F7xx_HAL_Driver/Src/stm32f7xx_hal_dcmi.c **** /**
 688:Drivers/STM32F7xx_HAL_Driver/Src/stm32f7xx_hal_dcmi.c ****   * @brief  Error DCMI callback.
 689:Drivers/STM32F7xx_HAL_Driver/Src/stm32f7xx_hal_dcmi.c ****   * @param  hdcmi pointer to a DCMI_HandleTypeDef structure that contains
 690:Drivers/STM32F7xx_HAL_Driver/Src/stm32f7xx_hal_dcmi.c ****   *                the configuration information for DCMI.
 691:Drivers/STM32F7xx_HAL_Driver/Src/stm32f7xx_hal_dcmi.c ****   * @retval None
 692:Drivers/STM32F7xx_HAL_Driver/Src/stm32f7xx_hal_dcmi.c ****   */
 693:Drivers/STM32F7xx_HAL_Driver/Src/stm32f7xx_hal_dcmi.c **** __weak void HAL_DCMI_ErrorCallback(DCMI_HandleTypeDef *hdcmi)
 694:Drivers/STM32F7xx_HAL_Driver/Src/stm32f7xx_hal_dcmi.c **** {
 695:Drivers/STM32F7xx_HAL_Driver/Src/stm32f7xx_hal_dcmi.c ****   /* Prevent unused argument(s) compilation warning */
 696:Drivers/STM32F7xx_HAL_Driver/Src/stm32f7xx_hal_dcmi.c ****   UNUSED(hdcmi);
 697:Drivers/STM32F7xx_HAL_Driver/Src/stm32f7xx_hal_dcmi.c **** 
 698:Drivers/STM32F7xx_HAL_Driver/Src/stm32f7xx_hal_dcmi.c ****   /* NOTE : This function Should not be modified, when the callback is needed,
 699:Drivers/STM32F7xx_HAL_Driver/Src/stm32f7xx_hal_dcmi.c ****             the HAL_DCMI_ErrorCallback could be implemented in the user file
 700:Drivers/STM32F7xx_HAL_Driver/Src/stm32f7xx_hal_dcmi.c ****    */
 701:Drivers/STM32F7xx_HAL_Driver/Src/stm32f7xx_hal_dcmi.c **** }
 702:Drivers/STM32F7xx_HAL_Driver/Src/stm32f7xx_hal_dcmi.c **** 
 703:Drivers/STM32F7xx_HAL_Driver/Src/stm32f7xx_hal_dcmi.c **** /**
 704:Drivers/STM32F7xx_HAL_Driver/Src/stm32f7xx_hal_dcmi.c ****   * @brief  Line Event callback.
 705:Drivers/STM32F7xx_HAL_Driver/Src/stm32f7xx_hal_dcmi.c ****   * @param  hdcmi pointer to a DCMI_HandleTypeDef structure that contains
 706:Drivers/STM32F7xx_HAL_Driver/Src/stm32f7xx_hal_dcmi.c ****   *                the configuration information for DCMI.
 707:Drivers/STM32F7xx_HAL_Driver/Src/stm32f7xx_hal_dcmi.c ****   * @retval None
 708:Drivers/STM32F7xx_HAL_Driver/Src/stm32f7xx_hal_dcmi.c ****   */
 709:Drivers/STM32F7xx_HAL_Driver/Src/stm32f7xx_hal_dcmi.c **** __weak void HAL_DCMI_LineEventCallback(DCMI_HandleTypeDef *hdcmi)
 710:Drivers/STM32F7xx_HAL_Driver/Src/stm32f7xx_hal_dcmi.c **** {
 711:Drivers/STM32F7xx_HAL_Driver/Src/stm32f7xx_hal_dcmi.c ****   /* NOTE : This function Should not be modified, when the callback is needed,
 712:Drivers/STM32F7xx_HAL_Driver/Src/stm32f7xx_hal_dcmi.c ****             the HAL_DCMI_LineEventCallback could be implemented in the user file
 713:Drivers/STM32F7xx_HAL_Driver/Src/stm32f7xx_hal_dcmi.c ****    */
 714:Drivers/STM32F7xx_HAL_Driver/Src/stm32f7xx_hal_dcmi.c **** }
ARM GAS  /var/folders/fz/x0kldt2j7vs_j4slv3pyc44m0000gp/T//ccoMI1M1.s 			page 14


 715:Drivers/STM32F7xx_HAL_Driver/Src/stm32f7xx_hal_dcmi.c **** 
 716:Drivers/STM32F7xx_HAL_Driver/Src/stm32f7xx_hal_dcmi.c **** /**
 717:Drivers/STM32F7xx_HAL_Driver/Src/stm32f7xx_hal_dcmi.c ****   * @brief  VSYNC Event callback.
 718:Drivers/STM32F7xx_HAL_Driver/Src/stm32f7xx_hal_dcmi.c ****   * @param  hdcmi pointer to a DCMI_HandleTypeDef structure that contains
 719:Drivers/STM32F7xx_HAL_Driver/Src/stm32f7xx_hal_dcmi.c ****   *                the configuration information for DCMI.
 720:Drivers/STM32F7xx_HAL_Driver/Src/stm32f7xx_hal_dcmi.c ****   * @retval None
 721:Drivers/STM32F7xx_HAL_Driver/Src/stm32f7xx_hal_dcmi.c ****   */
 722:Drivers/STM32F7xx_HAL_Driver/Src/stm32f7xx_hal_dcmi.c **** __weak void HAL_DCMI_VsyncEventCallback(DCMI_HandleTypeDef *hdcmi)
 723:Drivers/STM32F7xx_HAL_Driver/Src/stm32f7xx_hal_dcmi.c **** {
 724:Drivers/STM32F7xx_HAL_Driver/Src/stm32f7xx_hal_dcmi.c ****   /* Prevent unused argument(s) compilation warning */
 725:Drivers/STM32F7xx_HAL_Driver/Src/stm32f7xx_hal_dcmi.c ****   UNUSED(hdcmi);
 726:Drivers/STM32F7xx_HAL_Driver/Src/stm32f7xx_hal_dcmi.c **** 
 727:Drivers/STM32F7xx_HAL_Driver/Src/stm32f7xx_hal_dcmi.c ****   /* NOTE : This function Should not be modified, when the callback is needed,
 728:Drivers/STM32F7xx_HAL_Driver/Src/stm32f7xx_hal_dcmi.c ****             the HAL_DCMI_VsyncEventCallback could be implemented in the user file
 729:Drivers/STM32F7xx_HAL_Driver/Src/stm32f7xx_hal_dcmi.c ****    */
 730:Drivers/STM32F7xx_HAL_Driver/Src/stm32f7xx_hal_dcmi.c **** }
 731:Drivers/STM32F7xx_HAL_Driver/Src/stm32f7xx_hal_dcmi.c **** 
 732:Drivers/STM32F7xx_HAL_Driver/Src/stm32f7xx_hal_dcmi.c **** /**
 733:Drivers/STM32F7xx_HAL_Driver/Src/stm32f7xx_hal_dcmi.c ****   * @brief  Frame Event callback.
 734:Drivers/STM32F7xx_HAL_Driver/Src/stm32f7xx_hal_dcmi.c ****   * @param  hdcmi pointer to a DCMI_HandleTypeDef structure that contains
 735:Drivers/STM32F7xx_HAL_Driver/Src/stm32f7xx_hal_dcmi.c ****   *                the configuration information for DCMI.
 736:Drivers/STM32F7xx_HAL_Driver/Src/stm32f7xx_hal_dcmi.c ****   * @retval None
 737:Drivers/STM32F7xx_HAL_Driver/Src/stm32f7xx_hal_dcmi.c ****   */
 738:Drivers/STM32F7xx_HAL_Driver/Src/stm32f7xx_hal_dcmi.c **** __weak void HAL_DCMI_FrameEventCallback(DCMI_HandleTypeDef *hdcmi)
 739:Drivers/STM32F7xx_HAL_Driver/Src/stm32f7xx_hal_dcmi.c **** {
 740:Drivers/STM32F7xx_HAL_Driver/Src/stm32f7xx_hal_dcmi.c ****   /* Prevent unused argument(s) compilation warning */
 741:Drivers/STM32F7xx_HAL_Driver/Src/stm32f7xx_hal_dcmi.c ****   UNUSED(hdcmi);
 742:Drivers/STM32F7xx_HAL_Driver/Src/stm32f7xx_hal_dcmi.c **** 
 743:Drivers/STM32F7xx_HAL_Driver/Src/stm32f7xx_hal_dcmi.c ****   /* NOTE : This function Should not be modified, when the callback is needed,
 744:Drivers/STM32F7xx_HAL_Driver/Src/stm32f7xx_hal_dcmi.c ****             the HAL_DCMI_FrameEventCallback could be implemented in the user file
 745:Drivers/STM32F7xx_HAL_Driver/Src/stm32f7xx_hal_dcmi.c ****    */
 746:Drivers/STM32F7xx_HAL_Driver/Src/stm32f7xx_hal_dcmi.c **** }
 747:Drivers/STM32F7xx_HAL_Driver/Src/stm32f7xx_hal_dcmi.c **** 
 748:Drivers/STM32F7xx_HAL_Driver/Src/stm32f7xx_hal_dcmi.c **** /**
 749:Drivers/STM32F7xx_HAL_Driver/Src/stm32f7xx_hal_dcmi.c ****   * @}
 750:Drivers/STM32F7xx_HAL_Driver/Src/stm32f7xx_hal_dcmi.c ****   */
 751:Drivers/STM32F7xx_HAL_Driver/Src/stm32f7xx_hal_dcmi.c **** 
 752:Drivers/STM32F7xx_HAL_Driver/Src/stm32f7xx_hal_dcmi.c **** /** @defgroup DCMI_Exported_Functions_Group3 Peripheral Control functions
 753:Drivers/STM32F7xx_HAL_Driver/Src/stm32f7xx_hal_dcmi.c ****  *  @brief    Peripheral Control functions
 754:Drivers/STM32F7xx_HAL_Driver/Src/stm32f7xx_hal_dcmi.c ****  *
 755:Drivers/STM32F7xx_HAL_Driver/Src/stm32f7xx_hal_dcmi.c **** @verbatim
 756:Drivers/STM32F7xx_HAL_Driver/Src/stm32f7xx_hal_dcmi.c ****  ===============================================================================
 757:Drivers/STM32F7xx_HAL_Driver/Src/stm32f7xx_hal_dcmi.c ****                     ##### Peripheral Control functions #####
 758:Drivers/STM32F7xx_HAL_Driver/Src/stm32f7xx_hal_dcmi.c ****  ===============================================================================
 759:Drivers/STM32F7xx_HAL_Driver/Src/stm32f7xx_hal_dcmi.c **** [..]  This section provides functions allowing to:
 760:Drivers/STM32F7xx_HAL_Driver/Src/stm32f7xx_hal_dcmi.c ****       (+) Configure the CROP feature.
 761:Drivers/STM32F7xx_HAL_Driver/Src/stm32f7xx_hal_dcmi.c ****       (+) Enable/Disable the CROP feature.
 762:Drivers/STM32F7xx_HAL_Driver/Src/stm32f7xx_hal_dcmi.c ****       (+) Set embedded synchronization delimiters unmasks.
 763:Drivers/STM32F7xx_HAL_Driver/Src/stm32f7xx_hal_dcmi.c **** 
 764:Drivers/STM32F7xx_HAL_Driver/Src/stm32f7xx_hal_dcmi.c **** @endverbatim
 765:Drivers/STM32F7xx_HAL_Driver/Src/stm32f7xx_hal_dcmi.c ****   * @{
 766:Drivers/STM32F7xx_HAL_Driver/Src/stm32f7xx_hal_dcmi.c ****   */
 767:Drivers/STM32F7xx_HAL_Driver/Src/stm32f7xx_hal_dcmi.c **** 
 768:Drivers/STM32F7xx_HAL_Driver/Src/stm32f7xx_hal_dcmi.c **** /**
 769:Drivers/STM32F7xx_HAL_Driver/Src/stm32f7xx_hal_dcmi.c ****   * @brief  Configure the DCMI CROP coordinate.
 770:Drivers/STM32F7xx_HAL_Driver/Src/stm32f7xx_hal_dcmi.c ****   * @param  hdcmi pointer to a DCMI_HandleTypeDef structure that contains
 771:Drivers/STM32F7xx_HAL_Driver/Src/stm32f7xx_hal_dcmi.c ****   *                the configuration information for DCMI.
ARM GAS  /var/folders/fz/x0kldt2j7vs_j4slv3pyc44m0000gp/T//ccoMI1M1.s 			page 15


 772:Drivers/STM32F7xx_HAL_Driver/Src/stm32f7xx_hal_dcmi.c ****   * @param  YSize DCMI Line number
 773:Drivers/STM32F7xx_HAL_Driver/Src/stm32f7xx_hal_dcmi.c ****   * @param  XSize DCMI Pixel per line
 774:Drivers/STM32F7xx_HAL_Driver/Src/stm32f7xx_hal_dcmi.c ****   * @param  X0    DCMI window X offset
 775:Drivers/STM32F7xx_HAL_Driver/Src/stm32f7xx_hal_dcmi.c ****   * @param  Y0    DCMI window Y offset
 776:Drivers/STM32F7xx_HAL_Driver/Src/stm32f7xx_hal_dcmi.c ****   * @retval HAL status
 777:Drivers/STM32F7xx_HAL_Driver/Src/stm32f7xx_hal_dcmi.c ****   */
 778:Drivers/STM32F7xx_HAL_Driver/Src/stm32f7xx_hal_dcmi.c **** HAL_StatusTypeDef HAL_DCMI_ConfigCrop(DCMI_HandleTypeDef *hdcmi, uint32_t X0, uint32_t Y0, uint32_t
 779:Drivers/STM32F7xx_HAL_Driver/Src/stm32f7xx_hal_dcmi.c **** {
 780:Drivers/STM32F7xx_HAL_Driver/Src/stm32f7xx_hal_dcmi.c ****   /* Process Locked */
 781:Drivers/STM32F7xx_HAL_Driver/Src/stm32f7xx_hal_dcmi.c ****   __HAL_LOCK(hdcmi);
 782:Drivers/STM32F7xx_HAL_Driver/Src/stm32f7xx_hal_dcmi.c **** 
 783:Drivers/STM32F7xx_HAL_Driver/Src/stm32f7xx_hal_dcmi.c ****   /* Lock the DCMI peripheral state */
 784:Drivers/STM32F7xx_HAL_Driver/Src/stm32f7xx_hal_dcmi.c ****   hdcmi->State = HAL_DCMI_STATE_BUSY;
 785:Drivers/STM32F7xx_HAL_Driver/Src/stm32f7xx_hal_dcmi.c **** 
 786:Drivers/STM32F7xx_HAL_Driver/Src/stm32f7xx_hal_dcmi.c ****   /* Check the parameters */
 787:Drivers/STM32F7xx_HAL_Driver/Src/stm32f7xx_hal_dcmi.c ****   assert_param(IS_DCMI_WINDOW_COORDINATE(X0));
 788:Drivers/STM32F7xx_HAL_Driver/Src/stm32f7xx_hal_dcmi.c ****   assert_param(IS_DCMI_WINDOW_HEIGHT(Y0));
 789:Drivers/STM32F7xx_HAL_Driver/Src/stm32f7xx_hal_dcmi.c ****   assert_param(IS_DCMI_WINDOW_COORDINATE(XSize));
 790:Drivers/STM32F7xx_HAL_Driver/Src/stm32f7xx_hal_dcmi.c ****   assert_param(IS_DCMI_WINDOW_COORDINATE(YSize));
 791:Drivers/STM32F7xx_HAL_Driver/Src/stm32f7xx_hal_dcmi.c **** 
 792:Drivers/STM32F7xx_HAL_Driver/Src/stm32f7xx_hal_dcmi.c ****   /* Configure CROP */
 793:Drivers/STM32F7xx_HAL_Driver/Src/stm32f7xx_hal_dcmi.c ****   hdcmi->Instance->CWSIZER = (XSize | (YSize << DCMI_CWSIZE_VLINE_Pos));
 794:Drivers/STM32F7xx_HAL_Driver/Src/stm32f7xx_hal_dcmi.c ****   hdcmi->Instance->CWSTRTR = (X0 | (Y0 << DCMI_CWSTRT_VST_Pos));
 795:Drivers/STM32F7xx_HAL_Driver/Src/stm32f7xx_hal_dcmi.c **** 
 796:Drivers/STM32F7xx_HAL_Driver/Src/stm32f7xx_hal_dcmi.c ****   /* Initialize the DCMI state*/
 797:Drivers/STM32F7xx_HAL_Driver/Src/stm32f7xx_hal_dcmi.c ****   hdcmi->State  = HAL_DCMI_STATE_READY;
 798:Drivers/STM32F7xx_HAL_Driver/Src/stm32f7xx_hal_dcmi.c **** 
 799:Drivers/STM32F7xx_HAL_Driver/Src/stm32f7xx_hal_dcmi.c ****   /* Process Unlocked */
 800:Drivers/STM32F7xx_HAL_Driver/Src/stm32f7xx_hal_dcmi.c ****   __HAL_UNLOCK(hdcmi);
 801:Drivers/STM32F7xx_HAL_Driver/Src/stm32f7xx_hal_dcmi.c **** 
 802:Drivers/STM32F7xx_HAL_Driver/Src/stm32f7xx_hal_dcmi.c ****   return HAL_OK;
 803:Drivers/STM32F7xx_HAL_Driver/Src/stm32f7xx_hal_dcmi.c **** }
 804:Drivers/STM32F7xx_HAL_Driver/Src/stm32f7xx_hal_dcmi.c **** 
 805:Drivers/STM32F7xx_HAL_Driver/Src/stm32f7xx_hal_dcmi.c **** /**
 806:Drivers/STM32F7xx_HAL_Driver/Src/stm32f7xx_hal_dcmi.c ****   * @brief  Disable the Crop feature.
 807:Drivers/STM32F7xx_HAL_Driver/Src/stm32f7xx_hal_dcmi.c ****   * @param  hdcmi pointer to a DCMI_HandleTypeDef structure that contains
 808:Drivers/STM32F7xx_HAL_Driver/Src/stm32f7xx_hal_dcmi.c ****   *                the configuration information for DCMI.
 809:Drivers/STM32F7xx_HAL_Driver/Src/stm32f7xx_hal_dcmi.c ****   * @retval HAL status
 810:Drivers/STM32F7xx_HAL_Driver/Src/stm32f7xx_hal_dcmi.c ****   */
 811:Drivers/STM32F7xx_HAL_Driver/Src/stm32f7xx_hal_dcmi.c **** HAL_StatusTypeDef HAL_DCMI_DisableCrop(DCMI_HandleTypeDef *hdcmi)
 812:Drivers/STM32F7xx_HAL_Driver/Src/stm32f7xx_hal_dcmi.c **** {
 813:Drivers/STM32F7xx_HAL_Driver/Src/stm32f7xx_hal_dcmi.c ****   /* Process Locked */
 814:Drivers/STM32F7xx_HAL_Driver/Src/stm32f7xx_hal_dcmi.c ****   __HAL_LOCK(hdcmi);
 815:Drivers/STM32F7xx_HAL_Driver/Src/stm32f7xx_hal_dcmi.c **** 
 816:Drivers/STM32F7xx_HAL_Driver/Src/stm32f7xx_hal_dcmi.c ****   /* Lock the DCMI peripheral state */
 817:Drivers/STM32F7xx_HAL_Driver/Src/stm32f7xx_hal_dcmi.c ****   hdcmi->State = HAL_DCMI_STATE_BUSY;
 818:Drivers/STM32F7xx_HAL_Driver/Src/stm32f7xx_hal_dcmi.c **** 
 819:Drivers/STM32F7xx_HAL_Driver/Src/stm32f7xx_hal_dcmi.c ****   /* Disable DCMI Crop feature */
 820:Drivers/STM32F7xx_HAL_Driver/Src/stm32f7xx_hal_dcmi.c ****   hdcmi->Instance->CR &= ~(uint32_t)DCMI_CR_CROP;
 821:Drivers/STM32F7xx_HAL_Driver/Src/stm32f7xx_hal_dcmi.c **** 
 822:Drivers/STM32F7xx_HAL_Driver/Src/stm32f7xx_hal_dcmi.c ****   /* Change the DCMI state*/
 823:Drivers/STM32F7xx_HAL_Driver/Src/stm32f7xx_hal_dcmi.c ****   hdcmi->State = HAL_DCMI_STATE_READY;
 824:Drivers/STM32F7xx_HAL_Driver/Src/stm32f7xx_hal_dcmi.c **** 
 825:Drivers/STM32F7xx_HAL_Driver/Src/stm32f7xx_hal_dcmi.c ****   /* Process Unlocked */
 826:Drivers/STM32F7xx_HAL_Driver/Src/stm32f7xx_hal_dcmi.c ****   __HAL_UNLOCK(hdcmi);
 827:Drivers/STM32F7xx_HAL_Driver/Src/stm32f7xx_hal_dcmi.c **** 
 828:Drivers/STM32F7xx_HAL_Driver/Src/stm32f7xx_hal_dcmi.c ****   return HAL_OK;
ARM GAS  /var/folders/fz/x0kldt2j7vs_j4slv3pyc44m0000gp/T//ccoMI1M1.s 			page 16


 829:Drivers/STM32F7xx_HAL_Driver/Src/stm32f7xx_hal_dcmi.c **** }
 830:Drivers/STM32F7xx_HAL_Driver/Src/stm32f7xx_hal_dcmi.c **** 
 831:Drivers/STM32F7xx_HAL_Driver/Src/stm32f7xx_hal_dcmi.c **** /**
 832:Drivers/STM32F7xx_HAL_Driver/Src/stm32f7xx_hal_dcmi.c ****   * @brief  Enable the Crop feature.
 833:Drivers/STM32F7xx_HAL_Driver/Src/stm32f7xx_hal_dcmi.c ****   * @param  hdcmi pointer to a DCMI_HandleTypeDef structure that contains
 834:Drivers/STM32F7xx_HAL_Driver/Src/stm32f7xx_hal_dcmi.c ****   *                the configuration information for DCMI.
 835:Drivers/STM32F7xx_HAL_Driver/Src/stm32f7xx_hal_dcmi.c ****   * @retval HAL status
 836:Drivers/STM32F7xx_HAL_Driver/Src/stm32f7xx_hal_dcmi.c ****   */
 837:Drivers/STM32F7xx_HAL_Driver/Src/stm32f7xx_hal_dcmi.c **** HAL_StatusTypeDef HAL_DCMI_EnableCrop(DCMI_HandleTypeDef *hdcmi)
 838:Drivers/STM32F7xx_HAL_Driver/Src/stm32f7xx_hal_dcmi.c **** {
 839:Drivers/STM32F7xx_HAL_Driver/Src/stm32f7xx_hal_dcmi.c ****   /* Process Locked */
 840:Drivers/STM32F7xx_HAL_Driver/Src/stm32f7xx_hal_dcmi.c ****   __HAL_LOCK(hdcmi);
 841:Drivers/STM32F7xx_HAL_Driver/Src/stm32f7xx_hal_dcmi.c **** 
 842:Drivers/STM32F7xx_HAL_Driver/Src/stm32f7xx_hal_dcmi.c ****   /* Lock the DCMI peripheral state */
 843:Drivers/STM32F7xx_HAL_Driver/Src/stm32f7xx_hal_dcmi.c ****   hdcmi->State = HAL_DCMI_STATE_BUSY;
 844:Drivers/STM32F7xx_HAL_Driver/Src/stm32f7xx_hal_dcmi.c **** 
 845:Drivers/STM32F7xx_HAL_Driver/Src/stm32f7xx_hal_dcmi.c ****   /* Enable DCMI Crop feature */
 846:Drivers/STM32F7xx_HAL_Driver/Src/stm32f7xx_hal_dcmi.c ****   hdcmi->Instance->CR |= (uint32_t)DCMI_CR_CROP;
 847:Drivers/STM32F7xx_HAL_Driver/Src/stm32f7xx_hal_dcmi.c **** 
 848:Drivers/STM32F7xx_HAL_Driver/Src/stm32f7xx_hal_dcmi.c ****   /* Change the DCMI state*/
 849:Drivers/STM32F7xx_HAL_Driver/Src/stm32f7xx_hal_dcmi.c ****   hdcmi->State = HAL_DCMI_STATE_READY;
 850:Drivers/STM32F7xx_HAL_Driver/Src/stm32f7xx_hal_dcmi.c **** 
 851:Drivers/STM32F7xx_HAL_Driver/Src/stm32f7xx_hal_dcmi.c ****   /* Process Unlocked */
 852:Drivers/STM32F7xx_HAL_Driver/Src/stm32f7xx_hal_dcmi.c ****   __HAL_UNLOCK(hdcmi);
 853:Drivers/STM32F7xx_HAL_Driver/Src/stm32f7xx_hal_dcmi.c **** 
 854:Drivers/STM32F7xx_HAL_Driver/Src/stm32f7xx_hal_dcmi.c ****   return HAL_OK;
 855:Drivers/STM32F7xx_HAL_Driver/Src/stm32f7xx_hal_dcmi.c **** }
 856:Drivers/STM32F7xx_HAL_Driver/Src/stm32f7xx_hal_dcmi.c **** 
 857:Drivers/STM32F7xx_HAL_Driver/Src/stm32f7xx_hal_dcmi.c **** /**
 858:Drivers/STM32F7xx_HAL_Driver/Src/stm32f7xx_hal_dcmi.c ****   * @brief  Set embedded synchronization delimiters unmasks.
 859:Drivers/STM32F7xx_HAL_Driver/Src/stm32f7xx_hal_dcmi.c ****   * @param  hdcmi pointer to a DCMI_HandleTypeDef structure that contains
 860:Drivers/STM32F7xx_HAL_Driver/Src/stm32f7xx_hal_dcmi.c ****   *               the configuration information for DCMI.
 861:Drivers/STM32F7xx_HAL_Driver/Src/stm32f7xx_hal_dcmi.c ****   * @param  SyncUnmask pointer to a DCMI_SyncUnmaskTypeDef structure that contains
 862:Drivers/STM32F7xx_HAL_Driver/Src/stm32f7xx_hal_dcmi.c ****   *                    the embedded synchronization delimiters unmasks.
 863:Drivers/STM32F7xx_HAL_Driver/Src/stm32f7xx_hal_dcmi.c ****   * @retval HAL status
 864:Drivers/STM32F7xx_HAL_Driver/Src/stm32f7xx_hal_dcmi.c ****   */
 865:Drivers/STM32F7xx_HAL_Driver/Src/stm32f7xx_hal_dcmi.c **** HAL_StatusTypeDef  HAL_DCMI_ConfigSyncUnmask(DCMI_HandleTypeDef *hdcmi, DCMI_SyncUnmaskTypeDef *Syn
 866:Drivers/STM32F7xx_HAL_Driver/Src/stm32f7xx_hal_dcmi.c **** {
 867:Drivers/STM32F7xx_HAL_Driver/Src/stm32f7xx_hal_dcmi.c ****   /* Process Locked */
 868:Drivers/STM32F7xx_HAL_Driver/Src/stm32f7xx_hal_dcmi.c ****   __HAL_LOCK(hdcmi);
 869:Drivers/STM32F7xx_HAL_Driver/Src/stm32f7xx_hal_dcmi.c **** 
 870:Drivers/STM32F7xx_HAL_Driver/Src/stm32f7xx_hal_dcmi.c ****   /* Lock the DCMI peripheral state */
 871:Drivers/STM32F7xx_HAL_Driver/Src/stm32f7xx_hal_dcmi.c ****   hdcmi->State = HAL_DCMI_STATE_BUSY;
 872:Drivers/STM32F7xx_HAL_Driver/Src/stm32f7xx_hal_dcmi.c **** 
 873:Drivers/STM32F7xx_HAL_Driver/Src/stm32f7xx_hal_dcmi.c ****   /* Write DCMI embedded synchronization unmask register */
 874:Drivers/STM32F7xx_HAL_Driver/Src/stm32f7xx_hal_dcmi.c ****   hdcmi->Instance->ESUR = (((uint32_t)SyncUnmask->FrameStartUnmask) | \
 875:Drivers/STM32F7xx_HAL_Driver/Src/stm32f7xx_hal_dcmi.c ****                            ((uint32_t)SyncUnmask->LineStartUnmask << DCMI_ESUR_LSU_Pos) | \
 876:Drivers/STM32F7xx_HAL_Driver/Src/stm32f7xx_hal_dcmi.c ****                            ((uint32_t)SyncUnmask->LineEndUnmask << DCMI_ESUR_LEU_Pos) | \
 877:Drivers/STM32F7xx_HAL_Driver/Src/stm32f7xx_hal_dcmi.c ****                            ((uint32_t)SyncUnmask->FrameEndUnmask << DCMI_ESUR_FEU_Pos));
 878:Drivers/STM32F7xx_HAL_Driver/Src/stm32f7xx_hal_dcmi.c **** 
 879:Drivers/STM32F7xx_HAL_Driver/Src/stm32f7xx_hal_dcmi.c ****   /* Change the DCMI state*/
 880:Drivers/STM32F7xx_HAL_Driver/Src/stm32f7xx_hal_dcmi.c ****   hdcmi->State = HAL_DCMI_STATE_READY;
 881:Drivers/STM32F7xx_HAL_Driver/Src/stm32f7xx_hal_dcmi.c **** 
 882:Drivers/STM32F7xx_HAL_Driver/Src/stm32f7xx_hal_dcmi.c ****   /* Process Unlocked */
 883:Drivers/STM32F7xx_HAL_Driver/Src/stm32f7xx_hal_dcmi.c ****   __HAL_UNLOCK(hdcmi);
 884:Drivers/STM32F7xx_HAL_Driver/Src/stm32f7xx_hal_dcmi.c **** 
 885:Drivers/STM32F7xx_HAL_Driver/Src/stm32f7xx_hal_dcmi.c ****   return HAL_OK;
ARM GAS  /var/folders/fz/x0kldt2j7vs_j4slv3pyc44m0000gp/T//ccoMI1M1.s 			page 17


 886:Drivers/STM32F7xx_HAL_Driver/Src/stm32f7xx_hal_dcmi.c **** }
 887:Drivers/STM32F7xx_HAL_Driver/Src/stm32f7xx_hal_dcmi.c **** 
 888:Drivers/STM32F7xx_HAL_Driver/Src/stm32f7xx_hal_dcmi.c **** /**
 889:Drivers/STM32F7xx_HAL_Driver/Src/stm32f7xx_hal_dcmi.c ****   * @}
 890:Drivers/STM32F7xx_HAL_Driver/Src/stm32f7xx_hal_dcmi.c ****   */
 891:Drivers/STM32F7xx_HAL_Driver/Src/stm32f7xx_hal_dcmi.c **** 
 892:Drivers/STM32F7xx_HAL_Driver/Src/stm32f7xx_hal_dcmi.c **** /** @defgroup DCMI_Exported_Functions_Group4 Peripheral State functions
 893:Drivers/STM32F7xx_HAL_Driver/Src/stm32f7xx_hal_dcmi.c ****  *  @brief    Peripheral State functions
 894:Drivers/STM32F7xx_HAL_Driver/Src/stm32f7xx_hal_dcmi.c ****  *
 895:Drivers/STM32F7xx_HAL_Driver/Src/stm32f7xx_hal_dcmi.c **** @verbatim
 896:Drivers/STM32F7xx_HAL_Driver/Src/stm32f7xx_hal_dcmi.c ****  ===============================================================================
 897:Drivers/STM32F7xx_HAL_Driver/Src/stm32f7xx_hal_dcmi.c ****                ##### Peripheral State and Errors functions #####
 898:Drivers/STM32F7xx_HAL_Driver/Src/stm32f7xx_hal_dcmi.c ****  ===============================================================================
 899:Drivers/STM32F7xx_HAL_Driver/Src/stm32f7xx_hal_dcmi.c ****     [..]
 900:Drivers/STM32F7xx_HAL_Driver/Src/stm32f7xx_hal_dcmi.c ****     This subsection provides functions allowing to
 901:Drivers/STM32F7xx_HAL_Driver/Src/stm32f7xx_hal_dcmi.c ****       (+) Check the DCMI state.
 902:Drivers/STM32F7xx_HAL_Driver/Src/stm32f7xx_hal_dcmi.c ****       (+) Get the specific DCMI error flag.
 903:Drivers/STM32F7xx_HAL_Driver/Src/stm32f7xx_hal_dcmi.c **** 
 904:Drivers/STM32F7xx_HAL_Driver/Src/stm32f7xx_hal_dcmi.c **** @endverbatim
 905:Drivers/STM32F7xx_HAL_Driver/Src/stm32f7xx_hal_dcmi.c ****   * @{
 906:Drivers/STM32F7xx_HAL_Driver/Src/stm32f7xx_hal_dcmi.c ****   */
 907:Drivers/STM32F7xx_HAL_Driver/Src/stm32f7xx_hal_dcmi.c **** 
 908:Drivers/STM32F7xx_HAL_Driver/Src/stm32f7xx_hal_dcmi.c **** /**
 909:Drivers/STM32F7xx_HAL_Driver/Src/stm32f7xx_hal_dcmi.c ****   * @brief  Return the DCMI state
 910:Drivers/STM32F7xx_HAL_Driver/Src/stm32f7xx_hal_dcmi.c ****   * @param  hdcmi pointer to a DCMI_HandleTypeDef structure that contains
 911:Drivers/STM32F7xx_HAL_Driver/Src/stm32f7xx_hal_dcmi.c ****   *                the configuration information for DCMI.
 912:Drivers/STM32F7xx_HAL_Driver/Src/stm32f7xx_hal_dcmi.c ****   * @retval HAL state
 913:Drivers/STM32F7xx_HAL_Driver/Src/stm32f7xx_hal_dcmi.c ****   */
 914:Drivers/STM32F7xx_HAL_Driver/Src/stm32f7xx_hal_dcmi.c **** HAL_DCMI_StateTypeDef HAL_DCMI_GetState(DCMI_HandleTypeDef *hdcmi)
 915:Drivers/STM32F7xx_HAL_Driver/Src/stm32f7xx_hal_dcmi.c **** {
 916:Drivers/STM32F7xx_HAL_Driver/Src/stm32f7xx_hal_dcmi.c ****   return hdcmi->State;
 917:Drivers/STM32F7xx_HAL_Driver/Src/stm32f7xx_hal_dcmi.c **** }
 918:Drivers/STM32F7xx_HAL_Driver/Src/stm32f7xx_hal_dcmi.c **** 
 919:Drivers/STM32F7xx_HAL_Driver/Src/stm32f7xx_hal_dcmi.c **** /**
 920:Drivers/STM32F7xx_HAL_Driver/Src/stm32f7xx_hal_dcmi.c **** * @brief  Return the DCMI error code
 921:Drivers/STM32F7xx_HAL_Driver/Src/stm32f7xx_hal_dcmi.c **** * @param  hdcmi  pointer to a DCMI_HandleTypeDef structure that contains
 922:Drivers/STM32F7xx_HAL_Driver/Src/stm32f7xx_hal_dcmi.c ****   *               the configuration information for DCMI.
 923:Drivers/STM32F7xx_HAL_Driver/Src/stm32f7xx_hal_dcmi.c **** * @retval DCMI Error Code
 924:Drivers/STM32F7xx_HAL_Driver/Src/stm32f7xx_hal_dcmi.c **** */
 925:Drivers/STM32F7xx_HAL_Driver/Src/stm32f7xx_hal_dcmi.c **** uint32_t HAL_DCMI_GetError(DCMI_HandleTypeDef *hdcmi)
 926:Drivers/STM32F7xx_HAL_Driver/Src/stm32f7xx_hal_dcmi.c **** {
 927:Drivers/STM32F7xx_HAL_Driver/Src/stm32f7xx_hal_dcmi.c ****   return hdcmi->ErrorCode;
 928:Drivers/STM32F7xx_HAL_Driver/Src/stm32f7xx_hal_dcmi.c **** }
 929:Drivers/STM32F7xx_HAL_Driver/Src/stm32f7xx_hal_dcmi.c **** 
 930:Drivers/STM32F7xx_HAL_Driver/Src/stm32f7xx_hal_dcmi.c **** #if (USE_HAL_DCMI_REGISTER_CALLBACKS == 1)
 931:Drivers/STM32F7xx_HAL_Driver/Src/stm32f7xx_hal_dcmi.c **** /**
 932:Drivers/STM32F7xx_HAL_Driver/Src/stm32f7xx_hal_dcmi.c ****   * @brief DCMI Callback registering
 933:Drivers/STM32F7xx_HAL_Driver/Src/stm32f7xx_hal_dcmi.c ****   * @param hdcmi        pointer to a DCMI_HandleTypeDef structure that contains
 934:Drivers/STM32F7xx_HAL_Driver/Src/stm32f7xx_hal_dcmi.c ****   *                     the configuration information for DCMI.
 935:Drivers/STM32F7xx_HAL_Driver/Src/stm32f7xx_hal_dcmi.c ****   * @param CallbackID   dcmi Callback ID
 936:Drivers/STM32F7xx_HAL_Driver/Src/stm32f7xx_hal_dcmi.c ****   * @param pCallback    pointer to DCMI_CallbackTypeDef structure
 937:Drivers/STM32F7xx_HAL_Driver/Src/stm32f7xx_hal_dcmi.c ****   * @retval status
 938:Drivers/STM32F7xx_HAL_Driver/Src/stm32f7xx_hal_dcmi.c ****   */
 939:Drivers/STM32F7xx_HAL_Driver/Src/stm32f7xx_hal_dcmi.c **** HAL_StatusTypeDef HAL_DCMI_RegisterCallback(DCMI_HandleTypeDef *hdcmi, HAL_DCMI_CallbackIDTypeDef C
 940:Drivers/STM32F7xx_HAL_Driver/Src/stm32f7xx_hal_dcmi.c **** {
 941:Drivers/STM32F7xx_HAL_Driver/Src/stm32f7xx_hal_dcmi.c ****   HAL_StatusTypeDef status = HAL_OK;
 942:Drivers/STM32F7xx_HAL_Driver/Src/stm32f7xx_hal_dcmi.c **** 
ARM GAS  /var/folders/fz/x0kldt2j7vs_j4slv3pyc44m0000gp/T//ccoMI1M1.s 			page 18


 943:Drivers/STM32F7xx_HAL_Driver/Src/stm32f7xx_hal_dcmi.c ****   if (pCallback == NULL)
 944:Drivers/STM32F7xx_HAL_Driver/Src/stm32f7xx_hal_dcmi.c ****   {
 945:Drivers/STM32F7xx_HAL_Driver/Src/stm32f7xx_hal_dcmi.c ****     /* update the error code */
 946:Drivers/STM32F7xx_HAL_Driver/Src/stm32f7xx_hal_dcmi.c ****     hdcmi->ErrorCode |= HAL_DCMI_ERROR_INVALID_CALLBACK;
 947:Drivers/STM32F7xx_HAL_Driver/Src/stm32f7xx_hal_dcmi.c ****     /* update return status */
 948:Drivers/STM32F7xx_HAL_Driver/Src/stm32f7xx_hal_dcmi.c ****     status = HAL_ERROR;
 949:Drivers/STM32F7xx_HAL_Driver/Src/stm32f7xx_hal_dcmi.c ****   }
 950:Drivers/STM32F7xx_HAL_Driver/Src/stm32f7xx_hal_dcmi.c ****   else
 951:Drivers/STM32F7xx_HAL_Driver/Src/stm32f7xx_hal_dcmi.c ****   {
 952:Drivers/STM32F7xx_HAL_Driver/Src/stm32f7xx_hal_dcmi.c ****     if (hdcmi->State == HAL_DCMI_STATE_READY)
 953:Drivers/STM32F7xx_HAL_Driver/Src/stm32f7xx_hal_dcmi.c ****     {
 954:Drivers/STM32F7xx_HAL_Driver/Src/stm32f7xx_hal_dcmi.c ****       switch (CallbackID)
 955:Drivers/STM32F7xx_HAL_Driver/Src/stm32f7xx_hal_dcmi.c ****       {
 956:Drivers/STM32F7xx_HAL_Driver/Src/stm32f7xx_hal_dcmi.c ****         case HAL_DCMI_FRAME_EVENT_CB_ID :
 957:Drivers/STM32F7xx_HAL_Driver/Src/stm32f7xx_hal_dcmi.c ****           hdcmi->FrameEventCallback = pCallback;
 958:Drivers/STM32F7xx_HAL_Driver/Src/stm32f7xx_hal_dcmi.c ****           break;
 959:Drivers/STM32F7xx_HAL_Driver/Src/stm32f7xx_hal_dcmi.c **** 
 960:Drivers/STM32F7xx_HAL_Driver/Src/stm32f7xx_hal_dcmi.c ****         case HAL_DCMI_VSYNC_EVENT_CB_ID :
 961:Drivers/STM32F7xx_HAL_Driver/Src/stm32f7xx_hal_dcmi.c ****           hdcmi->VsyncEventCallback = pCallback;
 962:Drivers/STM32F7xx_HAL_Driver/Src/stm32f7xx_hal_dcmi.c ****           break;
 963:Drivers/STM32F7xx_HAL_Driver/Src/stm32f7xx_hal_dcmi.c **** 
 964:Drivers/STM32F7xx_HAL_Driver/Src/stm32f7xx_hal_dcmi.c ****         case HAL_DCMI_LINE_EVENT_CB_ID :
 965:Drivers/STM32F7xx_HAL_Driver/Src/stm32f7xx_hal_dcmi.c ****           hdcmi->LineEventCallback = pCallback;
 966:Drivers/STM32F7xx_HAL_Driver/Src/stm32f7xx_hal_dcmi.c ****           break;
 967:Drivers/STM32F7xx_HAL_Driver/Src/stm32f7xx_hal_dcmi.c **** 
 968:Drivers/STM32F7xx_HAL_Driver/Src/stm32f7xx_hal_dcmi.c ****         case HAL_DCMI_ERROR_CB_ID :
 969:Drivers/STM32F7xx_HAL_Driver/Src/stm32f7xx_hal_dcmi.c ****           hdcmi->ErrorCallback = pCallback;
 970:Drivers/STM32F7xx_HAL_Driver/Src/stm32f7xx_hal_dcmi.c ****           break;
 971:Drivers/STM32F7xx_HAL_Driver/Src/stm32f7xx_hal_dcmi.c **** 
 972:Drivers/STM32F7xx_HAL_Driver/Src/stm32f7xx_hal_dcmi.c ****         case HAL_DCMI_MSPINIT_CB_ID :
 973:Drivers/STM32F7xx_HAL_Driver/Src/stm32f7xx_hal_dcmi.c ****           hdcmi->MspInitCallback = pCallback;
 974:Drivers/STM32F7xx_HAL_Driver/Src/stm32f7xx_hal_dcmi.c ****           break;
 975:Drivers/STM32F7xx_HAL_Driver/Src/stm32f7xx_hal_dcmi.c **** 
 976:Drivers/STM32F7xx_HAL_Driver/Src/stm32f7xx_hal_dcmi.c ****         case HAL_DCMI_MSPDEINIT_CB_ID :
 977:Drivers/STM32F7xx_HAL_Driver/Src/stm32f7xx_hal_dcmi.c ****           hdcmi->MspDeInitCallback = pCallback;
 978:Drivers/STM32F7xx_HAL_Driver/Src/stm32f7xx_hal_dcmi.c ****           break;
 979:Drivers/STM32F7xx_HAL_Driver/Src/stm32f7xx_hal_dcmi.c **** 
 980:Drivers/STM32F7xx_HAL_Driver/Src/stm32f7xx_hal_dcmi.c ****         default :
 981:Drivers/STM32F7xx_HAL_Driver/Src/stm32f7xx_hal_dcmi.c ****           /* Return error status */
 982:Drivers/STM32F7xx_HAL_Driver/Src/stm32f7xx_hal_dcmi.c ****           status =  HAL_ERROR;
 983:Drivers/STM32F7xx_HAL_Driver/Src/stm32f7xx_hal_dcmi.c ****           break;
 984:Drivers/STM32F7xx_HAL_Driver/Src/stm32f7xx_hal_dcmi.c ****       }
 985:Drivers/STM32F7xx_HAL_Driver/Src/stm32f7xx_hal_dcmi.c ****     }
 986:Drivers/STM32F7xx_HAL_Driver/Src/stm32f7xx_hal_dcmi.c ****     else if (hdcmi->State == HAL_DCMI_STATE_RESET)
 987:Drivers/STM32F7xx_HAL_Driver/Src/stm32f7xx_hal_dcmi.c ****     {
 988:Drivers/STM32F7xx_HAL_Driver/Src/stm32f7xx_hal_dcmi.c ****       switch (CallbackID)
 989:Drivers/STM32F7xx_HAL_Driver/Src/stm32f7xx_hal_dcmi.c ****       {
 990:Drivers/STM32F7xx_HAL_Driver/Src/stm32f7xx_hal_dcmi.c ****         case HAL_DCMI_MSPINIT_CB_ID :
 991:Drivers/STM32F7xx_HAL_Driver/Src/stm32f7xx_hal_dcmi.c ****           hdcmi->MspInitCallback = pCallback;
 992:Drivers/STM32F7xx_HAL_Driver/Src/stm32f7xx_hal_dcmi.c ****           break;
 993:Drivers/STM32F7xx_HAL_Driver/Src/stm32f7xx_hal_dcmi.c **** 
 994:Drivers/STM32F7xx_HAL_Driver/Src/stm32f7xx_hal_dcmi.c ****         case HAL_DCMI_MSPDEINIT_CB_ID :
 995:Drivers/STM32F7xx_HAL_Driver/Src/stm32f7xx_hal_dcmi.c ****           hdcmi->MspDeInitCallback = pCallback;
 996:Drivers/STM32F7xx_HAL_Driver/Src/stm32f7xx_hal_dcmi.c ****           break;
 997:Drivers/STM32F7xx_HAL_Driver/Src/stm32f7xx_hal_dcmi.c **** 
 998:Drivers/STM32F7xx_HAL_Driver/Src/stm32f7xx_hal_dcmi.c ****         default :
 999:Drivers/STM32F7xx_HAL_Driver/Src/stm32f7xx_hal_dcmi.c ****           /* update the error code */
ARM GAS  /var/folders/fz/x0kldt2j7vs_j4slv3pyc44m0000gp/T//ccoMI1M1.s 			page 19


1000:Drivers/STM32F7xx_HAL_Driver/Src/stm32f7xx_hal_dcmi.c ****           hdcmi->ErrorCode |= HAL_DCMI_ERROR_INVALID_CALLBACK;
1001:Drivers/STM32F7xx_HAL_Driver/Src/stm32f7xx_hal_dcmi.c ****           /* update return status */
1002:Drivers/STM32F7xx_HAL_Driver/Src/stm32f7xx_hal_dcmi.c ****           status = HAL_ERROR;
1003:Drivers/STM32F7xx_HAL_Driver/Src/stm32f7xx_hal_dcmi.c ****           break;
1004:Drivers/STM32F7xx_HAL_Driver/Src/stm32f7xx_hal_dcmi.c ****       }
1005:Drivers/STM32F7xx_HAL_Driver/Src/stm32f7xx_hal_dcmi.c ****     }
1006:Drivers/STM32F7xx_HAL_Driver/Src/stm32f7xx_hal_dcmi.c ****     else
1007:Drivers/STM32F7xx_HAL_Driver/Src/stm32f7xx_hal_dcmi.c ****     {
1008:Drivers/STM32F7xx_HAL_Driver/Src/stm32f7xx_hal_dcmi.c ****       /* update the error code */
1009:Drivers/STM32F7xx_HAL_Driver/Src/stm32f7xx_hal_dcmi.c ****       hdcmi->ErrorCode |= HAL_DCMI_ERROR_INVALID_CALLBACK;
1010:Drivers/STM32F7xx_HAL_Driver/Src/stm32f7xx_hal_dcmi.c ****       /* update return status */
1011:Drivers/STM32F7xx_HAL_Driver/Src/stm32f7xx_hal_dcmi.c ****       status = HAL_ERROR;
1012:Drivers/STM32F7xx_HAL_Driver/Src/stm32f7xx_hal_dcmi.c ****     }
1013:Drivers/STM32F7xx_HAL_Driver/Src/stm32f7xx_hal_dcmi.c ****   }
1014:Drivers/STM32F7xx_HAL_Driver/Src/stm32f7xx_hal_dcmi.c **** 
1015:Drivers/STM32F7xx_HAL_Driver/Src/stm32f7xx_hal_dcmi.c ****   return status;
1016:Drivers/STM32F7xx_HAL_Driver/Src/stm32f7xx_hal_dcmi.c **** }
1017:Drivers/STM32F7xx_HAL_Driver/Src/stm32f7xx_hal_dcmi.c **** 
1018:Drivers/STM32F7xx_HAL_Driver/Src/stm32f7xx_hal_dcmi.c **** /**
1019:Drivers/STM32F7xx_HAL_Driver/Src/stm32f7xx_hal_dcmi.c ****   * @brief DCMI Callback Unregistering
1020:Drivers/STM32F7xx_HAL_Driver/Src/stm32f7xx_hal_dcmi.c ****   * @param hdcmi       dcmi handle
1021:Drivers/STM32F7xx_HAL_Driver/Src/stm32f7xx_hal_dcmi.c ****   * @param CallbackID  dcmi Callback ID
1022:Drivers/STM32F7xx_HAL_Driver/Src/stm32f7xx_hal_dcmi.c ****   * @retval status
1023:Drivers/STM32F7xx_HAL_Driver/Src/stm32f7xx_hal_dcmi.c ****   */
1024:Drivers/STM32F7xx_HAL_Driver/Src/stm32f7xx_hal_dcmi.c **** HAL_StatusTypeDef HAL_DCMI_UnRegisterCallback(DCMI_HandleTypeDef *hdcmi, HAL_DCMI_CallbackIDTypeDef
1025:Drivers/STM32F7xx_HAL_Driver/Src/stm32f7xx_hal_dcmi.c **** {
1026:Drivers/STM32F7xx_HAL_Driver/Src/stm32f7xx_hal_dcmi.c ****   HAL_StatusTypeDef status = HAL_OK;
1027:Drivers/STM32F7xx_HAL_Driver/Src/stm32f7xx_hal_dcmi.c **** 
1028:Drivers/STM32F7xx_HAL_Driver/Src/stm32f7xx_hal_dcmi.c ****   if (hdcmi->State == HAL_DCMI_STATE_READY)
1029:Drivers/STM32F7xx_HAL_Driver/Src/stm32f7xx_hal_dcmi.c ****   {
1030:Drivers/STM32F7xx_HAL_Driver/Src/stm32f7xx_hal_dcmi.c ****     switch (CallbackID)
1031:Drivers/STM32F7xx_HAL_Driver/Src/stm32f7xx_hal_dcmi.c ****     {
1032:Drivers/STM32F7xx_HAL_Driver/Src/stm32f7xx_hal_dcmi.c ****       case HAL_DCMI_FRAME_EVENT_CB_ID :
1033:Drivers/STM32F7xx_HAL_Driver/Src/stm32f7xx_hal_dcmi.c ****         hdcmi->FrameEventCallback = HAL_DCMI_FrameEventCallback;  /* Legacy weak  FrameEventCallbac
1034:Drivers/STM32F7xx_HAL_Driver/Src/stm32f7xx_hal_dcmi.c ****         break;
1035:Drivers/STM32F7xx_HAL_Driver/Src/stm32f7xx_hal_dcmi.c **** 
1036:Drivers/STM32F7xx_HAL_Driver/Src/stm32f7xx_hal_dcmi.c ****       case HAL_DCMI_VSYNC_EVENT_CB_ID :
1037:Drivers/STM32F7xx_HAL_Driver/Src/stm32f7xx_hal_dcmi.c ****         hdcmi->VsyncEventCallback = HAL_DCMI_VsyncEventCallback;  /* Legacy weak VsyncEventCallback
1038:Drivers/STM32F7xx_HAL_Driver/Src/stm32f7xx_hal_dcmi.c ****         break;
1039:Drivers/STM32F7xx_HAL_Driver/Src/stm32f7xx_hal_dcmi.c **** 
1040:Drivers/STM32F7xx_HAL_Driver/Src/stm32f7xx_hal_dcmi.c ****       case HAL_DCMI_LINE_EVENT_CB_ID :
1041:Drivers/STM32F7xx_HAL_Driver/Src/stm32f7xx_hal_dcmi.c ****         hdcmi->LineEventCallback = HAL_DCMI_LineEventCallback;    /* Legacy weak LineEventCallback 
1042:Drivers/STM32F7xx_HAL_Driver/Src/stm32f7xx_hal_dcmi.c ****         break;
1043:Drivers/STM32F7xx_HAL_Driver/Src/stm32f7xx_hal_dcmi.c **** 
1044:Drivers/STM32F7xx_HAL_Driver/Src/stm32f7xx_hal_dcmi.c ****       case HAL_DCMI_ERROR_CB_ID :
1045:Drivers/STM32F7xx_HAL_Driver/Src/stm32f7xx_hal_dcmi.c ****         hdcmi->ErrorCallback = HAL_DCMI_ErrorCallback;           /* Legacy weak ErrorCallback      
1046:Drivers/STM32F7xx_HAL_Driver/Src/stm32f7xx_hal_dcmi.c ****         break;
1047:Drivers/STM32F7xx_HAL_Driver/Src/stm32f7xx_hal_dcmi.c **** 
1048:Drivers/STM32F7xx_HAL_Driver/Src/stm32f7xx_hal_dcmi.c ****       case HAL_DCMI_MSPINIT_CB_ID :
1049:Drivers/STM32F7xx_HAL_Driver/Src/stm32f7xx_hal_dcmi.c ****         hdcmi->MspInitCallback = HAL_DCMI_MspInit;
1050:Drivers/STM32F7xx_HAL_Driver/Src/stm32f7xx_hal_dcmi.c ****         break;
1051:Drivers/STM32F7xx_HAL_Driver/Src/stm32f7xx_hal_dcmi.c **** 
1052:Drivers/STM32F7xx_HAL_Driver/Src/stm32f7xx_hal_dcmi.c ****       case HAL_DCMI_MSPDEINIT_CB_ID :
1053:Drivers/STM32F7xx_HAL_Driver/Src/stm32f7xx_hal_dcmi.c ****         hdcmi->MspDeInitCallback = HAL_DCMI_MspDeInit;
1054:Drivers/STM32F7xx_HAL_Driver/Src/stm32f7xx_hal_dcmi.c ****         break;
1055:Drivers/STM32F7xx_HAL_Driver/Src/stm32f7xx_hal_dcmi.c **** 
1056:Drivers/STM32F7xx_HAL_Driver/Src/stm32f7xx_hal_dcmi.c ****       default :
ARM GAS  /var/folders/fz/x0kldt2j7vs_j4slv3pyc44m0000gp/T//ccoMI1M1.s 			page 20


1057:Drivers/STM32F7xx_HAL_Driver/Src/stm32f7xx_hal_dcmi.c ****         /* update the error code */
1058:Drivers/STM32F7xx_HAL_Driver/Src/stm32f7xx_hal_dcmi.c ****         hdcmi->ErrorCode |= HAL_DCMI_ERROR_INVALID_CALLBACK;
1059:Drivers/STM32F7xx_HAL_Driver/Src/stm32f7xx_hal_dcmi.c ****         /* update return status */
1060:Drivers/STM32F7xx_HAL_Driver/Src/stm32f7xx_hal_dcmi.c ****         status = HAL_ERROR;
1061:Drivers/STM32F7xx_HAL_Driver/Src/stm32f7xx_hal_dcmi.c ****         break;
1062:Drivers/STM32F7xx_HAL_Driver/Src/stm32f7xx_hal_dcmi.c ****     }
1063:Drivers/STM32F7xx_HAL_Driver/Src/stm32f7xx_hal_dcmi.c ****   }
1064:Drivers/STM32F7xx_HAL_Driver/Src/stm32f7xx_hal_dcmi.c ****   else if (hdcmi->State == HAL_DCMI_STATE_RESET)
1065:Drivers/STM32F7xx_HAL_Driver/Src/stm32f7xx_hal_dcmi.c ****   {
1066:Drivers/STM32F7xx_HAL_Driver/Src/stm32f7xx_hal_dcmi.c ****     switch (CallbackID)
1067:Drivers/STM32F7xx_HAL_Driver/Src/stm32f7xx_hal_dcmi.c ****     {
1068:Drivers/STM32F7xx_HAL_Driver/Src/stm32f7xx_hal_dcmi.c ****       case HAL_DCMI_MSPINIT_CB_ID :
1069:Drivers/STM32F7xx_HAL_Driver/Src/stm32f7xx_hal_dcmi.c ****         hdcmi->MspInitCallback = HAL_DCMI_MspInit;
1070:Drivers/STM32F7xx_HAL_Driver/Src/stm32f7xx_hal_dcmi.c ****         break;
1071:Drivers/STM32F7xx_HAL_Driver/Src/stm32f7xx_hal_dcmi.c **** 
1072:Drivers/STM32F7xx_HAL_Driver/Src/stm32f7xx_hal_dcmi.c ****       case HAL_DCMI_MSPDEINIT_CB_ID :
1073:Drivers/STM32F7xx_HAL_Driver/Src/stm32f7xx_hal_dcmi.c ****         hdcmi->MspDeInitCallback = HAL_DCMI_MspDeInit;
1074:Drivers/STM32F7xx_HAL_Driver/Src/stm32f7xx_hal_dcmi.c ****         break;
1075:Drivers/STM32F7xx_HAL_Driver/Src/stm32f7xx_hal_dcmi.c **** 
1076:Drivers/STM32F7xx_HAL_Driver/Src/stm32f7xx_hal_dcmi.c ****       default :
1077:Drivers/STM32F7xx_HAL_Driver/Src/stm32f7xx_hal_dcmi.c ****         /* update the error code */
1078:Drivers/STM32F7xx_HAL_Driver/Src/stm32f7xx_hal_dcmi.c ****         hdcmi->ErrorCode |= HAL_DCMI_ERROR_INVALID_CALLBACK;
1079:Drivers/STM32F7xx_HAL_Driver/Src/stm32f7xx_hal_dcmi.c ****         /* update return status */
1080:Drivers/STM32F7xx_HAL_Driver/Src/stm32f7xx_hal_dcmi.c ****         status = HAL_ERROR;
1081:Drivers/STM32F7xx_HAL_Driver/Src/stm32f7xx_hal_dcmi.c ****         break;
1082:Drivers/STM32F7xx_HAL_Driver/Src/stm32f7xx_hal_dcmi.c ****     }
1083:Drivers/STM32F7xx_HAL_Driver/Src/stm32f7xx_hal_dcmi.c ****   }
1084:Drivers/STM32F7xx_HAL_Driver/Src/stm32f7xx_hal_dcmi.c ****   else
1085:Drivers/STM32F7xx_HAL_Driver/Src/stm32f7xx_hal_dcmi.c ****   {
1086:Drivers/STM32F7xx_HAL_Driver/Src/stm32f7xx_hal_dcmi.c ****     /* update the error code */
1087:Drivers/STM32F7xx_HAL_Driver/Src/stm32f7xx_hal_dcmi.c ****     hdcmi->ErrorCode |= HAL_DCMI_ERROR_INVALID_CALLBACK;
1088:Drivers/STM32F7xx_HAL_Driver/Src/stm32f7xx_hal_dcmi.c ****     /* update return status */
1089:Drivers/STM32F7xx_HAL_Driver/Src/stm32f7xx_hal_dcmi.c ****     status = HAL_ERROR;
1090:Drivers/STM32F7xx_HAL_Driver/Src/stm32f7xx_hal_dcmi.c ****   }
1091:Drivers/STM32F7xx_HAL_Driver/Src/stm32f7xx_hal_dcmi.c **** 
1092:Drivers/STM32F7xx_HAL_Driver/Src/stm32f7xx_hal_dcmi.c ****   return status;
1093:Drivers/STM32F7xx_HAL_Driver/Src/stm32f7xx_hal_dcmi.c **** }
1094:Drivers/STM32F7xx_HAL_Driver/Src/stm32f7xx_hal_dcmi.c **** #endif /* USE_HAL_DCMI_REGISTER_CALLBACKS */
1095:Drivers/STM32F7xx_HAL_Driver/Src/stm32f7xx_hal_dcmi.c **** 
1096:Drivers/STM32F7xx_HAL_Driver/Src/stm32f7xx_hal_dcmi.c **** /**
1097:Drivers/STM32F7xx_HAL_Driver/Src/stm32f7xx_hal_dcmi.c ****   * @}
1098:Drivers/STM32F7xx_HAL_Driver/Src/stm32f7xx_hal_dcmi.c ****   */
1099:Drivers/STM32F7xx_HAL_Driver/Src/stm32f7xx_hal_dcmi.c **** /* Private functions ---------------------------------------------------------*/
1100:Drivers/STM32F7xx_HAL_Driver/Src/stm32f7xx_hal_dcmi.c **** /** @defgroup DCMI_Private_Functions DCMI Private Functions
1101:Drivers/STM32F7xx_HAL_Driver/Src/stm32f7xx_hal_dcmi.c ****   * @{
1102:Drivers/STM32F7xx_HAL_Driver/Src/stm32f7xx_hal_dcmi.c ****   */
1103:Drivers/STM32F7xx_HAL_Driver/Src/stm32f7xx_hal_dcmi.c **** /**
1104:Drivers/STM32F7xx_HAL_Driver/Src/stm32f7xx_hal_dcmi.c **** * @brief  DMA conversion complete callback.
1105:Drivers/STM32F7xx_HAL_Driver/Src/stm32f7xx_hal_dcmi.c **** * @param  hdma pointer to a DMA_HandleTypeDef structure that contains
1106:Drivers/STM32F7xx_HAL_Driver/Src/stm32f7xx_hal_dcmi.c **** *                the configuration information for the specified DMA module.
1107:Drivers/STM32F7xx_HAL_Driver/Src/stm32f7xx_hal_dcmi.c **** * @retval None
1108:Drivers/STM32F7xx_HAL_Driver/Src/stm32f7xx_hal_dcmi.c **** */
1109:Drivers/STM32F7xx_HAL_Driver/Src/stm32f7xx_hal_dcmi.c **** static void DCMI_DMAXferCplt(DMA_HandleTypeDef *hdma)
1110:Drivers/STM32F7xx_HAL_Driver/Src/stm32f7xx_hal_dcmi.c **** {
  29              		.loc 1 1110 1 view -0
  30              		.cfi_startproc
  31              		@ args = 0, pretend = 0, frame = 0
ARM GAS  /var/folders/fz/x0kldt2j7vs_j4slv3pyc44m0000gp/T//ccoMI1M1.s 			page 21


  32              		@ frame_needed = 0, uses_anonymous_args = 0
  33              		.loc 1 1110 1 is_stmt 0 view .LVU1
  34 0000 10B5     		push	{r4, lr}
  35              		.cfi_def_cfa_offset 8
  36              		.cfi_offset 4, -8
  37              		.cfi_offset 14, -4
1111:Drivers/STM32F7xx_HAL_Driver/Src/stm32f7xx_hal_dcmi.c ****   uint32_t tmp = 0;
  38              		.loc 1 1111 3 is_stmt 1 view .LVU2
  39              	.LVL1:
1112:Drivers/STM32F7xx_HAL_Driver/Src/stm32f7xx_hal_dcmi.c **** 
1113:Drivers/STM32F7xx_HAL_Driver/Src/stm32f7xx_hal_dcmi.c ****   DCMI_HandleTypeDef *hdcmi = (DCMI_HandleTypeDef *)((DMA_HandleTypeDef *)hdma)->Parent;
  40              		.loc 1 1113 3 view .LVU3
  41              		.loc 1 1113 23 is_stmt 0 view .LVU4
  42 0002 846B     		ldr	r4, [r0, #56]
  43              	.LVL2:
1114:Drivers/STM32F7xx_HAL_Driver/Src/stm32f7xx_hal_dcmi.c **** 
1115:Drivers/STM32F7xx_HAL_Driver/Src/stm32f7xx_hal_dcmi.c ****   if (hdcmi->XferCount != 0)
  44              		.loc 1 1115 3 is_stmt 1 view .LVU5
  45              		.loc 1 1115 12 is_stmt 0 view .LVU6
  46 0004 A36B     		ldr	r3, [r4, #56]
  47              		.loc 1 1115 6 view .LVU7
  48 0006 43B3     		cbz	r3, .L2
1116:Drivers/STM32F7xx_HAL_Driver/Src/stm32f7xx_hal_dcmi.c ****   {
1117:Drivers/STM32F7xx_HAL_Driver/Src/stm32f7xx_hal_dcmi.c ****     /* Update memory 0 address location */
1118:Drivers/STM32F7xx_HAL_Driver/Src/stm32f7xx_hal_dcmi.c ****     tmp = ((hdcmi->DMA_Handle->Instance->CR) & DMA_SxCR_CT);
  49              		.loc 1 1118 5 is_stmt 1 view .LVU8
  50              		.loc 1 1118 18 is_stmt 0 view .LVU9
  51 0008 A06C     		ldr	r0, [r4, #72]
  52              	.LVL3:
  53              		.loc 1 1118 30 view .LVU10
  54 000a 0268     		ldr	r2, [r0]
  55              		.loc 1 1118 40 view .LVU11
  56 000c 1368     		ldr	r3, [r2]
  57              		.loc 1 1118 9 view .LVU12
  58 000e 03F40023 		and	r3, r3, #524288
  59              	.LVL4:
1119:Drivers/STM32F7xx_HAL_Driver/Src/stm32f7xx_hal_dcmi.c ****     if (((hdcmi->XferCount % 2) == 0) && (tmp != 0))
  60              		.loc 1 1119 5 is_stmt 1 view .LVU13
  61              		.loc 1 1119 16 is_stmt 0 view .LVU14
  62 0012 A16B     		ldr	r1, [r4, #56]
  63              		.loc 1 1119 8 view .LVU15
  64 0014 11F0010F 		tst	r1, #1
  65 0018 00D1     		bne	.L3
  66              		.loc 1 1119 39 discriminator 1 view .LVU16
  67 001a 43B9     		cbnz	r3, .L8
  68              	.L3:
1120:Drivers/STM32F7xx_HAL_Driver/Src/stm32f7xx_hal_dcmi.c ****     {
1121:Drivers/STM32F7xx_HAL_Driver/Src/stm32f7xx_hal_dcmi.c ****       tmp = hdcmi->DMA_Handle->Instance->M0AR;
1122:Drivers/STM32F7xx_HAL_Driver/Src/stm32f7xx_hal_dcmi.c ****       HAL_DMAEx_ChangeMemory(hdcmi->DMA_Handle, (tmp + (8 * hdcmi->XferSize)), MEMORY0);
1123:Drivers/STM32F7xx_HAL_Driver/Src/stm32f7xx_hal_dcmi.c ****       hdcmi->XferCount--;
1124:Drivers/STM32F7xx_HAL_Driver/Src/stm32f7xx_hal_dcmi.c ****     }
1125:Drivers/STM32F7xx_HAL_Driver/Src/stm32f7xx_hal_dcmi.c ****     /* Update memory 1 address location */
1126:Drivers/STM32F7xx_HAL_Driver/Src/stm32f7xx_hal_dcmi.c ****     else if ((hdcmi->DMA_Handle->Instance->CR & DMA_SxCR_CT) == 0)
  69              		.loc 1 1126 10 is_stmt 1 view .LVU17
  70              		.loc 1 1126 42 is_stmt 0 view .LVU18
  71 001c 1368     		ldr	r3, [r2]
  72              	.LVL5:
ARM GAS  /var/folders/fz/x0kldt2j7vs_j4slv3pyc44m0000gp/T//ccoMI1M1.s 			page 22


  73              		.loc 1 1126 13 view .LVU19
  74 001e 13F4002F 		tst	r3, #524288
  75 0022 0FD0     		beq	.L9
  76              	.LVL6:
  77              	.L4:
1127:Drivers/STM32F7xx_HAL_Driver/Src/stm32f7xx_hal_dcmi.c ****     {
1128:Drivers/STM32F7xx_HAL_Driver/Src/stm32f7xx_hal_dcmi.c ****       tmp = hdcmi->DMA_Handle->Instance->M1AR;
1129:Drivers/STM32F7xx_HAL_Driver/Src/stm32f7xx_hal_dcmi.c ****       HAL_DMAEx_ChangeMemory(hdcmi->DMA_Handle, (tmp + (8 * hdcmi->XferSize)), MEMORY1);
1130:Drivers/STM32F7xx_HAL_Driver/Src/stm32f7xx_hal_dcmi.c ****       hdcmi->XferCount--;
1131:Drivers/STM32F7xx_HAL_Driver/Src/stm32f7xx_hal_dcmi.c ****     }
1132:Drivers/STM32F7xx_HAL_Driver/Src/stm32f7xx_hal_dcmi.c ****   }
1133:Drivers/STM32F7xx_HAL_Driver/Src/stm32f7xx_hal_dcmi.c ****   /* Update memory 0 address location */
1134:Drivers/STM32F7xx_HAL_Driver/Src/stm32f7xx_hal_dcmi.c ****   else if ((hdcmi->DMA_Handle->Instance->CR & DMA_SxCR_CT) != 0)
1135:Drivers/STM32F7xx_HAL_Driver/Src/stm32f7xx_hal_dcmi.c ****   {
1136:Drivers/STM32F7xx_HAL_Driver/Src/stm32f7xx_hal_dcmi.c ****     hdcmi->DMA_Handle->Instance->M0AR = hdcmi->pBuffPtr;
1137:Drivers/STM32F7xx_HAL_Driver/Src/stm32f7xx_hal_dcmi.c ****   }
1138:Drivers/STM32F7xx_HAL_Driver/Src/stm32f7xx_hal_dcmi.c ****   /* Update memory 1 address location */
1139:Drivers/STM32F7xx_HAL_Driver/Src/stm32f7xx_hal_dcmi.c ****   else if ((hdcmi->DMA_Handle->Instance->CR & DMA_SxCR_CT) == 0)
1140:Drivers/STM32F7xx_HAL_Driver/Src/stm32f7xx_hal_dcmi.c ****   {
1141:Drivers/STM32F7xx_HAL_Driver/Src/stm32f7xx_hal_dcmi.c ****     tmp = hdcmi->pBuffPtr;
1142:Drivers/STM32F7xx_HAL_Driver/Src/stm32f7xx_hal_dcmi.c ****     hdcmi->DMA_Handle->Instance->M1AR = (tmp + (4 * hdcmi->XferSize));
1143:Drivers/STM32F7xx_HAL_Driver/Src/stm32f7xx_hal_dcmi.c ****     hdcmi->XferCount = hdcmi->XferTransferNumber;
1144:Drivers/STM32F7xx_HAL_Driver/Src/stm32f7xx_hal_dcmi.c ****   }
1145:Drivers/STM32F7xx_HAL_Driver/Src/stm32f7xx_hal_dcmi.c **** 
1146:Drivers/STM32F7xx_HAL_Driver/Src/stm32f7xx_hal_dcmi.c ****   /* Check if the frame is transferred */
1147:Drivers/STM32F7xx_HAL_Driver/Src/stm32f7xx_hal_dcmi.c ****   if (hdcmi->XferCount == hdcmi->XferTransferNumber)
  78              		.loc 1 1147 3 is_stmt 1 view .LVU20
  79              		.loc 1 1147 12 is_stmt 0 view .LVU21
  80 0024 A26B     		ldr	r2, [r4, #56]
  81              		.loc 1 1147 32 view .LVU22
  82 0026 236C     		ldr	r3, [r4, #64]
  83              		.loc 1 1147 6 view .LVU23
  84 0028 9A42     		cmp	r2, r3
  85 002a 2BD0     		beq	.L10
  86              	.L1:
1148:Drivers/STM32F7xx_HAL_Driver/Src/stm32f7xx_hal_dcmi.c ****   {
1149:Drivers/STM32F7xx_HAL_Driver/Src/stm32f7xx_hal_dcmi.c ****     /* Enable the Frame interrupt */
1150:Drivers/STM32F7xx_HAL_Driver/Src/stm32f7xx_hal_dcmi.c ****     __HAL_DCMI_ENABLE_IT(hdcmi, DCMI_IT_FRAME);
1151:Drivers/STM32F7xx_HAL_Driver/Src/stm32f7xx_hal_dcmi.c **** 
1152:Drivers/STM32F7xx_HAL_Driver/Src/stm32f7xx_hal_dcmi.c ****     /* When snapshot mode, set dcmi state to ready */
1153:Drivers/STM32F7xx_HAL_Driver/Src/stm32f7xx_hal_dcmi.c ****     if ((hdcmi->Instance->CR & DCMI_CR_CM) == DCMI_MODE_SNAPSHOT)
1154:Drivers/STM32F7xx_HAL_Driver/Src/stm32f7xx_hal_dcmi.c ****     {
1155:Drivers/STM32F7xx_HAL_Driver/Src/stm32f7xx_hal_dcmi.c ****       hdcmi->State = HAL_DCMI_STATE_READY;
1156:Drivers/STM32F7xx_HAL_Driver/Src/stm32f7xx_hal_dcmi.c ****     }
1157:Drivers/STM32F7xx_HAL_Driver/Src/stm32f7xx_hal_dcmi.c ****   }
1158:Drivers/STM32F7xx_HAL_Driver/Src/stm32f7xx_hal_dcmi.c **** }
  87              		.loc 1 1158 1 view .LVU24
  88 002c 10BD     		pop	{r4, pc}
  89              	.LVL7:
  90              	.L8:
1121:Drivers/STM32F7xx_HAL_Driver/Src/stm32f7xx_hal_dcmi.c ****       HAL_DMAEx_ChangeMemory(hdcmi->DMA_Handle, (tmp + (8 * hdcmi->XferSize)), MEMORY0);
  91              		.loc 1 1121 7 is_stmt 1 view .LVU25
1121:Drivers/STM32F7xx_HAL_Driver/Src/stm32f7xx_hal_dcmi.c ****       HAL_DMAEx_ChangeMemory(hdcmi->DMA_Handle, (tmp + (8 * hdcmi->XferSize)), MEMORY0);
  92              		.loc 1 1121 11 is_stmt 0 view .LVU26
  93 002e D368     		ldr	r3, [r2, #12]
  94              	.LVL8:
1122:Drivers/STM32F7xx_HAL_Driver/Src/stm32f7xx_hal_dcmi.c ****       hdcmi->XferCount--;
ARM GAS  /var/folders/fz/x0kldt2j7vs_j4slv3pyc44m0000gp/T//ccoMI1M1.s 			page 23


  95              		.loc 1 1122 7 is_stmt 1 view .LVU27
1122:Drivers/STM32F7xx_HAL_Driver/Src/stm32f7xx_hal_dcmi.c ****       hdcmi->XferCount--;
  96              		.loc 1 1122 66 is_stmt 0 view .LVU28
  97 0030 E16B     		ldr	r1, [r4, #60]
1122:Drivers/STM32F7xx_HAL_Driver/Src/stm32f7xx_hal_dcmi.c ****       hdcmi->XferCount--;
  98              		.loc 1 1122 7 view .LVU29
  99 0032 0022     		movs	r2, #0
 100 0034 03EBC101 		add	r1, r3, r1, lsl #3
 101 0038 FFF7FEFF 		bl	HAL_DMAEx_ChangeMemory
 102              	.LVL9:
1123:Drivers/STM32F7xx_HAL_Driver/Src/stm32f7xx_hal_dcmi.c ****     }
 103              		.loc 1 1123 7 is_stmt 1 view .LVU30
1123:Drivers/STM32F7xx_HAL_Driver/Src/stm32f7xx_hal_dcmi.c ****     }
 104              		.loc 1 1123 12 is_stmt 0 view .LVU31
 105 003c A36B     		ldr	r3, [r4, #56]
1123:Drivers/STM32F7xx_HAL_Driver/Src/stm32f7xx_hal_dcmi.c ****     }
 106              		.loc 1 1123 23 view .LVU32
 107 003e 013B     		subs	r3, r3, #1
 108 0040 A363     		str	r3, [r4, #56]
 109 0042 EFE7     		b	.L4
 110              	.L9:
1128:Drivers/STM32F7xx_HAL_Driver/Src/stm32f7xx_hal_dcmi.c ****       HAL_DMAEx_ChangeMemory(hdcmi->DMA_Handle, (tmp + (8 * hdcmi->XferSize)), MEMORY1);
 111              		.loc 1 1128 7 is_stmt 1 view .LVU33
1128:Drivers/STM32F7xx_HAL_Driver/Src/stm32f7xx_hal_dcmi.c ****       HAL_DMAEx_ChangeMemory(hdcmi->DMA_Handle, (tmp + (8 * hdcmi->XferSize)), MEMORY1);
 112              		.loc 1 1128 11 is_stmt 0 view .LVU34
 113 0044 1369     		ldr	r3, [r2, #16]
 114              	.LVL10:
1129:Drivers/STM32F7xx_HAL_Driver/Src/stm32f7xx_hal_dcmi.c ****       hdcmi->XferCount--;
 115              		.loc 1 1129 7 is_stmt 1 view .LVU35
1129:Drivers/STM32F7xx_HAL_Driver/Src/stm32f7xx_hal_dcmi.c ****       hdcmi->XferCount--;
 116              		.loc 1 1129 66 is_stmt 0 view .LVU36
 117 0046 E16B     		ldr	r1, [r4, #60]
1129:Drivers/STM32F7xx_HAL_Driver/Src/stm32f7xx_hal_dcmi.c ****       hdcmi->XferCount--;
 118              		.loc 1 1129 7 view .LVU37
 119 0048 0122     		movs	r2, #1
 120 004a 03EBC101 		add	r1, r3, r1, lsl #3
 121 004e FFF7FEFF 		bl	HAL_DMAEx_ChangeMemory
 122              	.LVL11:
1130:Drivers/STM32F7xx_HAL_Driver/Src/stm32f7xx_hal_dcmi.c ****     }
 123              		.loc 1 1130 7 is_stmt 1 view .LVU38
1130:Drivers/STM32F7xx_HAL_Driver/Src/stm32f7xx_hal_dcmi.c ****     }
 124              		.loc 1 1130 12 is_stmt 0 view .LVU39
 125 0052 A36B     		ldr	r3, [r4, #56]
1130:Drivers/STM32F7xx_HAL_Driver/Src/stm32f7xx_hal_dcmi.c ****     }
 126              		.loc 1 1130 23 view .LVU40
 127 0054 013B     		subs	r3, r3, #1
 128 0056 A363     		str	r3, [r4, #56]
 129 0058 E4E7     		b	.L4
 130              	.LVL12:
 131              	.L2:
1134:Drivers/STM32F7xx_HAL_Driver/Src/stm32f7xx_hal_dcmi.c ****   {
 132              		.loc 1 1134 8 is_stmt 1 view .LVU41
1134:Drivers/STM32F7xx_HAL_Driver/Src/stm32f7xx_hal_dcmi.c ****   {
 133              		.loc 1 1134 18 is_stmt 0 view .LVU42
 134 005a A36C     		ldr	r3, [r4, #72]
1134:Drivers/STM32F7xx_HAL_Driver/Src/stm32f7xx_hal_dcmi.c ****   {
 135              		.loc 1 1134 30 view .LVU43
ARM GAS  /var/folders/fz/x0kldt2j7vs_j4slv3pyc44m0000gp/T//ccoMI1M1.s 			page 24


 136 005c 1B68     		ldr	r3, [r3]
1134:Drivers/STM32F7xx_HAL_Driver/Src/stm32f7xx_hal_dcmi.c ****   {
 137              		.loc 1 1134 40 view .LVU44
 138 005e 1A68     		ldr	r2, [r3]
1134:Drivers/STM32F7xx_HAL_Driver/Src/stm32f7xx_hal_dcmi.c ****   {
 139              		.loc 1 1134 11 view .LVU45
 140 0060 12F4002F 		tst	r2, #524288
 141 0064 02D0     		beq	.L5
1136:Drivers/STM32F7xx_HAL_Driver/Src/stm32f7xx_hal_dcmi.c ****   }
 142              		.loc 1 1136 5 is_stmt 1 view .LVU46
1136:Drivers/STM32F7xx_HAL_Driver/Src/stm32f7xx_hal_dcmi.c ****   }
 143              		.loc 1 1136 46 is_stmt 0 view .LVU47
 144 0066 626C     		ldr	r2, [r4, #68]
1136:Drivers/STM32F7xx_HAL_Driver/Src/stm32f7xx_hal_dcmi.c ****   }
 145              		.loc 1 1136 39 view .LVU48
 146 0068 DA60     		str	r2, [r3, #12]
 147 006a DBE7     		b	.L4
 148              	.L5:
1139:Drivers/STM32F7xx_HAL_Driver/Src/stm32f7xx_hal_dcmi.c ****   {
 149              		.loc 1 1139 8 is_stmt 1 view .LVU49
1139:Drivers/STM32F7xx_HAL_Driver/Src/stm32f7xx_hal_dcmi.c ****   {
 150              		.loc 1 1139 40 is_stmt 0 view .LVU50
 151 006c 1A68     		ldr	r2, [r3]
1139:Drivers/STM32F7xx_HAL_Driver/Src/stm32f7xx_hal_dcmi.c ****   {
 152              		.loc 1 1139 11 view .LVU51
 153 006e 12F4002F 		tst	r2, #524288
 154 0072 D7D1     		bne	.L4
1141:Drivers/STM32F7xx_HAL_Driver/Src/stm32f7xx_hal_dcmi.c ****     hdcmi->DMA_Handle->Instance->M1AR = (tmp + (4 * hdcmi->XferSize));
 155              		.loc 1 1141 5 is_stmt 1 view .LVU52
1141:Drivers/STM32F7xx_HAL_Driver/Src/stm32f7xx_hal_dcmi.c ****     hdcmi->DMA_Handle->Instance->M1AR = (tmp + (4 * hdcmi->XferSize));
 156              		.loc 1 1141 9 is_stmt 0 view .LVU53
 157 0074 626C     		ldr	r2, [r4, #68]
 158              	.LVL13:
1142:Drivers/STM32F7xx_HAL_Driver/Src/stm32f7xx_hal_dcmi.c ****     hdcmi->XferCount = hdcmi->XferTransferNumber;
 159              		.loc 1 1142 5 is_stmt 1 view .LVU54
1142:Drivers/STM32F7xx_HAL_Driver/Src/stm32f7xx_hal_dcmi.c ****     hdcmi->XferCount = hdcmi->XferTransferNumber;
 160              		.loc 1 1142 58 is_stmt 0 view .LVU55
 161 0076 E16B     		ldr	r1, [r4, #60]
1142:Drivers/STM32F7xx_HAL_Driver/Src/stm32f7xx_hal_dcmi.c ****     hdcmi->XferCount = hdcmi->XferTransferNumber;
 162              		.loc 1 1142 46 view .LVU56
 163 0078 02EB8102 		add	r2, r2, r1, lsl #2
 164              	.LVL14:
1142:Drivers/STM32F7xx_HAL_Driver/Src/stm32f7xx_hal_dcmi.c ****     hdcmi->XferCount = hdcmi->XferTransferNumber;
 165              		.loc 1 1142 39 view .LVU57
 166 007c 1A61     		str	r2, [r3, #16]
 167              	.LVL15:
1143:Drivers/STM32F7xx_HAL_Driver/Src/stm32f7xx_hal_dcmi.c ****   }
 168              		.loc 1 1143 5 is_stmt 1 view .LVU58
1143:Drivers/STM32F7xx_HAL_Driver/Src/stm32f7xx_hal_dcmi.c ****   }
 169              		.loc 1 1143 29 is_stmt 0 view .LVU59
 170 007e 236C     		ldr	r3, [r4, #64]
1143:Drivers/STM32F7xx_HAL_Driver/Src/stm32f7xx_hal_dcmi.c ****   }
 171              		.loc 1 1143 22 view .LVU60
 172 0080 A363     		str	r3, [r4, #56]
 173 0082 CFE7     		b	.L4
 174              	.LVL16:
 175              	.L10:
ARM GAS  /var/folders/fz/x0kldt2j7vs_j4slv3pyc44m0000gp/T//ccoMI1M1.s 			page 25


1150:Drivers/STM32F7xx_HAL_Driver/Src/stm32f7xx_hal_dcmi.c **** 
 176              		.loc 1 1150 5 is_stmt 1 view .LVU61
 177 0084 2268     		ldr	r2, [r4]
 178 0086 D368     		ldr	r3, [r2, #12]
 179 0088 43F00103 		orr	r3, r3, #1
 180 008c D360     		str	r3, [r2, #12]
1153:Drivers/STM32F7xx_HAL_Driver/Src/stm32f7xx_hal_dcmi.c ****     {
 181              		.loc 1 1153 5 view .LVU62
1153:Drivers/STM32F7xx_HAL_Driver/Src/stm32f7xx_hal_dcmi.c ****     {
 182              		.loc 1 1153 15 is_stmt 0 view .LVU63
 183 008e 2368     		ldr	r3, [r4]
1153:Drivers/STM32F7xx_HAL_Driver/Src/stm32f7xx_hal_dcmi.c ****     {
 184              		.loc 1 1153 25 view .LVU64
 185 0090 1B68     		ldr	r3, [r3]
1153:Drivers/STM32F7xx_HAL_Driver/Src/stm32f7xx_hal_dcmi.c ****     {
 186              		.loc 1 1153 8 view .LVU65
 187 0092 13F0020F 		tst	r3, #2
 188 0096 C9D0     		beq	.L1
1155:Drivers/STM32F7xx_HAL_Driver/Src/stm32f7xx_hal_dcmi.c ****     }
 189              		.loc 1 1155 7 is_stmt 1 view .LVU66
1155:Drivers/STM32F7xx_HAL_Driver/Src/stm32f7xx_hal_dcmi.c ****     }
 190              		.loc 1 1155 20 is_stmt 0 view .LVU67
 191 0098 0123     		movs	r3, #1
 192 009a 84F83530 		strb	r3, [r4, #53]
 193              		.loc 1 1158 1 view .LVU68
 194 009e C5E7     		b	.L1
 195              		.cfi_endproc
 196              	.LFE160:
 198              		.section	.text.HAL_DCMI_MspInit,"ax",%progbits
 199              		.align	1
 200              		.weak	HAL_DCMI_MspInit
 201              		.syntax unified
 202              		.thumb
 203              		.thumb_func
 205              	HAL_DCMI_MspInit:
 206              	.LVL17:
 207              	.LFB143:
 320:Drivers/STM32F7xx_HAL_Driver/Src/stm32f7xx_hal_dcmi.c ****   /* Prevent unused argument(s) compilation warning */
 208              		.loc 1 320 1 is_stmt 1 view -0
 209              		.cfi_startproc
 210              		@ args = 0, pretend = 0, frame = 0
 211              		@ frame_needed = 0, uses_anonymous_args = 0
 212              		@ link register save eliminated.
 322:Drivers/STM32F7xx_HAL_Driver/Src/stm32f7xx_hal_dcmi.c **** 
 213              		.loc 1 322 3 view .LVU70
 327:Drivers/STM32F7xx_HAL_Driver/Src/stm32f7xx_hal_dcmi.c **** 
 214              		.loc 1 327 1 is_stmt 0 view .LVU71
 215 0000 7047     		bx	lr
 216              		.cfi_endproc
 217              	.LFE143:
 219              		.section	.text.HAL_DCMI_Init,"ax",%progbits
 220              		.align	1
 221              		.global	HAL_DCMI_Init
 222              		.syntax unified
 223              		.thumb
 224              		.thumb_func
 226              	HAL_DCMI_Init:
ARM GAS  /var/folders/fz/x0kldt2j7vs_j4slv3pyc44m0000gp/T//ccoMI1M1.s 			page 26


 227              	.LVL18:
 228              	.LFB141:
 178:Drivers/STM32F7xx_HAL_Driver/Src/stm32f7xx_hal_dcmi.c ****   /* Check the DCMI peripheral state */
 229              		.loc 1 178 1 is_stmt 1 view -0
 230              		.cfi_startproc
 231              		@ args = 0, pretend = 0, frame = 0
 232              		@ frame_needed = 0, uses_anonymous_args = 0
 180:Drivers/STM32F7xx_HAL_Driver/Src/stm32f7xx_hal_dcmi.c ****   {
 233              		.loc 1 180 3 view .LVU73
 180:Drivers/STM32F7xx_HAL_Driver/Src/stm32f7xx_hal_dcmi.c ****   {
 234              		.loc 1 180 6 is_stmt 0 view .LVU74
 235 0000 0028     		cmp	r0, #0
 236 0002 48D0     		beq	.L17
 178:Drivers/STM32F7xx_HAL_Driver/Src/stm32f7xx_hal_dcmi.c ****   /* Check the DCMI peripheral state */
 237              		.loc 1 178 1 view .LVU75
 238 0004 10B5     		push	{r4, lr}
 239              		.cfi_def_cfa_offset 8
 240              		.cfi_offset 4, -8
 241              		.cfi_offset 14, -4
 242 0006 0446     		mov	r4, r0
 186:Drivers/STM32F7xx_HAL_Driver/Src/stm32f7xx_hal_dcmi.c ****   assert_param(IS_DCMI_PCKPOLARITY(hdcmi->Init.PCKPolarity));
 243              		.loc 1 186 3 is_stmt 1 view .LVU76
 187:Drivers/STM32F7xx_HAL_Driver/Src/stm32f7xx_hal_dcmi.c ****   assert_param(IS_DCMI_VSPOLARITY(hdcmi->Init.VSPolarity));
 244              		.loc 1 187 3 view .LVU77
 188:Drivers/STM32F7xx_HAL_Driver/Src/stm32f7xx_hal_dcmi.c ****   assert_param(IS_DCMI_HSPOLARITY(hdcmi->Init.HSPolarity));
 245              		.loc 1 188 3 view .LVU78
 189:Drivers/STM32F7xx_HAL_Driver/Src/stm32f7xx_hal_dcmi.c ****   assert_param(IS_DCMI_SYNCHRO(hdcmi->Init.SynchroMode));
 246              		.loc 1 189 3 view .LVU79
 190:Drivers/STM32F7xx_HAL_Driver/Src/stm32f7xx_hal_dcmi.c ****   assert_param(IS_DCMI_CAPTURE_RATE(hdcmi->Init.CaptureRate));
 247              		.loc 1 190 3 view .LVU80
 191:Drivers/STM32F7xx_HAL_Driver/Src/stm32f7xx_hal_dcmi.c ****   assert_param(IS_DCMI_EXTENDED_DATA(hdcmi->Init.ExtendedDataMode));
 248              		.loc 1 191 3 view .LVU81
 192:Drivers/STM32F7xx_HAL_Driver/Src/stm32f7xx_hal_dcmi.c ****   assert_param(IS_DCMI_MODE_JPEG(hdcmi->Init.JPEGMode));
 249              		.loc 1 192 3 view .LVU82
 193:Drivers/STM32F7xx_HAL_Driver/Src/stm32f7xx_hal_dcmi.c **** 
 250              		.loc 1 193 3 view .LVU83
 196:Drivers/STM32F7xx_HAL_Driver/Src/stm32f7xx_hal_dcmi.c ****   assert_param(IS_DCMI_BYTE_SELECT_START(hdcmi->Init.ByteSelectStart));
 251              		.loc 1 196 3 view .LVU84
 197:Drivers/STM32F7xx_HAL_Driver/Src/stm32f7xx_hal_dcmi.c ****   assert_param(IS_DCMI_LINE_SELECT_MODE(hdcmi->Init.LineSelectMode));
 252              		.loc 1 197 3 view .LVU85
 198:Drivers/STM32F7xx_HAL_Driver/Src/stm32f7xx_hal_dcmi.c ****   assert_param(IS_DCMI_LINE_SELECT_START(hdcmi->Init.LineSelectStart));
 253              		.loc 1 198 3 view .LVU86
 199:Drivers/STM32F7xx_HAL_Driver/Src/stm32f7xx_hal_dcmi.c **** #endif
 254              		.loc 1 199 3 view .LVU87
 202:Drivers/STM32F7xx_HAL_Driver/Src/stm32f7xx_hal_dcmi.c ****   {
 255              		.loc 1 202 3 view .LVU88
 202:Drivers/STM32F7xx_HAL_Driver/Src/stm32f7xx_hal_dcmi.c ****   {
 256              		.loc 1 202 12 is_stmt 0 view .LVU89
 257 0008 90F83530 		ldrb	r3, [r0, #53]	@ zero_extendqisi2
 202:Drivers/STM32F7xx_HAL_Driver/Src/stm32f7xx_hal_dcmi.c ****   {
 258              		.loc 1 202 6 view .LVU90
 259 000c 002B     		cmp	r3, #0
 260 000e 32D0     		beq	.L22
 261              	.LVL19:
 262              	.L14:
 225:Drivers/STM32F7xx_HAL_Driver/Src/stm32f7xx_hal_dcmi.c **** 
 263              		.loc 1 225 3 is_stmt 1 view .LVU91
ARM GAS  /var/folders/fz/x0kldt2j7vs_j4slv3pyc44m0000gp/T//ccoMI1M1.s 			page 27


 225:Drivers/STM32F7xx_HAL_Driver/Src/stm32f7xx_hal_dcmi.c **** 
 264              		.loc 1 225 16 is_stmt 0 view .LVU92
 265 0010 0223     		movs	r3, #2
 266 0012 84F83530 		strb	r3, [r4, #53]
 228:Drivers/STM32F7xx_HAL_Driver/Src/stm32f7xx_hal_dcmi.c ****   {
 267              		.loc 1 228 3 is_stmt 1 view .LVU93
 228:Drivers/STM32F7xx_HAL_Driver/Src/stm32f7xx_hal_dcmi.c ****   {
 268              		.loc 1 228 18 is_stmt 0 view .LVU94
 269 0016 A369     		ldr	r3, [r4, #24]
 228:Drivers/STM32F7xx_HAL_Driver/Src/stm32f7xx_hal_dcmi.c ****   {
 270              		.loc 1 228 6 view .LVU95
 271 0018 0BB1     		cbz	r3, .L15
 232:Drivers/STM32F7xx_HAL_Driver/Src/stm32f7xx_hal_dcmi.c ****   }
 272              		.loc 1 232 5 is_stmt 1 view .LVU96
 232:Drivers/STM32F7xx_HAL_Driver/Src/stm32f7xx_hal_dcmi.c ****   }
 273              		.loc 1 232 32 is_stmt 0 view .LVU97
 274 001a 0023     		movs	r3, #0
 275 001c 6362     		str	r3, [r4, #36]
 276              	.L15:
 237:Drivers/STM32F7xx_HAL_Driver/Src/stm32f7xx_hal_dcmi.c ****                            DCMI_CR_EDM_1  | DCMI_CR_FCRC_0 | DCMI_CR_FCRC_1 | DCMI_CR_JPEG  | \
 277              		.loc 1 237 3 is_stmt 1 view .LVU98
 237:Drivers/STM32F7xx_HAL_Driver/Src/stm32f7xx_hal_dcmi.c ****                            DCMI_CR_EDM_1  | DCMI_CR_FCRC_0 | DCMI_CR_FCRC_1 | DCMI_CR_JPEG  | \
 278              		.loc 1 237 8 is_stmt 0 view .LVU99
 279 001e 2268     		ldr	r2, [r4]
 237:Drivers/STM32F7xx_HAL_Driver/Src/stm32f7xx_hal_dcmi.c ****                            DCMI_CR_EDM_1  | DCMI_CR_FCRC_0 | DCMI_CR_FCRC_1 | DCMI_CR_JPEG  | \
 280              		.loc 1 237 18 view .LVU100
 281 0020 1168     		ldr	r1, [r2]
 237:Drivers/STM32F7xx_HAL_Driver/Src/stm32f7xx_hal_dcmi.c ****                            DCMI_CR_EDM_1  | DCMI_CR_FCRC_0 | DCMI_CR_FCRC_1 | DCMI_CR_JPEG  | \
 282              		.loc 1 237 23 view .LVU101
 283 0022 1E4B     		ldr	r3, .L24
 284 0024 0B40     		ands	r3, r3, r1
 285 0026 1360     		str	r3, [r2]
 242:Drivers/STM32F7xx_HAL_Driver/Src/stm32f7xx_hal_dcmi.c ****                                     hdcmi->Init.VSPolarity  | hdcmi->Init.HSPolarity  | \
 286              		.loc 1 242 3 is_stmt 1 view .LVU102
 242:Drivers/STM32F7xx_HAL_Driver/Src/stm32f7xx_hal_dcmi.c ****                                     hdcmi->Init.VSPolarity  | hdcmi->Init.HSPolarity  | \
 287              		.loc 1 242 8 is_stmt 0 view .LVU103
 288 0028 2268     		ldr	r2, [r4]
 242:Drivers/STM32F7xx_HAL_Driver/Src/stm32f7xx_hal_dcmi.c ****                                     hdcmi->Init.VSPolarity  | hdcmi->Init.HSPolarity  | \
 289              		.loc 1 242 18 view .LVU104
 290 002a 1168     		ldr	r1, [r2]
 242:Drivers/STM32F7xx_HAL_Driver/Src/stm32f7xx_hal_dcmi.c ****                                     hdcmi->Init.VSPolarity  | hdcmi->Init.HSPolarity  | \
 291              		.loc 1 242 48 view .LVU105
 292 002c 6368     		ldr	r3, [r4, #4]
 242:Drivers/STM32F7xx_HAL_Driver/Src/stm32f7xx_hal_dcmi.c ****                                     hdcmi->Init.VSPolarity  | hdcmi->Init.HSPolarity  | \
 293              		.loc 1 242 74 view .LVU106
 294 002e 6069     		ldr	r0, [r4, #20]
 242:Drivers/STM32F7xx_HAL_Driver/Src/stm32f7xx_hal_dcmi.c ****                                     hdcmi->Init.VSPolarity  | hdcmi->Init.HSPolarity  | \
 295              		.loc 1 242 61 view .LVU107
 296 0030 0343     		orrs	r3, r3, r0
 243:Drivers/STM32F7xx_HAL_Driver/Src/stm32f7xx_hal_dcmi.c ****                                     hdcmi->Init.PCKPolarity | hdcmi->Init.ExtendedDataMode | \
 297              		.loc 1 243 48 view .LVU108
 298 0032 E068     		ldr	r0, [r4, #12]
 242:Drivers/STM32F7xx_HAL_Driver/Src/stm32f7xx_hal_dcmi.c ****                                     hdcmi->Init.VSPolarity  | hdcmi->Init.HSPolarity  | \
 299              		.loc 1 242 87 view .LVU109
 300 0034 0343     		orrs	r3, r3, r0
 243:Drivers/STM32F7xx_HAL_Driver/Src/stm32f7xx_hal_dcmi.c ****                                     hdcmi->Init.PCKPolarity | hdcmi->Init.ExtendedDataMode | \
 301              		.loc 1 243 74 view .LVU110
ARM GAS  /var/folders/fz/x0kldt2j7vs_j4slv3pyc44m0000gp/T//ccoMI1M1.s 			page 28


 302 0036 2069     		ldr	r0, [r4, #16]
 243:Drivers/STM32F7xx_HAL_Driver/Src/stm32f7xx_hal_dcmi.c ****                                     hdcmi->Init.PCKPolarity | hdcmi->Init.ExtendedDataMode | \
 303              		.loc 1 243 61 view .LVU111
 304 0038 0343     		orrs	r3, r3, r0
 244:Drivers/STM32F7xx_HAL_Driver/Src/stm32f7xx_hal_dcmi.c ****                                     hdcmi->Init.JPEGMode | hdcmi->Init.ByteSelectMode | \
 305              		.loc 1 244 48 view .LVU112
 306 003a A068     		ldr	r0, [r4, #8]
 243:Drivers/STM32F7xx_HAL_Driver/Src/stm32f7xx_hal_dcmi.c ****                                     hdcmi->Init.PCKPolarity | hdcmi->Init.ExtendedDataMode | \
 307              		.loc 1 243 87 view .LVU113
 308 003c 0343     		orrs	r3, r3, r0
 244:Drivers/STM32F7xx_HAL_Driver/Src/stm32f7xx_hal_dcmi.c ****                                     hdcmi->Init.JPEGMode | hdcmi->Init.ByteSelectMode | \
 309              		.loc 1 244 74 view .LVU114
 310 003e A069     		ldr	r0, [r4, #24]
 244:Drivers/STM32F7xx_HAL_Driver/Src/stm32f7xx_hal_dcmi.c ****                                     hdcmi->Init.JPEGMode | hdcmi->Init.ByteSelectMode | \
 311              		.loc 1 244 61 view .LVU115
 312 0040 0343     		orrs	r3, r3, r0
 245:Drivers/STM32F7xx_HAL_Driver/Src/stm32f7xx_hal_dcmi.c ****                                     hdcmi->Init.ByteSelectStart | hdcmi->Init.LineSelectMode | \
 313              		.loc 1 245 48 view .LVU116
 314 0042 206A     		ldr	r0, [r4, #32]
 244:Drivers/STM32F7xx_HAL_Driver/Src/stm32f7xx_hal_dcmi.c ****                                     hdcmi->Init.JPEGMode | hdcmi->Init.ByteSelectMode | \
 315              		.loc 1 244 92 view .LVU117
 316 0044 0343     		orrs	r3, r3, r0
 245:Drivers/STM32F7xx_HAL_Driver/Src/stm32f7xx_hal_dcmi.c ****                                     hdcmi->Init.ByteSelectStart | hdcmi->Init.LineSelectMode | \
 317              		.loc 1 245 71 view .LVU118
 318 0046 606A     		ldr	r0, [r4, #36]
 245:Drivers/STM32F7xx_HAL_Driver/Src/stm32f7xx_hal_dcmi.c ****                                     hdcmi->Init.ByteSelectStart | hdcmi->Init.LineSelectMode | \
 319              		.loc 1 245 58 view .LVU119
 320 0048 0343     		orrs	r3, r3, r0
 246:Drivers/STM32F7xx_HAL_Driver/Src/stm32f7xx_hal_dcmi.c ****                                     hdcmi->Init.LineSelectStart);
 321              		.loc 1 246 48 view .LVU120
 322 004a A06A     		ldr	r0, [r4, #40]
 245:Drivers/STM32F7xx_HAL_Driver/Src/stm32f7xx_hal_dcmi.c ****                                     hdcmi->Init.ByteSelectStart | hdcmi->Init.LineSelectMode | \
 323              		.loc 1 245 87 view .LVU121
 324 004c 0343     		orrs	r3, r3, r0
 246:Drivers/STM32F7xx_HAL_Driver/Src/stm32f7xx_hal_dcmi.c ****                                     hdcmi->Init.LineSelectStart);
 325              		.loc 1 246 78 view .LVU122
 326 004e E06A     		ldr	r0, [r4, #44]
 246:Drivers/STM32F7xx_HAL_Driver/Src/stm32f7xx_hal_dcmi.c ****                                     hdcmi->Init.LineSelectStart);
 327              		.loc 1 246 65 view .LVU123
 328 0050 0343     		orrs	r3, r3, r0
 247:Drivers/STM32F7xx_HAL_Driver/Src/stm32f7xx_hal_dcmi.c **** #else
 329              		.loc 1 247 48 view .LVU124
 330 0052 206B     		ldr	r0, [r4, #48]
 246:Drivers/STM32F7xx_HAL_Driver/Src/stm32f7xx_hal_dcmi.c ****                                     hdcmi->Init.LineSelectStart);
 331              		.loc 1 246 94 view .LVU125
 332 0054 0343     		orrs	r3, r3, r0
 242:Drivers/STM32F7xx_HAL_Driver/Src/stm32f7xx_hal_dcmi.c ****                                     hdcmi->Init.VSPolarity  | hdcmi->Init.HSPolarity  | \
 333              		.loc 1 242 23 view .LVU126
 334 0056 0B43     		orrs	r3, r3, r1
 335 0058 1360     		str	r3, [r2]
 258:Drivers/STM32F7xx_HAL_Driver/Src/stm32f7xx_hal_dcmi.c ****   {
 336              		.loc 1 258 3 is_stmt 1 view .LVU127
 258:Drivers/STM32F7xx_HAL_Driver/Src/stm32f7xx_hal_dcmi.c ****   {
 337              		.loc 1 258 18 is_stmt 0 view .LVU128
 338 005a 6368     		ldr	r3, [r4, #4]
 258:Drivers/STM32F7xx_HAL_Driver/Src/stm32f7xx_hal_dcmi.c ****   {
 339              		.loc 1 258 6 view .LVU129
ARM GAS  /var/folders/fz/x0kldt2j7vs_j4slv3pyc44m0000gp/T//ccoMI1M1.s 			page 29


 340 005c 102B     		cmp	r3, #16
 341 005e 0DD0     		beq	.L23
 342              	.L16:
 268:Drivers/STM32F7xx_HAL_Driver/Src/stm32f7xx_hal_dcmi.c **** 
 343              		.loc 1 268 3 is_stmt 1 view .LVU130
 344 0060 2268     		ldr	r2, [r4]
 345 0062 D368     		ldr	r3, [r2, #12]
 346 0064 43F01E03 		orr	r3, r3, #30
 347 0068 D360     		str	r3, [r2, #12]
 271:Drivers/STM32F7xx_HAL_Driver/Src/stm32f7xx_hal_dcmi.c **** 
 348              		.loc 1 271 3 view .LVU131
 271:Drivers/STM32F7xx_HAL_Driver/Src/stm32f7xx_hal_dcmi.c **** 
 349              		.loc 1 271 20 is_stmt 0 view .LVU132
 350 006a 0020     		movs	r0, #0
 351 006c E064     		str	r0, [r4, #76]
 274:Drivers/STM32F7xx_HAL_Driver/Src/stm32f7xx_hal_dcmi.c **** 
 352              		.loc 1 274 3 is_stmt 1 view .LVU133
 274:Drivers/STM32F7xx_HAL_Driver/Src/stm32f7xx_hal_dcmi.c **** 
 353              		.loc 1 274 17 is_stmt 0 view .LVU134
 354 006e 0123     		movs	r3, #1
 355 0070 84F83530 		strb	r3, [r4, #53]
 276:Drivers/STM32F7xx_HAL_Driver/Src/stm32f7xx_hal_dcmi.c **** }
 356              		.loc 1 276 3 is_stmt 1 view .LVU135
 277:Drivers/STM32F7xx_HAL_Driver/Src/stm32f7xx_hal_dcmi.c **** 
 357              		.loc 1 277 1 is_stmt 0 view .LVU136
 358 0074 10BD     		pop	{r4, pc}
 359              	.LVL20:
 360              	.L22:
 220:Drivers/STM32F7xx_HAL_Driver/Src/stm32f7xx_hal_dcmi.c **** #endif /* (USE_HAL_DCMI_REGISTER_CALLBACKS) */
 361              		.loc 1 220 5 is_stmt 1 view .LVU137
 362 0076 FFF7FEFF 		bl	HAL_DCMI_MspInit
 363              	.LVL21:
 220:Drivers/STM32F7xx_HAL_Driver/Src/stm32f7xx_hal_dcmi.c **** #endif /* (USE_HAL_DCMI_REGISTER_CALLBACKS) */
 364              		.loc 1 220 5 is_stmt 0 view .LVU138
 365 007a C9E7     		b	.L14
 366              	.L23:
 260:Drivers/STM32F7xx_HAL_Driver/Src/stm32f7xx_hal_dcmi.c ****                              ((uint32_t)hdcmi->Init.SyncroCode.LineStartCode << DCMI_ESCR_LSC_Pos) 
 367              		.loc 1 260 5 is_stmt 1 view .LVU139
 260:Drivers/STM32F7xx_HAL_Driver/Src/stm32f7xx_hal_dcmi.c ****                              ((uint32_t)hdcmi->Init.SyncroCode.LineStartCode << DCMI_ESCR_LSC_Pos) 
 368              		.loc 1 260 63 is_stmt 0 view .LVU140
 369 007c 237F     		ldrb	r3, [r4, #28]	@ zero_extendqisi2
 261:Drivers/STM32F7xx_HAL_Driver/Src/stm32f7xx_hal_dcmi.c ****                              ((uint32_t)hdcmi->Init.SyncroCode.LineEndCode << DCMI_ESCR_LEC_Pos) | 
 370              		.loc 1 261 63 view .LVU141
 371 007e 627F     		ldrb	r2, [r4, #29]	@ zero_extendqisi2
 260:Drivers/STM32F7xx_HAL_Driver/Src/stm32f7xx_hal_dcmi.c ****                              ((uint32_t)hdcmi->Init.SyncroCode.LineStartCode << DCMI_ESCR_LSC_Pos) 
 372              		.loc 1 260 83 view .LVU142
 373 0080 43EA0223 		orr	r3, r3, r2, lsl #8
 262:Drivers/STM32F7xx_HAL_Driver/Src/stm32f7xx_hal_dcmi.c ****                              ((uint32_t)hdcmi->Init.SyncroCode.FrameEndCode << DCMI_ESCR_FEC_Pos));
 374              		.loc 1 262 63 view .LVU143
 375 0084 A27F     		ldrb	r2, [r4, #30]	@ zero_extendqisi2
 261:Drivers/STM32F7xx_HAL_Driver/Src/stm32f7xx_hal_dcmi.c ****                              ((uint32_t)hdcmi->Init.SyncroCode.LineEndCode << DCMI_ESCR_LEC_Pos) | 
 376              		.loc 1 261 100 view .LVU144
 377 0086 43EA0243 		orr	r3, r3, r2, lsl #16
 263:Drivers/STM32F7xx_HAL_Driver/Src/stm32f7xx_hal_dcmi.c **** 
 378              		.loc 1 263 63 view .LVU145
 379 008a E17F     		ldrb	r1, [r4, #31]	@ zero_extendqisi2
 260:Drivers/STM32F7xx_HAL_Driver/Src/stm32f7xx_hal_dcmi.c ****                              ((uint32_t)hdcmi->Init.SyncroCode.LineStartCode << DCMI_ESCR_LSC_Pos) 
ARM GAS  /var/folders/fz/x0kldt2j7vs_j4slv3pyc44m0000gp/T//ccoMI1M1.s 			page 30


 380              		.loc 1 260 10 view .LVU146
 381 008c 2268     		ldr	r2, [r4]
 262:Drivers/STM32F7xx_HAL_Driver/Src/stm32f7xx_hal_dcmi.c ****                              ((uint32_t)hdcmi->Init.SyncroCode.FrameEndCode << DCMI_ESCR_FEC_Pos));
 382              		.loc 1 262 98 view .LVU147
 383 008e 43EA0163 		orr	r3, r3, r1, lsl #24
 260:Drivers/STM32F7xx_HAL_Driver/Src/stm32f7xx_hal_dcmi.c ****                              ((uint32_t)hdcmi->Init.SyncroCode.LineStartCode << DCMI_ESCR_LSC_Pos) 
 384              		.loc 1 260 27 view .LVU148
 385 0092 9361     		str	r3, [r2, #24]
 386 0094 E4E7     		b	.L16
 387              	.LVL22:
 388              	.L17:
 389              		.cfi_def_cfa_offset 0
 390              		.cfi_restore 4
 391              		.cfi_restore 14
 182:Drivers/STM32F7xx_HAL_Driver/Src/stm32f7xx_hal_dcmi.c ****   }
 392              		.loc 1 182 12 view .LVU149
 393 0096 0120     		movs	r0, #1
 394              	.LVL23:
 277:Drivers/STM32F7xx_HAL_Driver/Src/stm32f7xx_hal_dcmi.c **** 
 395              		.loc 1 277 1 view .LVU150
 396 0098 7047     		bx	lr
 397              	.L25:
 398 009a 00BF     		.align	2
 399              	.L24:
 400 009c 07F0E0FF 		.word	-2035705
 401              		.cfi_endproc
 402              	.LFE141:
 404              		.section	.text.HAL_DCMI_MspDeInit,"ax",%progbits
 405              		.align	1
 406              		.weak	HAL_DCMI_MspDeInit
 407              		.syntax unified
 408              		.thumb
 409              		.thumb_func
 411              	HAL_DCMI_MspDeInit:
 412              	.LVL24:
 413              	.LFB144:
 336:Drivers/STM32F7xx_HAL_Driver/Src/stm32f7xx_hal_dcmi.c ****   /* Prevent unused argument(s) compilation warning */
 414              		.loc 1 336 1 is_stmt 1 view -0
 415              		.cfi_startproc
 416              		@ args = 0, pretend = 0, frame = 0
 417              		@ frame_needed = 0, uses_anonymous_args = 0
 418              		@ link register save eliminated.
 338:Drivers/STM32F7xx_HAL_Driver/Src/stm32f7xx_hal_dcmi.c **** 
 419              		.loc 1 338 3 view .LVU152
 343:Drivers/STM32F7xx_HAL_Driver/Src/stm32f7xx_hal_dcmi.c **** 
 420              		.loc 1 343 1 is_stmt 0 view .LVU153
 421 0000 7047     		bx	lr
 422              		.cfi_endproc
 423              	.LFE144:
 425              		.section	.text.HAL_DCMI_DeInit,"ax",%progbits
 426              		.align	1
 427              		.global	HAL_DCMI_DeInit
 428              		.syntax unified
 429              		.thumb
 430              		.thumb_func
 432              	HAL_DCMI_DeInit:
 433              	.LVL25:
ARM GAS  /var/folders/fz/x0kldt2j7vs_j4slv3pyc44m0000gp/T//ccoMI1M1.s 			page 31


 434              	.LFB142:
 288:Drivers/STM32F7xx_HAL_Driver/Src/stm32f7xx_hal_dcmi.c **** #if (USE_HAL_DCMI_REGISTER_CALLBACKS == 1)
 435              		.loc 1 288 1 is_stmt 1 view -0
 436              		.cfi_startproc
 437              		@ args = 0, pretend = 0, frame = 0
 438              		@ frame_needed = 0, uses_anonymous_args = 0
 288:Drivers/STM32F7xx_HAL_Driver/Src/stm32f7xx_hal_dcmi.c **** #if (USE_HAL_DCMI_REGISTER_CALLBACKS == 1)
 439              		.loc 1 288 1 is_stmt 0 view .LVU155
 440 0000 10B5     		push	{r4, lr}
 441              		.cfi_def_cfa_offset 8
 442              		.cfi_offset 4, -8
 443              		.cfi_offset 14, -4
 444 0002 0446     		mov	r4, r0
 298:Drivers/STM32F7xx_HAL_Driver/Src/stm32f7xx_hal_dcmi.c **** #endif /* (USE_HAL_DCMI_REGISTER_CALLBACKS) */
 445              		.loc 1 298 3 is_stmt 1 view .LVU156
 446 0004 FFF7FEFF 		bl	HAL_DCMI_MspDeInit
 447              	.LVL26:
 302:Drivers/STM32F7xx_HAL_Driver/Src/stm32f7xx_hal_dcmi.c **** 
 448              		.loc 1 302 3 view .LVU157
 302:Drivers/STM32F7xx_HAL_Driver/Src/stm32f7xx_hal_dcmi.c **** 
 449              		.loc 1 302 20 is_stmt 0 view .LVU158
 450 0008 0020     		movs	r0, #0
 451 000a E064     		str	r0, [r4, #76]
 305:Drivers/STM32F7xx_HAL_Driver/Src/stm32f7xx_hal_dcmi.c **** 
 452              		.loc 1 305 3 is_stmt 1 view .LVU159
 305:Drivers/STM32F7xx_HAL_Driver/Src/stm32f7xx_hal_dcmi.c **** 
 453              		.loc 1 305 16 is_stmt 0 view .LVU160
 454 000c 84F83500 		strb	r0, [r4, #53]
 308:Drivers/STM32F7xx_HAL_Driver/Src/stm32f7xx_hal_dcmi.c **** 
 455              		.loc 1 308 3 is_stmt 1 view .LVU161
 308:Drivers/STM32F7xx_HAL_Driver/Src/stm32f7xx_hal_dcmi.c **** 
 456              		.loc 1 308 3 view .LVU162
 457 0010 84F83400 		strb	r0, [r4, #52]
 308:Drivers/STM32F7xx_HAL_Driver/Src/stm32f7xx_hal_dcmi.c **** 
 458              		.loc 1 308 3 view .LVU163
 310:Drivers/STM32F7xx_HAL_Driver/Src/stm32f7xx_hal_dcmi.c **** }
 459              		.loc 1 310 3 view .LVU164
 311:Drivers/STM32F7xx_HAL_Driver/Src/stm32f7xx_hal_dcmi.c **** 
 460              		.loc 1 311 1 is_stmt 0 view .LVU165
 461 0014 10BD     		pop	{r4, pc}
 311:Drivers/STM32F7xx_HAL_Driver/Src/stm32f7xx_hal_dcmi.c **** 
 462              		.loc 1 311 1 view .LVU166
 463              		.cfi_endproc
 464              	.LFE142:
 466              		.section	.text.HAL_DCMI_Start_DMA,"ax",%progbits
 467              		.align	1
 468              		.global	HAL_DCMI_Start_DMA
 469              		.syntax unified
 470              		.thumb
 471              		.thumb_func
 473              	HAL_DCMI_Start_DMA:
 474              	.LVL27:
 475              	.LFB145:
 375:Drivers/STM32F7xx_HAL_Driver/Src/stm32f7xx_hal_dcmi.c ****   /* Initialize the second memory address */
 476              		.loc 1 375 1 is_stmt 1 view -0
 477              		.cfi_startproc
 478              		@ args = 0, pretend = 0, frame = 0
ARM GAS  /var/folders/fz/x0kldt2j7vs_j4slv3pyc44m0000gp/T//ccoMI1M1.s 			page 32


 479              		@ frame_needed = 0, uses_anonymous_args = 0
 375:Drivers/STM32F7xx_HAL_Driver/Src/stm32f7xx_hal_dcmi.c ****   /* Initialize the second memory address */
 480              		.loc 1 375 1 is_stmt 0 view .LVU168
 481 0000 30B5     		push	{r4, r5, lr}
 482              		.cfi_def_cfa_offset 12
 483              		.cfi_offset 4, -12
 484              		.cfi_offset 5, -8
 485              		.cfi_offset 14, -4
 486 0002 83B0     		sub	sp, sp, #12
 487              		.cfi_def_cfa_offset 24
 488 0004 0446     		mov	r4, r0
 377:Drivers/STM32F7xx_HAL_Driver/Src/stm32f7xx_hal_dcmi.c **** 
 489              		.loc 1 377 3 is_stmt 1 view .LVU169
 490              	.LVL28:
 380:Drivers/STM32F7xx_HAL_Driver/Src/stm32f7xx_hal_dcmi.c **** 
 491              		.loc 1 380 3 view .LVU170
 383:Drivers/STM32F7xx_HAL_Driver/Src/stm32f7xx_hal_dcmi.c **** 
 492              		.loc 1 383 3 view .LVU171
 383:Drivers/STM32F7xx_HAL_Driver/Src/stm32f7xx_hal_dcmi.c **** 
 493              		.loc 1 383 3 view .LVU172
 494 0006 90F83400 		ldrb	r0, [r0, #52]	@ zero_extendqisi2
 495              	.LVL29:
 383:Drivers/STM32F7xx_HAL_Driver/Src/stm32f7xx_hal_dcmi.c **** 
 496              		.loc 1 383 3 is_stmt 0 view .LVU173
 497 000a 0128     		cmp	r0, #1
 498 000c 57D0     		beq	.L35
 383:Drivers/STM32F7xx_HAL_Driver/Src/stm32f7xx_hal_dcmi.c **** 
 499              		.loc 1 383 3 is_stmt 1 discriminator 2 view .LVU174
 500 000e 0120     		movs	r0, #1
 501 0010 84F83400 		strb	r0, [r4, #52]
 383:Drivers/STM32F7xx_HAL_Driver/Src/stm32f7xx_hal_dcmi.c **** 
 502              		.loc 1 383 3 discriminator 2 view .LVU175
 386:Drivers/STM32F7xx_HAL_Driver/Src/stm32f7xx_hal_dcmi.c **** 
 503              		.loc 1 386 3 discriminator 2 view .LVU176
 386:Drivers/STM32F7xx_HAL_Driver/Src/stm32f7xx_hal_dcmi.c **** 
 504              		.loc 1 386 16 is_stmt 0 discriminator 2 view .LVU177
 505 0014 0220     		movs	r0, #2
 506 0016 84F83500 		strb	r0, [r4, #53]
 389:Drivers/STM32F7xx_HAL_Driver/Src/stm32f7xx_hal_dcmi.c **** 
 507              		.loc 1 389 3 is_stmt 1 discriminator 2 view .LVU178
 508 001a 2568     		ldr	r5, [r4]
 509 001c 2868     		ldr	r0, [r5]
 510 001e 40F48040 		orr	r0, r0, #16384
 511 0022 2860     		str	r0, [r5]
 392:Drivers/STM32F7xx_HAL_Driver/Src/stm32f7xx_hal_dcmi.c ****   hdcmi->Instance->CR |= (uint32_t)(DCMI_Mode);
 512              		.loc 1 392 3 discriminator 2 view .LVU179
 392:Drivers/STM32F7xx_HAL_Driver/Src/stm32f7xx_hal_dcmi.c ****   hdcmi->Instance->CR |= (uint32_t)(DCMI_Mode);
 513              		.loc 1 392 8 is_stmt 0 discriminator 2 view .LVU180
 514 0024 2568     		ldr	r5, [r4]
 392:Drivers/STM32F7xx_HAL_Driver/Src/stm32f7xx_hal_dcmi.c ****   hdcmi->Instance->CR |= (uint32_t)(DCMI_Mode);
 515              		.loc 1 392 18 discriminator 2 view .LVU181
 516 0026 2868     		ldr	r0, [r5]
 392:Drivers/STM32F7xx_HAL_Driver/Src/stm32f7xx_hal_dcmi.c ****   hdcmi->Instance->CR |= (uint32_t)(DCMI_Mode);
 517              		.loc 1 392 23 discriminator 2 view .LVU182
 518 0028 20F00200 		bic	r0, r0, #2
 519 002c 2860     		str	r0, [r5]
 393:Drivers/STM32F7xx_HAL_Driver/Src/stm32f7xx_hal_dcmi.c **** 
ARM GAS  /var/folders/fz/x0kldt2j7vs_j4slv3pyc44m0000gp/T//ccoMI1M1.s 			page 33


 520              		.loc 1 393 3 is_stmt 1 discriminator 2 view .LVU183
 393:Drivers/STM32F7xx_HAL_Driver/Src/stm32f7xx_hal_dcmi.c **** 
 521              		.loc 1 393 8 is_stmt 0 discriminator 2 view .LVU184
 522 002e 2568     		ldr	r5, [r4]
 393:Drivers/STM32F7xx_HAL_Driver/Src/stm32f7xx_hal_dcmi.c **** 
 523              		.loc 1 393 18 discriminator 2 view .LVU185
 524 0030 2868     		ldr	r0, [r5]
 393:Drivers/STM32F7xx_HAL_Driver/Src/stm32f7xx_hal_dcmi.c **** 
 525              		.loc 1 393 23 discriminator 2 view .LVU186
 526 0032 0143     		orrs	r1, r1, r0
 527              	.LVL30:
 393:Drivers/STM32F7xx_HAL_Driver/Src/stm32f7xx_hal_dcmi.c **** 
 528              		.loc 1 393 23 discriminator 2 view .LVU187
 529 0034 2960     		str	r1, [r5]
 396:Drivers/STM32F7xx_HAL_Driver/Src/stm32f7xx_hal_dcmi.c **** 
 530              		.loc 1 396 3 is_stmt 1 discriminator 2 view .LVU188
 396:Drivers/STM32F7xx_HAL_Driver/Src/stm32f7xx_hal_dcmi.c **** 
 531              		.loc 1 396 8 is_stmt 0 discriminator 2 view .LVU189
 532 0036 A16C     		ldr	r1, [r4, #72]
 396:Drivers/STM32F7xx_HAL_Driver/Src/stm32f7xx_hal_dcmi.c **** 
 533              		.loc 1 396 39 discriminator 2 view .LVU190
 534 0038 2348     		ldr	r0, .L40
 535 003a C863     		str	r0, [r1, #60]
 399:Drivers/STM32F7xx_HAL_Driver/Src/stm32f7xx_hal_dcmi.c **** 
 536              		.loc 1 399 3 is_stmt 1 discriminator 2 view .LVU191
 399:Drivers/STM32F7xx_HAL_Driver/Src/stm32f7xx_hal_dcmi.c **** 
 537              		.loc 1 399 8 is_stmt 0 discriminator 2 view .LVU192
 538 003c A16C     		ldr	r1, [r4, #72]
 399:Drivers/STM32F7xx_HAL_Driver/Src/stm32f7xx_hal_dcmi.c **** 
 539              		.loc 1 399 40 discriminator 2 view .LVU193
 540 003e 2348     		ldr	r0, .L40+4
 541 0040 C864     		str	r0, [r1, #76]
 402:Drivers/STM32F7xx_HAL_Driver/Src/stm32f7xx_hal_dcmi.c **** 
 542              		.loc 1 402 3 is_stmt 1 discriminator 2 view .LVU194
 402:Drivers/STM32F7xx_HAL_Driver/Src/stm32f7xx_hal_dcmi.c **** 
 543              		.loc 1 402 8 is_stmt 0 discriminator 2 view .LVU195
 544 0042 A06C     		ldr	r0, [r4, #72]
 402:Drivers/STM32F7xx_HAL_Driver/Src/stm32f7xx_hal_dcmi.c **** 
 545              		.loc 1 402 40 discriminator 2 view .LVU196
 546 0044 0021     		movs	r1, #0
 547 0046 0165     		str	r1, [r0, #80]
 405:Drivers/STM32F7xx_HAL_Driver/Src/stm32f7xx_hal_dcmi.c ****   hdcmi->XferTransferNumber = 0;
 548              		.loc 1 405 3 is_stmt 1 discriminator 2 view .LVU197
 405:Drivers/STM32F7xx_HAL_Driver/Src/stm32f7xx_hal_dcmi.c ****   hdcmi->XferTransferNumber = 0;
 549              		.loc 1 405 20 is_stmt 0 discriminator 2 view .LVU198
 550 0048 A163     		str	r1, [r4, #56]
 406:Drivers/STM32F7xx_HAL_Driver/Src/stm32f7xx_hal_dcmi.c ****   hdcmi->XferSize = 0;
 551              		.loc 1 406 3 is_stmt 1 discriminator 2 view .LVU199
 406:Drivers/STM32F7xx_HAL_Driver/Src/stm32f7xx_hal_dcmi.c ****   hdcmi->XferSize = 0;
 552              		.loc 1 406 29 is_stmt 0 discriminator 2 view .LVU200
 553 004a 2164     		str	r1, [r4, #64]
 407:Drivers/STM32F7xx_HAL_Driver/Src/stm32f7xx_hal_dcmi.c ****   hdcmi->pBuffPtr = 0;
 554              		.loc 1 407 3 is_stmt 1 discriminator 2 view .LVU201
 407:Drivers/STM32F7xx_HAL_Driver/Src/stm32f7xx_hal_dcmi.c ****   hdcmi->pBuffPtr = 0;
 555              		.loc 1 407 19 is_stmt 0 discriminator 2 view .LVU202
 556 004c E163     		str	r1, [r4, #60]
 408:Drivers/STM32F7xx_HAL_Driver/Src/stm32f7xx_hal_dcmi.c **** 
ARM GAS  /var/folders/fz/x0kldt2j7vs_j4slv3pyc44m0000gp/T//ccoMI1M1.s 			page 34


 557              		.loc 1 408 3 is_stmt 1 discriminator 2 view .LVU203
 408:Drivers/STM32F7xx_HAL_Driver/Src/stm32f7xx_hal_dcmi.c **** 
 558              		.loc 1 408 19 is_stmt 0 discriminator 2 view .LVU204
 559 004e 6164     		str	r1, [r4, #68]
 410:Drivers/STM32F7xx_HAL_Driver/Src/stm32f7xx_hal_dcmi.c ****   {
 560              		.loc 1 410 3 is_stmt 1 discriminator 2 view .LVU205
 410:Drivers/STM32F7xx_HAL_Driver/Src/stm32f7xx_hal_dcmi.c ****   {
 561              		.loc 1 410 6 is_stmt 0 discriminator 2 view .LVU206
 562 0050 B3F5803F 		cmp	r3, #65536
 563 0054 07D3     		bcc	.L39
 421:Drivers/STM32F7xx_HAL_Driver/Src/stm32f7xx_hal_dcmi.c **** 
 564              		.loc 1 421 5 is_stmt 1 view .LVU207
 421:Drivers/STM32F7xx_HAL_Driver/Src/stm32f7xx_hal_dcmi.c **** 
 565              		.loc 1 421 10 is_stmt 0 view .LVU208
 566 0056 A16C     		ldr	r1, [r4, #72]
 421:Drivers/STM32F7xx_HAL_Driver/Src/stm32f7xx_hal_dcmi.c **** 
 567              		.loc 1 421 43 view .LVU209
 568 0058 1B48     		ldr	r0, .L40
 569 005a 4864     		str	r0, [r1, #68]
 424:Drivers/STM32F7xx_HAL_Driver/Src/stm32f7xx_hal_dcmi.c ****     hdcmi->XferSize = Length;
 570              		.loc 1 424 5 is_stmt 1 view .LVU210
 424:Drivers/STM32F7xx_HAL_Driver/Src/stm32f7xx_hal_dcmi.c ****     hdcmi->XferSize = Length;
 571              		.loc 1 424 22 is_stmt 0 view .LVU211
 572 005c 0121     		movs	r1, #1
 573 005e A163     		str	r1, [r4, #56]
 425:Drivers/STM32F7xx_HAL_Driver/Src/stm32f7xx_hal_dcmi.c ****     hdcmi->pBuffPtr = pData;
 574              		.loc 1 425 5 is_stmt 1 view .LVU212
 425:Drivers/STM32F7xx_HAL_Driver/Src/stm32f7xx_hal_dcmi.c ****     hdcmi->pBuffPtr = pData;
 575              		.loc 1 425 21 is_stmt 0 view .LVU213
 576 0060 E363     		str	r3, [r4, #60]
 426:Drivers/STM32F7xx_HAL_Driver/Src/stm32f7xx_hal_dcmi.c **** 
 577              		.loc 1 426 5 is_stmt 1 view .LVU214
 426:Drivers/STM32F7xx_HAL_Driver/Src/stm32f7xx_hal_dcmi.c **** 
 578              		.loc 1 426 21 is_stmt 0 view .LVU215
 579 0062 6264     		str	r2, [r4, #68]
 429:Drivers/STM32F7xx_HAL_Driver/Src/stm32f7xx_hal_dcmi.c ****     {
 580              		.loc 1 429 5 is_stmt 1 view .LVU216
 429:Drivers/STM32F7xx_HAL_Driver/Src/stm32f7xx_hal_dcmi.c ****     {
 581              		.loc 1 429 11 is_stmt 0 view .LVU217
 582 0064 0DE0     		b	.L33
 583              	.L39:
 413:Drivers/STM32F7xx_HAL_Driver/Src/stm32f7xx_hal_dcmi.c ****     {
 584              		.loc 1 413 5 is_stmt 1 view .LVU218
 413:Drivers/STM32F7xx_HAL_Driver/Src/stm32f7xx_hal_dcmi.c ****     {
 585              		.loc 1 413 61 is_stmt 0 view .LVU219
 586 0066 2168     		ldr	r1, [r4]
 413:Drivers/STM32F7xx_HAL_Driver/Src/stm32f7xx_hal_dcmi.c ****     {
 587              		.loc 1 413 9 view .LVU220
 588 0068 2831     		adds	r1, r1, #40
 589 006a A06C     		ldr	r0, [r4, #72]
 590 006c FFF7FEFF 		bl	HAL_DMA_Start_IT
 591              	.LVL31:
 413:Drivers/STM32F7xx_HAL_Driver/Src/stm32f7xx_hal_dcmi.c ****     {
 592              		.loc 1 413 8 view .LVU221
 593 0070 D8B1     		cbz	r0, .L32
 415:Drivers/STM32F7xx_HAL_Driver/Src/stm32f7xx_hal_dcmi.c ****     }
 594              		.loc 1 415 14 view .LVU222
ARM GAS  /var/folders/fz/x0kldt2j7vs_j4slv3pyc44m0000gp/T//ccoMI1M1.s 			page 35


 595 0072 0120     		movs	r0, #1
 596 0074 21E0     		b	.L30
 597              	.LVL32:
 598              	.L34:
 431:Drivers/STM32F7xx_HAL_Driver/Src/stm32f7xx_hal_dcmi.c ****       hdcmi->XferCount = hdcmi->XferCount * 2U;
 599              		.loc 1 431 7 is_stmt 1 view .LVU223
 431:Drivers/STM32F7xx_HAL_Driver/Src/stm32f7xx_hal_dcmi.c ****       hdcmi->XferCount = hdcmi->XferCount * 2U;
 600              		.loc 1 431 31 is_stmt 0 view .LVU224
 601 0076 E36B     		ldr	r3, [r4, #60]
 431:Drivers/STM32F7xx_HAL_Driver/Src/stm32f7xx_hal_dcmi.c ****       hdcmi->XferCount = hdcmi->XferCount * 2U;
 602              		.loc 1 431 42 view .LVU225
 603 0078 5B08     		lsrs	r3, r3, #1
 431:Drivers/STM32F7xx_HAL_Driver/Src/stm32f7xx_hal_dcmi.c ****       hdcmi->XferCount = hdcmi->XferCount * 2U;
 604              		.loc 1 431 23 view .LVU226
 605 007a E363     		str	r3, [r4, #60]
 432:Drivers/STM32F7xx_HAL_Driver/Src/stm32f7xx_hal_dcmi.c ****     }
 606              		.loc 1 432 7 is_stmt 1 view .LVU227
 432:Drivers/STM32F7xx_HAL_Driver/Src/stm32f7xx_hal_dcmi.c ****     }
 607              		.loc 1 432 31 is_stmt 0 view .LVU228
 608 007c A36B     		ldr	r3, [r4, #56]
 432:Drivers/STM32F7xx_HAL_Driver/Src/stm32f7xx_hal_dcmi.c ****     }
 609              		.loc 1 432 43 view .LVU229
 610 007e 5B00     		lsls	r3, r3, #1
 432:Drivers/STM32F7xx_HAL_Driver/Src/stm32f7xx_hal_dcmi.c ****     }
 611              		.loc 1 432 24 view .LVU230
 612 0080 A363     		str	r3, [r4, #56]
 613              	.L33:
 429:Drivers/STM32F7xx_HAL_Driver/Src/stm32f7xx_hal_dcmi.c ****     {
 614              		.loc 1 429 28 is_stmt 1 view .LVU231
 429:Drivers/STM32F7xx_HAL_Driver/Src/stm32f7xx_hal_dcmi.c ****     {
 615              		.loc 1 429 17 is_stmt 0 view .LVU232
 616 0082 E36B     		ldr	r3, [r4, #60]
 429:Drivers/STM32F7xx_HAL_Driver/Src/stm32f7xx_hal_dcmi.c ****     {
 617              		.loc 1 429 28 view .LVU233
 618 0084 B3F5803F 		cmp	r3, #65536
 619 0088 F5D2     		bcs	.L34
 436:Drivers/STM32F7xx_HAL_Driver/Src/stm32f7xx_hal_dcmi.c ****     hdcmi->XferTransferNumber = hdcmi->XferCount;
 620              		.loc 1 436 5 is_stmt 1 view .LVU234
 436:Drivers/STM32F7xx_HAL_Driver/Src/stm32f7xx_hal_dcmi.c ****     hdcmi->XferTransferNumber = hdcmi->XferCount;
 621              		.loc 1 436 30 is_stmt 0 view .LVU235
 622 008a A36B     		ldr	r3, [r4, #56]
 436:Drivers/STM32F7xx_HAL_Driver/Src/stm32f7xx_hal_dcmi.c ****     hdcmi->XferTransferNumber = hdcmi->XferCount;
 623              		.loc 1 436 42 view .LVU236
 624 008c 023B     		subs	r3, r3, #2
 436:Drivers/STM32F7xx_HAL_Driver/Src/stm32f7xx_hal_dcmi.c ****     hdcmi->XferTransferNumber = hdcmi->XferCount;
 625              		.loc 1 436 22 view .LVU237
 626 008e A363     		str	r3, [r4, #56]
 437:Drivers/STM32F7xx_HAL_Driver/Src/stm32f7xx_hal_dcmi.c **** 
 627              		.loc 1 437 5 is_stmt 1 view .LVU238
 437:Drivers/STM32F7xx_HAL_Driver/Src/stm32f7xx_hal_dcmi.c **** 
 628              		.loc 1 437 38 is_stmt 0 view .LVU239
 629 0090 A36B     		ldr	r3, [r4, #56]
 437:Drivers/STM32F7xx_HAL_Driver/Src/stm32f7xx_hal_dcmi.c **** 
 630              		.loc 1 437 31 view .LVU240
 631 0092 2364     		str	r3, [r4, #64]
 440:Drivers/STM32F7xx_HAL_Driver/Src/stm32f7xx_hal_dcmi.c **** 
 632              		.loc 1 440 5 is_stmt 1 view .LVU241
ARM GAS  /var/folders/fz/x0kldt2j7vs_j4slv3pyc44m0000gp/T//ccoMI1M1.s 			page 36


 440:Drivers/STM32F7xx_HAL_Driver/Src/stm32f7xx_hal_dcmi.c **** 
 633              		.loc 1 440 53 is_stmt 0 view .LVU242
 634 0094 E36B     		ldr	r3, [r4, #60]
 635              	.LVL33:
 443:Drivers/STM32F7xx_HAL_Driver/Src/stm32f7xx_hal_dcmi.c ****     {
 636              		.loc 1 443 5 is_stmt 1 view .LVU243
 443:Drivers/STM32F7xx_HAL_Driver/Src/stm32f7xx_hal_dcmi.c ****     {
 637              		.loc 1 443 74 is_stmt 0 view .LVU244
 638 0096 2168     		ldr	r1, [r4]
 443:Drivers/STM32F7xx_HAL_Driver/Src/stm32f7xx_hal_dcmi.c ****     {
 639              		.loc 1 443 130 view .LVU245
 640 0098 E06B     		ldr	r0, [r4, #60]
 443:Drivers/STM32F7xx_HAL_Driver/Src/stm32f7xx_hal_dcmi.c ****     {
 641              		.loc 1 443 9 view .LVU246
 642 009a 0090     		str	r0, [sp]
 643 009c 02EB8303 		add	r3, r2, r3, lsl #2
 644              	.LVL34:
 443:Drivers/STM32F7xx_HAL_Driver/Src/stm32f7xx_hal_dcmi.c ****     {
 645              		.loc 1 443 9 view .LVU247
 646 00a0 2831     		adds	r1, r1, #40
 647 00a2 A06C     		ldr	r0, [r4, #72]
 648 00a4 FFF7FEFF 		bl	HAL_DMAEx_MultiBufferStart_IT
 649              	.LVL35:
 443:Drivers/STM32F7xx_HAL_Driver/Src/stm32f7xx_hal_dcmi.c ****     {
 650              		.loc 1 443 8 view .LVU248
 651 00a8 58B9     		cbnz	r0, .L37
 652              	.LVL36:
 653              	.L32:
 450:Drivers/STM32F7xx_HAL_Driver/Src/stm32f7xx_hal_dcmi.c **** 
 654              		.loc 1 450 3 is_stmt 1 view .LVU249
 450:Drivers/STM32F7xx_HAL_Driver/Src/stm32f7xx_hal_dcmi.c **** 
 655              		.loc 1 450 8 is_stmt 0 view .LVU250
 656 00aa 2268     		ldr	r2, [r4]
 450:Drivers/STM32F7xx_HAL_Driver/Src/stm32f7xx_hal_dcmi.c **** 
 657              		.loc 1 450 18 view .LVU251
 658 00ac 1368     		ldr	r3, [r2]
 450:Drivers/STM32F7xx_HAL_Driver/Src/stm32f7xx_hal_dcmi.c **** 
 659              		.loc 1 450 23 view .LVU252
 660 00ae 43F00103 		orr	r3, r3, #1
 661 00b2 1360     		str	r3, [r2]
 453:Drivers/STM32F7xx_HAL_Driver/Src/stm32f7xx_hal_dcmi.c **** 
 662              		.loc 1 453 3 is_stmt 1 view .LVU253
 453:Drivers/STM32F7xx_HAL_Driver/Src/stm32f7xx_hal_dcmi.c **** 
 663              		.loc 1 453 3 view .LVU254
 664 00b4 0020     		movs	r0, #0
 665 00b6 84F83400 		strb	r0, [r4, #52]
 453:Drivers/STM32F7xx_HAL_Driver/Src/stm32f7xx_hal_dcmi.c **** 
 666              		.loc 1 453 3 view .LVU255
 456:Drivers/STM32F7xx_HAL_Driver/Src/stm32f7xx_hal_dcmi.c **** }
 667              		.loc 1 456 3 view .LVU256
 668              	.L30:
 457:Drivers/STM32F7xx_HAL_Driver/Src/stm32f7xx_hal_dcmi.c **** 
 669              		.loc 1 457 1 is_stmt 0 view .LVU257
 670 00ba 03B0     		add	sp, sp, #12
 671              		.cfi_remember_state
 672              		.cfi_def_cfa_offset 12
 673              		@ sp needed
ARM GAS  /var/folders/fz/x0kldt2j7vs_j4slv3pyc44m0000gp/T//ccoMI1M1.s 			page 37


 674 00bc 30BD     		pop	{r4, r5, pc}
 675              	.LVL37:
 676              	.L35:
 677              		.cfi_restore_state
 383:Drivers/STM32F7xx_HAL_Driver/Src/stm32f7xx_hal_dcmi.c **** 
 678              		.loc 1 383 3 view .LVU258
 679 00be 0220     		movs	r0, #2
 680 00c0 FBE7     		b	.L30
 681              	.LVL38:
 682              	.L37:
 445:Drivers/STM32F7xx_HAL_Driver/Src/stm32f7xx_hal_dcmi.c ****     }
 683              		.loc 1 445 14 view .LVU259
 684 00c2 0120     		movs	r0, #1
 685 00c4 F9E7     		b	.L30
 686              	.L41:
 687 00c6 00BF     		.align	2
 688              	.L40:
 689 00c8 00000000 		.word	DCMI_DMAXferCplt
 690 00cc 00000000 		.word	DCMI_DMAError
 691              		.cfi_endproc
 692              	.LFE145:
 694              		.section	.text.HAL_DCMI_Stop,"ax",%progbits
 695              		.align	1
 696              		.global	HAL_DCMI_Stop
 697              		.syntax unified
 698              		.thumb
 699              		.thumb_func
 701              	HAL_DCMI_Stop:
 702              	.LVL39:
 703              	.LFB146:
 466:Drivers/STM32F7xx_HAL_Driver/Src/stm32f7xx_hal_dcmi.c ****   register uint32_t count = HAL_TIMEOUT_DCMI_STOP * (SystemCoreClock / 8U / 1000U);
 704              		.loc 1 466 1 is_stmt 1 view -0
 705              		.cfi_startproc
 706              		@ args = 0, pretend = 0, frame = 0
 707              		@ frame_needed = 0, uses_anonymous_args = 0
 466:Drivers/STM32F7xx_HAL_Driver/Src/stm32f7xx_hal_dcmi.c ****   register uint32_t count = HAL_TIMEOUT_DCMI_STOP * (SystemCoreClock / 8U / 1000U);
 708              		.loc 1 466 1 is_stmt 0 view .LVU261
 709 0000 38B5     		push	{r3, r4, r5, lr}
 710              		.cfi_def_cfa_offset 16
 711              		.cfi_offset 3, -16
 712              		.cfi_offset 4, -12
 713              		.cfi_offset 5, -8
 714              		.cfi_offset 14, -4
 467:Drivers/STM32F7xx_HAL_Driver/Src/stm32f7xx_hal_dcmi.c ****   HAL_StatusTypeDef status = HAL_OK;
 715              		.loc 1 467 3 is_stmt 1 view .LVU262
 467:Drivers/STM32F7xx_HAL_Driver/Src/stm32f7xx_hal_dcmi.c ****   HAL_StatusTypeDef status = HAL_OK;
 716              		.loc 1 467 75 is_stmt 0 view .LVU263
 717 0002 1E4B     		ldr	r3, .L50
 718 0004 1B68     		ldr	r3, [r3]
 719 0006 1E4A     		ldr	r2, .L50+4
 720 0008 A2FB0323 		umull	r2, r3, r2, r3
 721 000c 5B0A     		lsrs	r3, r3, #9
 467:Drivers/STM32F7xx_HAL_Driver/Src/stm32f7xx_hal_dcmi.c ****   HAL_StatusTypeDef status = HAL_OK;
 722              		.loc 1 467 21 view .LVU264
 723 000e 4FF47A72 		mov	r2, #1000
 724 0012 02FB03F3 		mul	r3, r2, r3
 725              	.LVL40:
ARM GAS  /var/folders/fz/x0kldt2j7vs_j4slv3pyc44m0000gp/T//ccoMI1M1.s 			page 38


 468:Drivers/STM32F7xx_HAL_Driver/Src/stm32f7xx_hal_dcmi.c **** 
 726              		.loc 1 468 3 is_stmt 1 view .LVU265
 471:Drivers/STM32F7xx_HAL_Driver/Src/stm32f7xx_hal_dcmi.c **** 
 727              		.loc 1 471 3 view .LVU266
 471:Drivers/STM32F7xx_HAL_Driver/Src/stm32f7xx_hal_dcmi.c **** 
 728              		.loc 1 471 3 view .LVU267
 729 0016 90F83420 		ldrb	r2, [r0, #52]	@ zero_extendqisi2
 730 001a 012A     		cmp	r2, #1
 731 001c 2CD0     		beq	.L47
 732 001e 0446     		mov	r4, r0
 471:Drivers/STM32F7xx_HAL_Driver/Src/stm32f7xx_hal_dcmi.c **** 
 733              		.loc 1 471 3 discriminator 2 view .LVU268
 734 0020 0122     		movs	r2, #1
 735 0022 80F83420 		strb	r2, [r0, #52]
 471:Drivers/STM32F7xx_HAL_Driver/Src/stm32f7xx_hal_dcmi.c **** 
 736              		.loc 1 471 3 discriminator 2 view .LVU269
 474:Drivers/STM32F7xx_HAL_Driver/Src/stm32f7xx_hal_dcmi.c **** 
 737              		.loc 1 474 3 discriminator 2 view .LVU270
 474:Drivers/STM32F7xx_HAL_Driver/Src/stm32f7xx_hal_dcmi.c **** 
 738              		.loc 1 474 16 is_stmt 0 discriminator 2 view .LVU271
 739 0026 0222     		movs	r2, #2
 740 0028 80F83520 		strb	r2, [r0, #53]
 477:Drivers/STM32F7xx_HAL_Driver/Src/stm32f7xx_hal_dcmi.c **** 
 741              		.loc 1 477 3 is_stmt 1 discriminator 2 view .LVU272
 477:Drivers/STM32F7xx_HAL_Driver/Src/stm32f7xx_hal_dcmi.c **** 
 742              		.loc 1 477 8 is_stmt 0 discriminator 2 view .LVU273
 743 002c 0168     		ldr	r1, [r0]
 477:Drivers/STM32F7xx_HAL_Driver/Src/stm32f7xx_hal_dcmi.c **** 
 744              		.loc 1 477 18 discriminator 2 view .LVU274
 745 002e 0A68     		ldr	r2, [r1]
 477:Drivers/STM32F7xx_HAL_Driver/Src/stm32f7xx_hal_dcmi.c **** 
 746              		.loc 1 477 23 discriminator 2 view .LVU275
 747 0030 22F00102 		bic	r2, r2, #1
 748 0034 0A60     		str	r2, [r1]
 749              	.L46:
 480:Drivers/STM32F7xx_HAL_Driver/Src/stm32f7xx_hal_dcmi.c ****   {
 750              		.loc 1 480 3 is_stmt 1 view .LVU276
 482:Drivers/STM32F7xx_HAL_Driver/Src/stm32f7xx_hal_dcmi.c ****     {
 751              		.loc 1 482 5 view .LVU277
 752 0036 1A46     		mov	r2, r3
 482:Drivers/STM32F7xx_HAL_Driver/Src/stm32f7xx_hal_dcmi.c ****     {
 753              		.loc 1 482 14 is_stmt 0 view .LVU278
 754 0038 013B     		subs	r3, r3, #1
 755              	.LVL41:
 482:Drivers/STM32F7xx_HAL_Driver/Src/stm32f7xx_hal_dcmi.c ****     {
 756              		.loc 1 482 8 view .LVU279
 757 003a 32B1     		cbz	r2, .L49
 491:Drivers/STM32F7xx_HAL_Driver/Src/stm32f7xx_hal_dcmi.c **** 
 758              		.loc 1 491 50 is_stmt 1 view .LVU280
 491:Drivers/STM32F7xx_HAL_Driver/Src/stm32f7xx_hal_dcmi.c **** 
 759              		.loc 1 491 16 is_stmt 0 view .LVU281
 760 003c 2268     		ldr	r2, [r4]
 491:Drivers/STM32F7xx_HAL_Driver/Src/stm32f7xx_hal_dcmi.c **** 
 761              		.loc 1 491 26 view .LVU282
 762 003e 1268     		ldr	r2, [r2]
 491:Drivers/STM32F7xx_HAL_Driver/Src/stm32f7xx_hal_dcmi.c **** 
 763              		.loc 1 491 50 view .LVU283
ARM GAS  /var/folders/fz/x0kldt2j7vs_j4slv3pyc44m0000gp/T//ccoMI1M1.s 			page 39


 764 0040 12F0010F 		tst	r2, #1
 765 0044 F7D1     		bne	.L46
 468:Drivers/STM32F7xx_HAL_Driver/Src/stm32f7xx_hal_dcmi.c **** 
 766              		.loc 1 468 21 view .LVU284
 767 0046 0025     		movs	r5, #0
 768 0048 04E0     		b	.L45
 769              	.L49:
 485:Drivers/STM32F7xx_HAL_Driver/Src/stm32f7xx_hal_dcmi.c **** 
 770              		.loc 1 485 7 is_stmt 1 view .LVU285
 485:Drivers/STM32F7xx_HAL_Driver/Src/stm32f7xx_hal_dcmi.c **** 
 771              		.loc 1 485 12 is_stmt 0 view .LVU286
 772 004a E36C     		ldr	r3, [r4, #76]
 773              	.LVL42:
 485:Drivers/STM32F7xx_HAL_Driver/Src/stm32f7xx_hal_dcmi.c **** 
 774              		.loc 1 485 24 view .LVU287
 775 004c 43F02003 		orr	r3, r3, #32
 776 0050 E364     		str	r3, [r4, #76]
 487:Drivers/STM32F7xx_HAL_Driver/Src/stm32f7xx_hal_dcmi.c ****       break;
 777              		.loc 1 487 7 is_stmt 1 view .LVU288
 778              	.LVL43:
 488:Drivers/STM32F7xx_HAL_Driver/Src/stm32f7xx_hal_dcmi.c ****     }
 779              		.loc 1 488 7 view .LVU289
 487:Drivers/STM32F7xx_HAL_Driver/Src/stm32f7xx_hal_dcmi.c ****       break;
 780              		.loc 1 487 14 is_stmt 0 view .LVU290
 781 0052 0325     		movs	r5, #3
 782              	.LVL44:
 783              	.L45:
 494:Drivers/STM32F7xx_HAL_Driver/Src/stm32f7xx_hal_dcmi.c **** 
 784              		.loc 1 494 3 is_stmt 1 view .LVU291
 785 0054 2268     		ldr	r2, [r4]
 786 0056 1368     		ldr	r3, [r2]
 787 0058 23F48043 		bic	r3, r3, #16384
 788 005c 1360     		str	r3, [r2]
 497:Drivers/STM32F7xx_HAL_Driver/Src/stm32f7xx_hal_dcmi.c **** 
 789              		.loc 1 497 3 view .LVU292
 497:Drivers/STM32F7xx_HAL_Driver/Src/stm32f7xx_hal_dcmi.c **** 
 790              		.loc 1 497 9 is_stmt 0 view .LVU293
 791 005e A06C     		ldr	r0, [r4, #72]
 792              	.LVL45:
 497:Drivers/STM32F7xx_HAL_Driver/Src/stm32f7xx_hal_dcmi.c **** 
 793              		.loc 1 497 9 view .LVU294
 794 0060 FFF7FEFF 		bl	HAL_DMA_Abort
 795              	.LVL46:
 500:Drivers/STM32F7xx_HAL_Driver/Src/stm32f7xx_hal_dcmi.c **** 
 796              		.loc 1 500 3 is_stmt 1 view .LVU295
 500:Drivers/STM32F7xx_HAL_Driver/Src/stm32f7xx_hal_dcmi.c **** 
 797              		.loc 1 500 8 is_stmt 0 view .LVU296
 798 0064 E36C     		ldr	r3, [r4, #76]
 500:Drivers/STM32F7xx_HAL_Driver/Src/stm32f7xx_hal_dcmi.c **** 
 799              		.loc 1 500 20 view .LVU297
 800 0066 E364     		str	r3, [r4, #76]
 503:Drivers/STM32F7xx_HAL_Driver/Src/stm32f7xx_hal_dcmi.c **** 
 801              		.loc 1 503 3 is_stmt 1 view .LVU298
 503:Drivers/STM32F7xx_HAL_Driver/Src/stm32f7xx_hal_dcmi.c **** 
 802              		.loc 1 503 16 is_stmt 0 view .LVU299
 803 0068 0123     		movs	r3, #1
 804 006a 84F83530 		strb	r3, [r4, #53]
ARM GAS  /var/folders/fz/x0kldt2j7vs_j4slv3pyc44m0000gp/T//ccoMI1M1.s 			page 40


 506:Drivers/STM32F7xx_HAL_Driver/Src/stm32f7xx_hal_dcmi.c **** 
 805              		.loc 1 506 3 is_stmt 1 view .LVU300
 506:Drivers/STM32F7xx_HAL_Driver/Src/stm32f7xx_hal_dcmi.c **** 
 806              		.loc 1 506 3 view .LVU301
 807 006e 0023     		movs	r3, #0
 808 0070 84F83430 		strb	r3, [r4, #52]
 506:Drivers/STM32F7xx_HAL_Driver/Src/stm32f7xx_hal_dcmi.c **** 
 809              		.loc 1 506 3 view .LVU302
 509:Drivers/STM32F7xx_HAL_Driver/Src/stm32f7xx_hal_dcmi.c **** }
 810              		.loc 1 509 3 view .LVU303
 811              	.LVL47:
 812              	.L43:
 510:Drivers/STM32F7xx_HAL_Driver/Src/stm32f7xx_hal_dcmi.c **** 
 813              		.loc 1 510 1 is_stmt 0 view .LVU304
 814 0074 2846     		mov	r0, r5
 815 0076 38BD     		pop	{r3, r4, r5, pc}
 816              	.LVL48:
 817              	.L47:
 471:Drivers/STM32F7xx_HAL_Driver/Src/stm32f7xx_hal_dcmi.c **** 
 818              		.loc 1 471 3 view .LVU305
 819 0078 0225     		movs	r5, #2
 820 007a FBE7     		b	.L43
 821              	.L51:
 822              		.align	2
 823              	.L50:
 824 007c 00000000 		.word	SystemCoreClock
 825 0080 D34D6210 		.word	274877907
 826              		.cfi_endproc
 827              	.LFE146:
 829              		.section	.text.HAL_DCMI_Suspend,"ax",%progbits
 830              		.align	1
 831              		.global	HAL_DCMI_Suspend
 832              		.syntax unified
 833              		.thumb
 834              		.thumb_func
 836              	HAL_DCMI_Suspend:
 837              	.LVL49:
 838              	.LFB147:
 519:Drivers/STM32F7xx_HAL_Driver/Src/stm32f7xx_hal_dcmi.c ****   register uint32_t count = HAL_TIMEOUT_DCMI_STOP * (SystemCoreClock / 8U / 1000U);
 839              		.loc 1 519 1 is_stmt 1 view -0
 840              		.cfi_startproc
 841              		@ args = 0, pretend = 0, frame = 0
 842              		@ frame_needed = 0, uses_anonymous_args = 0
 843              		@ link register save eliminated.
 519:Drivers/STM32F7xx_HAL_Driver/Src/stm32f7xx_hal_dcmi.c ****   register uint32_t count = HAL_TIMEOUT_DCMI_STOP * (SystemCoreClock / 8U / 1000U);
 844              		.loc 1 519 1 is_stmt 0 view .LVU307
 845 0000 0246     		mov	r2, r0
 520:Drivers/STM32F7xx_HAL_Driver/Src/stm32f7xx_hal_dcmi.c ****   HAL_StatusTypeDef status = HAL_OK;
 846              		.loc 1 520 3 is_stmt 1 view .LVU308
 520:Drivers/STM32F7xx_HAL_Driver/Src/stm32f7xx_hal_dcmi.c ****   HAL_StatusTypeDef status = HAL_OK;
 847              		.loc 1 520 75 is_stmt 0 view .LVU309
 848 0002 1C4B     		ldr	r3, .L61
 849 0004 1B68     		ldr	r3, [r3]
 850 0006 1C49     		ldr	r1, .L61+4
 851 0008 A1FB0313 		umull	r1, r3, r1, r3
 852 000c 5B0A     		lsrs	r3, r3, #9
 520:Drivers/STM32F7xx_HAL_Driver/Src/stm32f7xx_hal_dcmi.c ****   HAL_StatusTypeDef status = HAL_OK;
ARM GAS  /var/folders/fz/x0kldt2j7vs_j4slv3pyc44m0000gp/T//ccoMI1M1.s 			page 41


 853              		.loc 1 520 21 view .LVU310
 854 000e 4FF47A71 		mov	r1, #1000
 855 0012 01FB03F3 		mul	r3, r1, r3
 856              	.LVL50:
 521:Drivers/STM32F7xx_HAL_Driver/Src/stm32f7xx_hal_dcmi.c **** 
 857              		.loc 1 521 3 is_stmt 1 view .LVU311
 524:Drivers/STM32F7xx_HAL_Driver/Src/stm32f7xx_hal_dcmi.c **** 
 858              		.loc 1 524 3 view .LVU312
 524:Drivers/STM32F7xx_HAL_Driver/Src/stm32f7xx_hal_dcmi.c **** 
 859              		.loc 1 524 3 view .LVU313
 860 0016 90F83410 		ldrb	r1, [r0, #52]	@ zero_extendqisi2
 861 001a 0129     		cmp	r1, #1
 862 001c 27D0     		beq	.L57
 524:Drivers/STM32F7xx_HAL_Driver/Src/stm32f7xx_hal_dcmi.c **** 
 863              		.loc 1 524 3 discriminator 2 view .LVU314
 864 001e 0121     		movs	r1, #1
 865 0020 80F83410 		strb	r1, [r0, #52]
 524:Drivers/STM32F7xx_HAL_Driver/Src/stm32f7xx_hal_dcmi.c **** 
 866              		.loc 1 524 3 discriminator 2 view .LVU315
 526:Drivers/STM32F7xx_HAL_Driver/Src/stm32f7xx_hal_dcmi.c ****   {
 867              		.loc 1 526 3 discriminator 2 view .LVU316
 526:Drivers/STM32F7xx_HAL_Driver/Src/stm32f7xx_hal_dcmi.c ****   {
 868              		.loc 1 526 12 is_stmt 0 discriminator 2 view .LVU317
 869 0024 90F83510 		ldrb	r1, [r0, #53]	@ zero_extendqisi2
 870 0028 C9B2     		uxtb	r1, r1
 526:Drivers/STM32F7xx_HAL_Driver/Src/stm32f7xx_hal_dcmi.c ****   {
 871              		.loc 1 526 6 discriminator 2 view .LVU318
 872 002a 0229     		cmp	r1, #2
 873 002c 04D0     		beq	.L59
 521:Drivers/STM32F7xx_HAL_Driver/Src/stm32f7xx_hal_dcmi.c **** 
 874              		.loc 1 521 21 view .LVU319
 875 002e 0020     		movs	r0, #0
 876              	.LVL51:
 877              	.L54:
 552:Drivers/STM32F7xx_HAL_Driver/Src/stm32f7xx_hal_dcmi.c **** 
 878              		.loc 1 552 3 is_stmt 1 view .LVU320
 552:Drivers/STM32F7xx_HAL_Driver/Src/stm32f7xx_hal_dcmi.c **** 
 879              		.loc 1 552 3 view .LVU321
 880 0030 0023     		movs	r3, #0
 881 0032 82F83430 		strb	r3, [r2, #52]
 552:Drivers/STM32F7xx_HAL_Driver/Src/stm32f7xx_hal_dcmi.c **** 
 882              		.loc 1 552 3 view .LVU322
 555:Drivers/STM32F7xx_HAL_Driver/Src/stm32f7xx_hal_dcmi.c **** }
 883              		.loc 1 555 3 view .LVU323
 555:Drivers/STM32F7xx_HAL_Driver/Src/stm32f7xx_hal_dcmi.c **** }
 884              		.loc 1 555 10 is_stmt 0 view .LVU324
 885 0036 7047     		bx	lr
 886              	.LVL52:
 887              	.L59:
 529:Drivers/STM32F7xx_HAL_Driver/Src/stm32f7xx_hal_dcmi.c **** 
 888              		.loc 1 529 5 is_stmt 1 view .LVU325
 529:Drivers/STM32F7xx_HAL_Driver/Src/stm32f7xx_hal_dcmi.c **** 
 889              		.loc 1 529 18 is_stmt 0 view .LVU326
 890 0038 0521     		movs	r1, #5
 891 003a 80F83510 		strb	r1, [r0, #53]
 532:Drivers/STM32F7xx_HAL_Driver/Src/stm32f7xx_hal_dcmi.c **** 
 892              		.loc 1 532 5 is_stmt 1 view .LVU327
ARM GAS  /var/folders/fz/x0kldt2j7vs_j4slv3pyc44m0000gp/T//ccoMI1M1.s 			page 42


 532:Drivers/STM32F7xx_HAL_Driver/Src/stm32f7xx_hal_dcmi.c **** 
 893              		.loc 1 532 10 is_stmt 0 view .LVU328
 894 003e 0068     		ldr	r0, [r0]
 895              	.LVL53:
 532:Drivers/STM32F7xx_HAL_Driver/Src/stm32f7xx_hal_dcmi.c **** 
 896              		.loc 1 532 20 view .LVU329
 897 0040 0168     		ldr	r1, [r0]
 532:Drivers/STM32F7xx_HAL_Driver/Src/stm32f7xx_hal_dcmi.c **** 
 898              		.loc 1 532 25 view .LVU330
 899 0042 21F00101 		bic	r1, r1, #1
 900 0046 0160     		str	r1, [r0]
 901              	.L56:
 535:Drivers/STM32F7xx_HAL_Driver/Src/stm32f7xx_hal_dcmi.c ****     {
 902              		.loc 1 535 5 is_stmt 1 view .LVU331
 537:Drivers/STM32F7xx_HAL_Driver/Src/stm32f7xx_hal_dcmi.c ****       {
 903              		.loc 1 537 7 view .LVU332
 904 0048 1946     		mov	r1, r3
 537:Drivers/STM32F7xx_HAL_Driver/Src/stm32f7xx_hal_dcmi.c ****       {
 905              		.loc 1 537 16 is_stmt 0 view .LVU333
 906 004a 013B     		subs	r3, r3, #1
 907              	.LVL54:
 537:Drivers/STM32F7xx_HAL_Driver/Src/stm32f7xx_hal_dcmi.c ****       {
 908              		.loc 1 537 10 view .LVU334
 909 004c 31B1     		cbz	r1, .L60
 549:Drivers/STM32F7xx_HAL_Driver/Src/stm32f7xx_hal_dcmi.c ****   }
 910              		.loc 1 549 52 is_stmt 1 view .LVU335
 549:Drivers/STM32F7xx_HAL_Driver/Src/stm32f7xx_hal_dcmi.c ****   }
 911              		.loc 1 549 18 is_stmt 0 view .LVU336
 912 004e 1168     		ldr	r1, [r2]
 549:Drivers/STM32F7xx_HAL_Driver/Src/stm32f7xx_hal_dcmi.c ****   }
 913              		.loc 1 549 28 view .LVU337
 914 0050 0968     		ldr	r1, [r1]
 549:Drivers/STM32F7xx_HAL_Driver/Src/stm32f7xx_hal_dcmi.c ****   }
 915              		.loc 1 549 52 view .LVU338
 916 0052 11F0010F 		tst	r1, #1
 917 0056 F7D1     		bne	.L56
 521:Drivers/STM32F7xx_HAL_Driver/Src/stm32f7xx_hal_dcmi.c **** 
 918              		.loc 1 521 21 view .LVU339
 919 0058 0020     		movs	r0, #0
 920 005a E9E7     		b	.L54
 921              	.L60:
 540:Drivers/STM32F7xx_HAL_Driver/Src/stm32f7xx_hal_dcmi.c **** 
 922              		.loc 1 540 9 is_stmt 1 view .LVU340
 540:Drivers/STM32F7xx_HAL_Driver/Src/stm32f7xx_hal_dcmi.c **** 
 923              		.loc 1 540 14 is_stmt 0 view .LVU341
 924 005c D36C     		ldr	r3, [r2, #76]
 925              	.LVL55:
 540:Drivers/STM32F7xx_HAL_Driver/Src/stm32f7xx_hal_dcmi.c **** 
 926              		.loc 1 540 26 view .LVU342
 927 005e 43F02003 		orr	r3, r3, #32
 928 0062 D364     		str	r3, [r2, #76]
 543:Drivers/STM32F7xx_HAL_Driver/Src/stm32f7xx_hal_dcmi.c **** 
 929              		.loc 1 543 9 is_stmt 1 view .LVU343
 543:Drivers/STM32F7xx_HAL_Driver/Src/stm32f7xx_hal_dcmi.c **** 
 930              		.loc 1 543 22 is_stmt 0 view .LVU344
 931 0064 0123     		movs	r3, #1
 932 0066 82F83530 		strb	r3, [r2, #53]
ARM GAS  /var/folders/fz/x0kldt2j7vs_j4slv3pyc44m0000gp/T//ccoMI1M1.s 			page 43


 545:Drivers/STM32F7xx_HAL_Driver/Src/stm32f7xx_hal_dcmi.c ****         break;
 933              		.loc 1 545 9 is_stmt 1 view .LVU345
 934              	.LVL56:
 546:Drivers/STM32F7xx_HAL_Driver/Src/stm32f7xx_hal_dcmi.c ****       }
 935              		.loc 1 546 9 view .LVU346
 545:Drivers/STM32F7xx_HAL_Driver/Src/stm32f7xx_hal_dcmi.c ****         break;
 936              		.loc 1 545 16 is_stmt 0 view .LVU347
 937 006a 0320     		movs	r0, #3
 546:Drivers/STM32F7xx_HAL_Driver/Src/stm32f7xx_hal_dcmi.c ****       }
 938              		.loc 1 546 9 view .LVU348
 939 006c E0E7     		b	.L54
 940              	.LVL57:
 941              	.L57:
 524:Drivers/STM32F7xx_HAL_Driver/Src/stm32f7xx_hal_dcmi.c **** 
 942              		.loc 1 524 3 view .LVU349
 943 006e 0220     		movs	r0, #2
 944              	.LVL58:
 556:Drivers/STM32F7xx_HAL_Driver/Src/stm32f7xx_hal_dcmi.c **** 
 945              		.loc 1 556 1 view .LVU350
 946 0070 7047     		bx	lr
 947              	.L62:
 948 0072 00BF     		.align	2
 949              	.L61:
 950 0074 00000000 		.word	SystemCoreClock
 951 0078 D34D6210 		.word	274877907
 952              		.cfi_endproc
 953              	.LFE147:
 955              		.section	.text.HAL_DCMI_Resume,"ax",%progbits
 956              		.align	1
 957              		.global	HAL_DCMI_Resume
 958              		.syntax unified
 959              		.thumb
 960              		.thumb_func
 962              	HAL_DCMI_Resume:
 963              	.LVL59:
 964              	.LFB148:
 565:Drivers/STM32F7xx_HAL_Driver/Src/stm32f7xx_hal_dcmi.c ****   /* Process locked */
 965              		.loc 1 565 1 is_stmt 1 view -0
 966              		.cfi_startproc
 967              		@ args = 0, pretend = 0, frame = 0
 968              		@ frame_needed = 0, uses_anonymous_args = 0
 969              		@ link register save eliminated.
 567:Drivers/STM32F7xx_HAL_Driver/Src/stm32f7xx_hal_dcmi.c **** 
 970              		.loc 1 567 3 view .LVU352
 567:Drivers/STM32F7xx_HAL_Driver/Src/stm32f7xx_hal_dcmi.c **** 
 971              		.loc 1 567 3 view .LVU353
 972 0000 90F83430 		ldrb	r3, [r0, #52]	@ zero_extendqisi2
 973 0004 012B     		cmp	r3, #1
 974 0006 15D0     		beq	.L66
 567:Drivers/STM32F7xx_HAL_Driver/Src/stm32f7xx_hal_dcmi.c **** 
 975              		.loc 1 567 3 discriminator 2 view .LVU354
 976 0008 0123     		movs	r3, #1
 977 000a 80F83430 		strb	r3, [r0, #52]
 567:Drivers/STM32F7xx_HAL_Driver/Src/stm32f7xx_hal_dcmi.c **** 
 978              		.loc 1 567 3 discriminator 2 view .LVU355
 569:Drivers/STM32F7xx_HAL_Driver/Src/stm32f7xx_hal_dcmi.c ****   {
 979              		.loc 1 569 3 discriminator 2 view .LVU356
ARM GAS  /var/folders/fz/x0kldt2j7vs_j4slv3pyc44m0000gp/T//ccoMI1M1.s 			page 44


 569:Drivers/STM32F7xx_HAL_Driver/Src/stm32f7xx_hal_dcmi.c ****   {
 980              		.loc 1 569 12 is_stmt 0 discriminator 2 view .LVU357
 981 000e 90F83530 		ldrb	r3, [r0, #53]	@ zero_extendqisi2
 982 0012 DBB2     		uxtb	r3, r3
 569:Drivers/STM32F7xx_HAL_Driver/Src/stm32f7xx_hal_dcmi.c ****   {
 983              		.loc 1 569 6 discriminator 2 view .LVU358
 984 0014 052B     		cmp	r3, #5
 985 0016 04D0     		beq	.L67
 986              	.L65:
 578:Drivers/STM32F7xx_HAL_Driver/Src/stm32f7xx_hal_dcmi.c **** 
 987              		.loc 1 578 3 is_stmt 1 view .LVU359
 578:Drivers/STM32F7xx_HAL_Driver/Src/stm32f7xx_hal_dcmi.c **** 
 988              		.loc 1 578 3 view .LVU360
 989 0018 0023     		movs	r3, #0
 990 001a 80F83430 		strb	r3, [r0, #52]
 578:Drivers/STM32F7xx_HAL_Driver/Src/stm32f7xx_hal_dcmi.c **** 
 991              		.loc 1 578 3 view .LVU361
 581:Drivers/STM32F7xx_HAL_Driver/Src/stm32f7xx_hal_dcmi.c **** }
 992              		.loc 1 581 3 view .LVU362
 581:Drivers/STM32F7xx_HAL_Driver/Src/stm32f7xx_hal_dcmi.c **** }
 993              		.loc 1 581 10 is_stmt 0 view .LVU363
 994 001e 1846     		mov	r0, r3
 995              	.LVL60:
 581:Drivers/STM32F7xx_HAL_Driver/Src/stm32f7xx_hal_dcmi.c **** }
 996              		.loc 1 581 10 view .LVU364
 997 0020 7047     		bx	lr
 998              	.LVL61:
 999              	.L67:
 572:Drivers/STM32F7xx_HAL_Driver/Src/stm32f7xx_hal_dcmi.c **** 
 1000              		.loc 1 572 5 is_stmt 1 view .LVU365
 572:Drivers/STM32F7xx_HAL_Driver/Src/stm32f7xx_hal_dcmi.c **** 
 1001              		.loc 1 572 18 is_stmt 0 view .LVU366
 1002 0022 0223     		movs	r3, #2
 1003 0024 80F83530 		strb	r3, [r0, #53]
 575:Drivers/STM32F7xx_HAL_Driver/Src/stm32f7xx_hal_dcmi.c ****   }
 1004              		.loc 1 575 5 is_stmt 1 view .LVU367
 575:Drivers/STM32F7xx_HAL_Driver/Src/stm32f7xx_hal_dcmi.c ****   }
 1005              		.loc 1 575 10 is_stmt 0 view .LVU368
 1006 0028 0268     		ldr	r2, [r0]
 575:Drivers/STM32F7xx_HAL_Driver/Src/stm32f7xx_hal_dcmi.c ****   }
 1007              		.loc 1 575 20 view .LVU369
 1008 002a 1368     		ldr	r3, [r2]
 575:Drivers/STM32F7xx_HAL_Driver/Src/stm32f7xx_hal_dcmi.c ****   }
 1009              		.loc 1 575 25 view .LVU370
 1010 002c 43F00103 		orr	r3, r3, #1
 1011 0030 1360     		str	r3, [r2]
 1012 0032 F1E7     		b	.L65
 1013              	.L66:
 567:Drivers/STM32F7xx_HAL_Driver/Src/stm32f7xx_hal_dcmi.c **** 
 1014              		.loc 1 567 3 view .LVU371
 1015 0034 0220     		movs	r0, #2
 1016              	.LVL62:
 582:Drivers/STM32F7xx_HAL_Driver/Src/stm32f7xx_hal_dcmi.c **** 
 1017              		.loc 1 582 1 view .LVU372
 1018 0036 7047     		bx	lr
 1019              		.cfi_endproc
 1020              	.LFE148:
ARM GAS  /var/folders/fz/x0kldt2j7vs_j4slv3pyc44m0000gp/T//ccoMI1M1.s 			page 45


 1022              		.section	.text.HAL_DCMI_ErrorCallback,"ax",%progbits
 1023              		.align	1
 1024              		.weak	HAL_DCMI_ErrorCallback
 1025              		.syntax unified
 1026              		.thumb
 1027              		.thumb_func
 1029              	HAL_DCMI_ErrorCallback:
 1030              	.LVL63:
 1031              	.LFB150:
 694:Drivers/STM32F7xx_HAL_Driver/Src/stm32f7xx_hal_dcmi.c ****   /* Prevent unused argument(s) compilation warning */
 1032              		.loc 1 694 1 is_stmt 1 view -0
 1033              		.cfi_startproc
 1034              		@ args = 0, pretend = 0, frame = 0
 1035              		@ frame_needed = 0, uses_anonymous_args = 0
 1036              		@ link register save eliminated.
 696:Drivers/STM32F7xx_HAL_Driver/Src/stm32f7xx_hal_dcmi.c **** 
 1037              		.loc 1 696 3 view .LVU374
 701:Drivers/STM32F7xx_HAL_Driver/Src/stm32f7xx_hal_dcmi.c **** 
 1038              		.loc 1 701 1 is_stmt 0 view .LVU375
 1039 0000 7047     		bx	lr
 1040              		.cfi_endproc
 1041              	.LFE150:
 1043              		.section	.text.DCMI_DMAError,"ax",%progbits
 1044              		.align	1
 1045              		.syntax unified
 1046              		.thumb
 1047              		.thumb_func
 1049              	DCMI_DMAError:
 1050              	.LVL64:
 1051              	.LFB161:
1159:Drivers/STM32F7xx_HAL_Driver/Src/stm32f7xx_hal_dcmi.c **** 
1160:Drivers/STM32F7xx_HAL_Driver/Src/stm32f7xx_hal_dcmi.c **** /**
1161:Drivers/STM32F7xx_HAL_Driver/Src/stm32f7xx_hal_dcmi.c ****   * @brief  DMA error callback
1162:Drivers/STM32F7xx_HAL_Driver/Src/stm32f7xx_hal_dcmi.c ****   * @param  hdma pointer to a DMA_HandleTypeDef structure that contains
1163:Drivers/STM32F7xx_HAL_Driver/Src/stm32f7xx_hal_dcmi.c ****   *                the configuration information for the specified DMA module.
1164:Drivers/STM32F7xx_HAL_Driver/Src/stm32f7xx_hal_dcmi.c ****   * @retval None
1165:Drivers/STM32F7xx_HAL_Driver/Src/stm32f7xx_hal_dcmi.c ****   */
1166:Drivers/STM32F7xx_HAL_Driver/Src/stm32f7xx_hal_dcmi.c **** static void DCMI_DMAError(DMA_HandleTypeDef *hdma)
1167:Drivers/STM32F7xx_HAL_Driver/Src/stm32f7xx_hal_dcmi.c **** {
 1052              		.loc 1 1167 1 is_stmt 1 view -0
 1053              		.cfi_startproc
 1054              		@ args = 0, pretend = 0, frame = 0
 1055              		@ frame_needed = 0, uses_anonymous_args = 0
 1056              		.loc 1 1167 1 is_stmt 0 view .LVU377
 1057 0000 08B5     		push	{r3, lr}
 1058              		.cfi_def_cfa_offset 8
 1059              		.cfi_offset 3, -8
 1060              		.cfi_offset 14, -4
1168:Drivers/STM32F7xx_HAL_Driver/Src/stm32f7xx_hal_dcmi.c ****   DCMI_HandleTypeDef *hdcmi = (DCMI_HandleTypeDef *)((DMA_HandleTypeDef *)hdma)->Parent;
 1061              		.loc 1 1168 3 is_stmt 1 view .LVU378
 1062              		.loc 1 1168 23 is_stmt 0 view .LVU379
 1063 0002 806B     		ldr	r0, [r0, #56]
 1064              	.LVL65:
1169:Drivers/STM32F7xx_HAL_Driver/Src/stm32f7xx_hal_dcmi.c **** 
1170:Drivers/STM32F7xx_HAL_Driver/Src/stm32f7xx_hal_dcmi.c ****   if (hdcmi->DMA_Handle->ErrorCode != HAL_DMA_ERROR_FE)
 1065              		.loc 1 1170 3 is_stmt 1 view .LVU380
 1066              		.loc 1 1170 12 is_stmt 0 view .LVU381
ARM GAS  /var/folders/fz/x0kldt2j7vs_j4slv3pyc44m0000gp/T//ccoMI1M1.s 			page 46


 1067 0004 836C     		ldr	r3, [r0, #72]
 1068              		.loc 1 1170 24 view .LVU382
 1069 0006 5B6D     		ldr	r3, [r3, #84]
 1070              		.loc 1 1170 6 view .LVU383
 1071 0008 022B     		cmp	r3, #2
 1072 000a 06D0     		beq	.L70
1171:Drivers/STM32F7xx_HAL_Driver/Src/stm32f7xx_hal_dcmi.c ****   {
1172:Drivers/STM32F7xx_HAL_Driver/Src/stm32f7xx_hal_dcmi.c ****     /* Initialize the DCMI state*/
1173:Drivers/STM32F7xx_HAL_Driver/Src/stm32f7xx_hal_dcmi.c ****     hdcmi->State = HAL_DCMI_STATE_READY;
 1073              		.loc 1 1173 5 is_stmt 1 view .LVU384
 1074              		.loc 1 1173 18 is_stmt 0 view .LVU385
 1075 000c 0123     		movs	r3, #1
 1076 000e 80F83530 		strb	r3, [r0, #53]
1174:Drivers/STM32F7xx_HAL_Driver/Src/stm32f7xx_hal_dcmi.c **** 
1175:Drivers/STM32F7xx_HAL_Driver/Src/stm32f7xx_hal_dcmi.c ****     /* Set DCMI Error Code */
1176:Drivers/STM32F7xx_HAL_Driver/Src/stm32f7xx_hal_dcmi.c ****     hdcmi->ErrorCode |= HAL_DCMI_ERROR_DMA;
 1077              		.loc 1 1176 5 is_stmt 1 view .LVU386
 1078              		.loc 1 1176 10 is_stmt 0 view .LVU387
 1079 0012 C36C     		ldr	r3, [r0, #76]
 1080              		.loc 1 1176 22 view .LVU388
 1081 0014 43F04003 		orr	r3, r3, #64
 1082 0018 C364     		str	r3, [r0, #76]
 1083              	.L70:
1177:Drivers/STM32F7xx_HAL_Driver/Src/stm32f7xx_hal_dcmi.c ****   }
1178:Drivers/STM32F7xx_HAL_Driver/Src/stm32f7xx_hal_dcmi.c **** 
1179:Drivers/STM32F7xx_HAL_Driver/Src/stm32f7xx_hal_dcmi.c ****   /* DCMI error Callback */
1180:Drivers/STM32F7xx_HAL_Driver/Src/stm32f7xx_hal_dcmi.c **** #if (USE_HAL_DCMI_REGISTER_CALLBACKS == 1)
1181:Drivers/STM32F7xx_HAL_Driver/Src/stm32f7xx_hal_dcmi.c ****   /*Call registered DCMI error callback*/
1182:Drivers/STM32F7xx_HAL_Driver/Src/stm32f7xx_hal_dcmi.c ****   hdcmi->ErrorCallback(hdcmi);
1183:Drivers/STM32F7xx_HAL_Driver/Src/stm32f7xx_hal_dcmi.c **** #else
1184:Drivers/STM32F7xx_HAL_Driver/Src/stm32f7xx_hal_dcmi.c ****   HAL_DCMI_ErrorCallback(hdcmi);
 1084              		.loc 1 1184 3 is_stmt 1 view .LVU389
 1085 001a FFF7FEFF 		bl	HAL_DCMI_ErrorCallback
 1086              	.LVL66:
1185:Drivers/STM32F7xx_HAL_Driver/Src/stm32f7xx_hal_dcmi.c **** #endif /* USE_HAL_DCMI_REGISTER_CALLBACKS */
1186:Drivers/STM32F7xx_HAL_Driver/Src/stm32f7xx_hal_dcmi.c **** 
1187:Drivers/STM32F7xx_HAL_Driver/Src/stm32f7xx_hal_dcmi.c **** }
 1087              		.loc 1 1187 1 is_stmt 0 view .LVU390
 1088 001e 08BD     		pop	{r3, pc}
 1089              		.cfi_endproc
 1090              	.LFE161:
 1092              		.section	.text.HAL_DCMI_LineEventCallback,"ax",%progbits
 1093              		.align	1
 1094              		.weak	HAL_DCMI_LineEventCallback
 1095              		.syntax unified
 1096              		.thumb
 1097              		.thumb_func
 1099              	HAL_DCMI_LineEventCallback:
 1100              	.LVL67:
 1101              	.LFB151:
 710:Drivers/STM32F7xx_HAL_Driver/Src/stm32f7xx_hal_dcmi.c ****   /* NOTE : This function Should not be modified, when the callback is needed,
 1102              		.loc 1 710 1 is_stmt 1 view -0
 1103              		.cfi_startproc
 1104              		@ args = 0, pretend = 0, frame = 0
 1105              		@ frame_needed = 0, uses_anonymous_args = 0
 1106              		@ link register save eliminated.
 714:Drivers/STM32F7xx_HAL_Driver/Src/stm32f7xx_hal_dcmi.c **** 
ARM GAS  /var/folders/fz/x0kldt2j7vs_j4slv3pyc44m0000gp/T//ccoMI1M1.s 			page 47


 1107              		.loc 1 714 1 view .LVU392
 1108 0000 7047     		bx	lr
 1109              		.cfi_endproc
 1110              	.LFE151:
 1112              		.section	.text.HAL_DCMI_VsyncEventCallback,"ax",%progbits
 1113              		.align	1
 1114              		.weak	HAL_DCMI_VsyncEventCallback
 1115              		.syntax unified
 1116              		.thumb
 1117              		.thumb_func
 1119              	HAL_DCMI_VsyncEventCallback:
 1120              	.LVL68:
 1121              	.LFB152:
 723:Drivers/STM32F7xx_HAL_Driver/Src/stm32f7xx_hal_dcmi.c ****   /* Prevent unused argument(s) compilation warning */
 1122              		.loc 1 723 1 view -0
 1123              		.cfi_startproc
 1124              		@ args = 0, pretend = 0, frame = 0
 1125              		@ frame_needed = 0, uses_anonymous_args = 0
 1126              		@ link register save eliminated.
 725:Drivers/STM32F7xx_HAL_Driver/Src/stm32f7xx_hal_dcmi.c **** 
 1127              		.loc 1 725 3 view .LVU394
 730:Drivers/STM32F7xx_HAL_Driver/Src/stm32f7xx_hal_dcmi.c **** 
 1128              		.loc 1 730 1 is_stmt 0 view .LVU395
 1129 0000 7047     		bx	lr
 1130              		.cfi_endproc
 1131              	.LFE152:
 1133              		.section	.text.HAL_DCMI_FrameEventCallback,"ax",%progbits
 1134              		.align	1
 1135              		.weak	HAL_DCMI_FrameEventCallback
 1136              		.syntax unified
 1137              		.thumb
 1138              		.thumb_func
 1140              	HAL_DCMI_FrameEventCallback:
 1141              	.LVL69:
 1142              	.LFB153:
 739:Drivers/STM32F7xx_HAL_Driver/Src/stm32f7xx_hal_dcmi.c ****   /* Prevent unused argument(s) compilation warning */
 1143              		.loc 1 739 1 is_stmt 1 view -0
 1144              		.cfi_startproc
 1145              		@ args = 0, pretend = 0, frame = 0
 1146              		@ frame_needed = 0, uses_anonymous_args = 0
 1147              		@ link register save eliminated.
 741:Drivers/STM32F7xx_HAL_Driver/Src/stm32f7xx_hal_dcmi.c **** 
 1148              		.loc 1 741 3 view .LVU397
 746:Drivers/STM32F7xx_HAL_Driver/Src/stm32f7xx_hal_dcmi.c **** 
 1149              		.loc 1 746 1 is_stmt 0 view .LVU398
 1150 0000 7047     		bx	lr
 1151              		.cfi_endproc
 1152              	.LFE153:
 1154              		.section	.text.HAL_DCMI_IRQHandler,"ax",%progbits
 1155              		.align	1
 1156              		.global	HAL_DCMI_IRQHandler
 1157              		.syntax unified
 1158              		.thumb
 1159              		.thumb_func
 1161              	HAL_DCMI_IRQHandler:
 1162              	.LVL70:
 1163              	.LFB149:
ARM GAS  /var/folders/fz/x0kldt2j7vs_j4slv3pyc44m0000gp/T//ccoMI1M1.s 			page 48


 591:Drivers/STM32F7xx_HAL_Driver/Src/stm32f7xx_hal_dcmi.c ****   uint32_t isr_value = READ_REG(hdcmi->Instance->MISR);
 1164              		.loc 1 591 1 is_stmt 1 view -0
 1165              		.cfi_startproc
 1166              		@ args = 0, pretend = 0, frame = 0
 1167              		@ frame_needed = 0, uses_anonymous_args = 0
 591:Drivers/STM32F7xx_HAL_Driver/Src/stm32f7xx_hal_dcmi.c ****   uint32_t isr_value = READ_REG(hdcmi->Instance->MISR);
 1168              		.loc 1 591 1 is_stmt 0 view .LVU400
 1169 0000 38B5     		push	{r3, r4, r5, lr}
 1170              		.cfi_def_cfa_offset 16
 1171              		.cfi_offset 3, -16
 1172              		.cfi_offset 4, -12
 1173              		.cfi_offset 5, -8
 1174              		.cfi_offset 14, -4
 1175 0002 0446     		mov	r4, r0
 592:Drivers/STM32F7xx_HAL_Driver/Src/stm32f7xx_hal_dcmi.c **** 
 1176              		.loc 1 592 3 is_stmt 1 view .LVU401
 592:Drivers/STM32F7xx_HAL_Driver/Src/stm32f7xx_hal_dcmi.c **** 
 1177              		.loc 1 592 24 is_stmt 0 view .LVU402
 1178 0004 0368     		ldr	r3, [r0]
 592:Drivers/STM32F7xx_HAL_Driver/Src/stm32f7xx_hal_dcmi.c **** 
 1179              		.loc 1 592 12 view .LVU403
 1180 0006 1D69     		ldr	r5, [r3, #16]
 1181              	.LVL71:
 595:Drivers/STM32F7xx_HAL_Driver/Src/stm32f7xx_hal_dcmi.c ****   {
 1182              		.loc 1 595 3 is_stmt 1 view .LVU404
 595:Drivers/STM32F7xx_HAL_Driver/Src/stm32f7xx_hal_dcmi.c ****   {
 1183              		.loc 1 595 6 is_stmt 0 view .LVU405
 1184 0008 15F0040F 		tst	r5, #4
 1185 000c 20D1     		bne	.L83
 1186              	.LVL72:
 1187              	.L76:
 613:Drivers/STM32F7xx_HAL_Driver/Src/stm32f7xx_hal_dcmi.c ****   {
 1188              		.loc 1 613 3 is_stmt 1 view .LVU406
 613:Drivers/STM32F7xx_HAL_Driver/Src/stm32f7xx_hal_dcmi.c ****   {
 1189              		.loc 1 613 6 is_stmt 0 view .LVU407
 1190 000e 15F0020F 		tst	r5, #2
 1191 0012 2CD1     		bne	.L84
 1192              	.L77:
 634:Drivers/STM32F7xx_HAL_Driver/Src/stm32f7xx_hal_dcmi.c ****   {
 1193              		.loc 1 634 3 is_stmt 1 view .LVU408
 634:Drivers/STM32F7xx_HAL_Driver/Src/stm32f7xx_hal_dcmi.c ****   {
 1194              		.loc 1 634 6 is_stmt 0 view .LVU409
 1195 0014 15F0100F 		tst	r5, #16
 1196 0018 3FD1     		bne	.L85
 1197              	.L78:
 648:Drivers/STM32F7xx_HAL_Driver/Src/stm32f7xx_hal_dcmi.c ****   {
 1198              		.loc 1 648 3 is_stmt 1 view .LVU410
 648:Drivers/STM32F7xx_HAL_Driver/Src/stm32f7xx_hal_dcmi.c ****   {
 1199              		.loc 1 648 6 is_stmt 0 view .LVU411
 1200 001a 15F0080F 		tst	r5, #8
 1201 001e 43D1     		bne	.L86
 1202              	.L79:
 662:Drivers/STM32F7xx_HAL_Driver/Src/stm32f7xx_hal_dcmi.c ****   {
 1203              		.loc 1 662 3 is_stmt 1 view .LVU412
 662:Drivers/STM32F7xx_HAL_Driver/Src/stm32f7xx_hal_dcmi.c ****   {
 1204              		.loc 1 662 6 is_stmt 0 view .LVU413
 1205 0020 15F0010F 		tst	r5, #1
ARM GAS  /var/folders/fz/x0kldt2j7vs_j4slv3pyc44m0000gp/T//ccoMI1M1.s 			page 49


 1206 0024 13D0     		beq	.L75
 665:Drivers/STM32F7xx_HAL_Driver/Src/stm32f7xx_hal_dcmi.c ****     {
 1207              		.loc 1 665 5 is_stmt 1 view .LVU414
 665:Drivers/STM32F7xx_HAL_Driver/Src/stm32f7xx_hal_dcmi.c ****     {
 1208              		.loc 1 665 15 is_stmt 0 view .LVU415
 1209 0026 2368     		ldr	r3, [r4]
 665:Drivers/STM32F7xx_HAL_Driver/Src/stm32f7xx_hal_dcmi.c ****     {
 1210              		.loc 1 665 25 view .LVU416
 1211 0028 1A68     		ldr	r2, [r3]
 665:Drivers/STM32F7xx_HAL_Driver/Src/stm32f7xx_hal_dcmi.c ****     {
 1212              		.loc 1 665 8 view .LVU417
 1213 002a 12F0020F 		tst	r2, #2
 1214 002e 03D0     		beq	.L81
 668:Drivers/STM32F7xx_HAL_Driver/Src/stm32f7xx_hal_dcmi.c ****     }
 1215              		.loc 1 668 7 is_stmt 1 view .LVU418
 1216 0030 DA68     		ldr	r2, [r3, #12]
 1217 0032 22F01E02 		bic	r2, r2, #30
 1218 0036 DA60     		str	r2, [r3, #12]
 1219              	.L81:
 672:Drivers/STM32F7xx_HAL_Driver/Src/stm32f7xx_hal_dcmi.c **** 
 1220              		.loc 1 672 5 view .LVU419
 1221 0038 2268     		ldr	r2, [r4]
 1222 003a D368     		ldr	r3, [r2, #12]
 1223 003c 23F00103 		bic	r3, r3, #1
 1224 0040 D360     		str	r3, [r2, #12]
 675:Drivers/STM32F7xx_HAL_Driver/Src/stm32f7xx_hal_dcmi.c **** 
 1225              		.loc 1 675 5 view .LVU420
 1226 0042 2368     		ldr	r3, [r4]
 1227 0044 0122     		movs	r2, #1
 1228 0046 5A61     		str	r2, [r3, #20]
 682:Drivers/STM32F7xx_HAL_Driver/Src/stm32f7xx_hal_dcmi.c **** #endif /* USE_HAL_DCMI_REGISTER_CALLBACKS */
 1229              		.loc 1 682 5 view .LVU421
 1230 0048 2046     		mov	r0, r4
 1231 004a FFF7FEFF 		bl	HAL_DCMI_FrameEventCallback
 1232              	.LVL73:
 1233              	.L75:
 685:Drivers/STM32F7xx_HAL_Driver/Src/stm32f7xx_hal_dcmi.c **** 
 1234              		.loc 1 685 1 is_stmt 0 view .LVU422
 1235 004e 38BD     		pop	{r3, r4, r5, pc}
 1236              	.LVL74:
 1237              	.L83:
 598:Drivers/STM32F7xx_HAL_Driver/Src/stm32f7xx_hal_dcmi.c **** 
 1238              		.loc 1 598 5 is_stmt 1 view .LVU423
 1239 0050 0422     		movs	r2, #4
 1240 0052 5A61     		str	r2, [r3, #20]
 601:Drivers/STM32F7xx_HAL_Driver/Src/stm32f7xx_hal_dcmi.c **** 
 1241              		.loc 1 601 5 view .LVU424
 601:Drivers/STM32F7xx_HAL_Driver/Src/stm32f7xx_hal_dcmi.c **** 
 1242              		.loc 1 601 10 is_stmt 0 view .LVU425
 1243 0054 C36C     		ldr	r3, [r0, #76]
 601:Drivers/STM32F7xx_HAL_Driver/Src/stm32f7xx_hal_dcmi.c **** 
 1244              		.loc 1 601 22 view .LVU426
 1245 0056 43F00203 		orr	r3, r3, #2
 1246 005a C364     		str	r3, [r0, #76]
 604:Drivers/STM32F7xx_HAL_Driver/Src/stm32f7xx_hal_dcmi.c **** 
 1247              		.loc 1 604 5 is_stmt 1 view .LVU427
 604:Drivers/STM32F7xx_HAL_Driver/Src/stm32f7xx_hal_dcmi.c **** 
ARM GAS  /var/folders/fz/x0kldt2j7vs_j4slv3pyc44m0000gp/T//ccoMI1M1.s 			page 50


 1248              		.loc 1 604 18 is_stmt 0 view .LVU428
 1249 005c 80F83520 		strb	r2, [r0, #53]
 607:Drivers/STM32F7xx_HAL_Driver/Src/stm32f7xx_hal_dcmi.c **** 
 1250              		.loc 1 607 5 is_stmt 1 view .LVU429
 607:Drivers/STM32F7xx_HAL_Driver/Src/stm32f7xx_hal_dcmi.c **** 
 1251              		.loc 1 607 10 is_stmt 0 view .LVU430
 1252 0060 836C     		ldr	r3, [r0, #72]
 607:Drivers/STM32F7xx_HAL_Driver/Src/stm32f7xx_hal_dcmi.c **** 
 1253              		.loc 1 607 42 view .LVU431
 1254 0062 154A     		ldr	r2, .L87
 1255 0064 1A65     		str	r2, [r3, #80]
 610:Drivers/STM32F7xx_HAL_Driver/Src/stm32f7xx_hal_dcmi.c ****   }
 1256              		.loc 1 610 5 is_stmt 1 view .LVU432
 610:Drivers/STM32F7xx_HAL_Driver/Src/stm32f7xx_hal_dcmi.c ****   }
 1257              		.loc 1 610 11 is_stmt 0 view .LVU433
 1258 0066 806C     		ldr	r0, [r0, #72]
 1259              	.LVL75:
 610:Drivers/STM32F7xx_HAL_Driver/Src/stm32f7xx_hal_dcmi.c ****   }
 1260              		.loc 1 610 11 view .LVU434
 1261 0068 FFF7FEFF 		bl	HAL_DMA_Abort_IT
 1262              	.LVL76:
 1263 006c CFE7     		b	.L76
 1264              	.L84:
 616:Drivers/STM32F7xx_HAL_Driver/Src/stm32f7xx_hal_dcmi.c **** 
 1265              		.loc 1 616 5 is_stmt 1 view .LVU435
 1266 006e 2368     		ldr	r3, [r4]
 1267 0070 0222     		movs	r2, #2
 1268 0072 5A61     		str	r2, [r3, #20]
 619:Drivers/STM32F7xx_HAL_Driver/Src/stm32f7xx_hal_dcmi.c **** 
 1269              		.loc 1 619 5 view .LVU436
 619:Drivers/STM32F7xx_HAL_Driver/Src/stm32f7xx_hal_dcmi.c **** 
 1270              		.loc 1 619 10 is_stmt 0 view .LVU437
 1271 0074 E36C     		ldr	r3, [r4, #76]
 619:Drivers/STM32F7xx_HAL_Driver/Src/stm32f7xx_hal_dcmi.c **** 
 1272              		.loc 1 619 22 view .LVU438
 1273 0076 43F00103 		orr	r3, r3, #1
 1274 007a E364     		str	r3, [r4, #76]
 622:Drivers/STM32F7xx_HAL_Driver/Src/stm32f7xx_hal_dcmi.c **** 
 1275              		.loc 1 622 5 is_stmt 1 view .LVU439
 622:Drivers/STM32F7xx_HAL_Driver/Src/stm32f7xx_hal_dcmi.c **** 
 1276              		.loc 1 622 18 is_stmt 0 view .LVU440
 1277 007c 0423     		movs	r3, #4
 1278 007e 84F83530 		strb	r3, [r4, #53]
 625:Drivers/STM32F7xx_HAL_Driver/Src/stm32f7xx_hal_dcmi.c **** 
 1279              		.loc 1 625 5 is_stmt 1 view .LVU441
 625:Drivers/STM32F7xx_HAL_Driver/Src/stm32f7xx_hal_dcmi.c **** 
 1280              		.loc 1 625 10 is_stmt 0 view .LVU442
 1281 0082 A36C     		ldr	r3, [r4, #72]
 625:Drivers/STM32F7xx_HAL_Driver/Src/stm32f7xx_hal_dcmi.c **** 
 1282              		.loc 1 625 42 view .LVU443
 1283 0084 0C4A     		ldr	r2, .L87
 1284 0086 1A65     		str	r2, [r3, #80]
 628:Drivers/STM32F7xx_HAL_Driver/Src/stm32f7xx_hal_dcmi.c ****     {
 1285              		.loc 1 628 5 is_stmt 1 view .LVU444
 628:Drivers/STM32F7xx_HAL_Driver/Src/stm32f7xx_hal_dcmi.c ****     {
 1286              		.loc 1 628 9 is_stmt 0 view .LVU445
 1287 0088 A06C     		ldr	r0, [r4, #72]
ARM GAS  /var/folders/fz/x0kldt2j7vs_j4slv3pyc44m0000gp/T//ccoMI1M1.s 			page 51


 1288 008a FFF7FEFF 		bl	HAL_DMA_Abort_IT
 1289              	.LVL77:
 628:Drivers/STM32F7xx_HAL_Driver/Src/stm32f7xx_hal_dcmi.c ****     {
 1290              		.loc 1 628 8 view .LVU446
 1291 008e 0028     		cmp	r0, #0
 1292 0090 C0D0     		beq	.L77
 630:Drivers/STM32F7xx_HAL_Driver/Src/stm32f7xx_hal_dcmi.c ****     }
 1293              		.loc 1 630 7 is_stmt 1 view .LVU447
 1294 0092 A06C     		ldr	r0, [r4, #72]
 1295 0094 FFF7FEFF 		bl	DCMI_DMAError
 1296              	.LVL78:
 1297 0098 BCE7     		b	.L77
 1298              	.L85:
 637:Drivers/STM32F7xx_HAL_Driver/Src/stm32f7xx_hal_dcmi.c **** 
 1299              		.loc 1 637 5 view .LVU448
 1300 009a 2368     		ldr	r3, [r4]
 1301 009c 1022     		movs	r2, #16
 1302 009e 5A61     		str	r2, [r3, #20]
 644:Drivers/STM32F7xx_HAL_Driver/Src/stm32f7xx_hal_dcmi.c **** #endif /* USE_HAL_DCMI_REGISTER_CALLBACKS */
 1303              		.loc 1 644 5 view .LVU449
 1304 00a0 2046     		mov	r0, r4
 1305 00a2 FFF7FEFF 		bl	HAL_DCMI_LineEventCallback
 1306              	.LVL79:
 1307 00a6 B8E7     		b	.L78
 1308              	.L86:
 651:Drivers/STM32F7xx_HAL_Driver/Src/stm32f7xx_hal_dcmi.c **** 
 1309              		.loc 1 651 5 view .LVU450
 1310 00a8 2368     		ldr	r3, [r4]
 1311 00aa 0822     		movs	r2, #8
 1312 00ac 5A61     		str	r2, [r3, #20]
 658:Drivers/STM32F7xx_HAL_Driver/Src/stm32f7xx_hal_dcmi.c **** #endif /* USE_HAL_DCMI_REGISTER_CALLBACKS */
 1313              		.loc 1 658 5 view .LVU451
 1314 00ae 2046     		mov	r0, r4
 1315 00b0 FFF7FEFF 		bl	HAL_DCMI_VsyncEventCallback
 1316              	.LVL80:
 1317 00b4 B4E7     		b	.L79
 1318              	.L88:
 1319 00b6 00BF     		.align	2
 1320              	.L87:
 1321 00b8 00000000 		.word	DCMI_DMAError
 1322              		.cfi_endproc
 1323              	.LFE149:
 1325              		.section	.text.HAL_DCMI_ConfigCrop,"ax",%progbits
 1326              		.align	1
 1327              		.global	HAL_DCMI_ConfigCrop
 1328              		.syntax unified
 1329              		.thumb
 1330              		.thumb_func
 1332              	HAL_DCMI_ConfigCrop:
 1333              	.LVL81:
 1334              	.LFB154:
 779:Drivers/STM32F7xx_HAL_Driver/Src/stm32f7xx_hal_dcmi.c ****   /* Process Locked */
 1335              		.loc 1 779 1 view -0
 1336              		.cfi_startproc
 1337              		@ args = 4, pretend = 0, frame = 0
 1338              		@ frame_needed = 0, uses_anonymous_args = 0
 779:Drivers/STM32F7xx_HAL_Driver/Src/stm32f7xx_hal_dcmi.c ****   /* Process Locked */
ARM GAS  /var/folders/fz/x0kldt2j7vs_j4slv3pyc44m0000gp/T//ccoMI1M1.s 			page 52


 1339              		.loc 1 779 1 is_stmt 0 view .LVU453
 1340 0000 8446     		mov	ip, r0
 781:Drivers/STM32F7xx_HAL_Driver/Src/stm32f7xx_hal_dcmi.c **** 
 1341              		.loc 1 781 3 is_stmt 1 view .LVU454
 781:Drivers/STM32F7xx_HAL_Driver/Src/stm32f7xx_hal_dcmi.c **** 
 1342              		.loc 1 781 3 view .LVU455
 1343 0002 90F83400 		ldrb	r0, [r0, #52]	@ zero_extendqisi2
 1344              	.LVL82:
 781:Drivers/STM32F7xx_HAL_Driver/Src/stm32f7xx_hal_dcmi.c **** 
 1345              		.loc 1 781 3 is_stmt 0 view .LVU456
 1346 0006 0128     		cmp	r0, #1
 1347 0008 18D0     		beq	.L91
 779:Drivers/STM32F7xx_HAL_Driver/Src/stm32f7xx_hal_dcmi.c ****   /* Process Locked */
 1348              		.loc 1 779 1 discriminator 2 view .LVU457
 1349 000a 10B5     		push	{r4, lr}
 1350              		.cfi_def_cfa_offset 8
 1351              		.cfi_offset 4, -8
 1352              		.cfi_offset 14, -4
 781:Drivers/STM32F7xx_HAL_Driver/Src/stm32f7xx_hal_dcmi.c **** 
 1353              		.loc 1 781 3 is_stmt 1 discriminator 2 view .LVU458
 1354 000c 0120     		movs	r0, #1
 1355 000e 8CF83400 		strb	r0, [ip, #52]
 781:Drivers/STM32F7xx_HAL_Driver/Src/stm32f7xx_hal_dcmi.c **** 
 1356              		.loc 1 781 3 discriminator 2 view .LVU459
 784:Drivers/STM32F7xx_HAL_Driver/Src/stm32f7xx_hal_dcmi.c **** 
 1357              		.loc 1 784 3 discriminator 2 view .LVU460
 784:Drivers/STM32F7xx_HAL_Driver/Src/stm32f7xx_hal_dcmi.c **** 
 1358              		.loc 1 784 16 is_stmt 0 discriminator 2 view .LVU461
 1359 0012 4FF0020E 		mov	lr, #2
 1360 0016 8CF835E0 		strb	lr, [ip, #53]
 787:Drivers/STM32F7xx_HAL_Driver/Src/stm32f7xx_hal_dcmi.c ****   assert_param(IS_DCMI_WINDOW_HEIGHT(Y0));
 1361              		.loc 1 787 3 is_stmt 1 discriminator 2 view .LVU462
 788:Drivers/STM32F7xx_HAL_Driver/Src/stm32f7xx_hal_dcmi.c ****   assert_param(IS_DCMI_WINDOW_COORDINATE(XSize));
 1362              		.loc 1 788 3 discriminator 2 view .LVU463
 789:Drivers/STM32F7xx_HAL_Driver/Src/stm32f7xx_hal_dcmi.c ****   assert_param(IS_DCMI_WINDOW_COORDINATE(YSize));
 1363              		.loc 1 789 3 discriminator 2 view .LVU464
 790:Drivers/STM32F7xx_HAL_Driver/Src/stm32f7xx_hal_dcmi.c **** 
 1364              		.loc 1 790 3 discriminator 2 view .LVU465
 793:Drivers/STM32F7xx_HAL_Driver/Src/stm32f7xx_hal_dcmi.c ****   hdcmi->Instance->CWSTRTR = (X0 | (Y0 << DCMI_CWSTRT_VST_Pos));
 1365              		.loc 1 793 3 discriminator 2 view .LVU466
 793:Drivers/STM32F7xx_HAL_Driver/Src/stm32f7xx_hal_dcmi.c ****   hdcmi->Instance->CWSTRTR = (X0 | (Y0 << DCMI_CWSTRT_VST_Pos));
 1366              		.loc 1 793 37 is_stmt 0 discriminator 2 view .LVU467
 1367 001a 029C     		ldr	r4, [sp, #8]
 1368 001c 43EA0443 		orr	r3, r3, r4, lsl #16
 1369              	.LVL83:
 793:Drivers/STM32F7xx_HAL_Driver/Src/stm32f7xx_hal_dcmi.c ****   hdcmi->Instance->CWSTRTR = (X0 | (Y0 << DCMI_CWSTRT_VST_Pos));
 1370              		.loc 1 793 28 discriminator 2 view .LVU468
 1371 0020 DCF80040 		ldr	r4, [ip]
 1372 0024 6362     		str	r3, [r4, #36]
 794:Drivers/STM32F7xx_HAL_Driver/Src/stm32f7xx_hal_dcmi.c **** 
 1373              		.loc 1 794 3 is_stmt 1 discriminator 2 view .LVU469
 794:Drivers/STM32F7xx_HAL_Driver/Src/stm32f7xx_hal_dcmi.c **** 
 1374              		.loc 1 794 8 is_stmt 0 discriminator 2 view .LVU470
 1375 0026 DCF80030 		ldr	r3, [ip]
 794:Drivers/STM32F7xx_HAL_Driver/Src/stm32f7xx_hal_dcmi.c **** 
 1376              		.loc 1 794 34 discriminator 2 view .LVU471
 1377 002a 41EA0241 		orr	r1, r1, r2, lsl #16
ARM GAS  /var/folders/fz/x0kldt2j7vs_j4slv3pyc44m0000gp/T//ccoMI1M1.s 			page 53


 1378              	.LVL84:
 794:Drivers/STM32F7xx_HAL_Driver/Src/stm32f7xx_hal_dcmi.c **** 
 1379              		.loc 1 794 28 discriminator 2 view .LVU472
 1380 002e 1962     		str	r1, [r3, #32]
 797:Drivers/STM32F7xx_HAL_Driver/Src/stm32f7xx_hal_dcmi.c **** 
 1381              		.loc 1 797 3 is_stmt 1 discriminator 2 view .LVU473
 797:Drivers/STM32F7xx_HAL_Driver/Src/stm32f7xx_hal_dcmi.c **** 
 1382              		.loc 1 797 17 is_stmt 0 discriminator 2 view .LVU474
 1383 0030 8CF83500 		strb	r0, [ip, #53]
 800:Drivers/STM32F7xx_HAL_Driver/Src/stm32f7xx_hal_dcmi.c **** 
 1384              		.loc 1 800 3 is_stmt 1 discriminator 2 view .LVU475
 800:Drivers/STM32F7xx_HAL_Driver/Src/stm32f7xx_hal_dcmi.c **** 
 1385              		.loc 1 800 3 discriminator 2 view .LVU476
 1386 0034 0020     		movs	r0, #0
 1387 0036 8CF83400 		strb	r0, [ip, #52]
 800:Drivers/STM32F7xx_HAL_Driver/Src/stm32f7xx_hal_dcmi.c **** 
 1388              		.loc 1 800 3 discriminator 2 view .LVU477
 802:Drivers/STM32F7xx_HAL_Driver/Src/stm32f7xx_hal_dcmi.c **** }
 1389              		.loc 1 802 3 discriminator 2 view .LVU478
 803:Drivers/STM32F7xx_HAL_Driver/Src/stm32f7xx_hal_dcmi.c **** 
 1390              		.loc 1 803 1 is_stmt 0 discriminator 2 view .LVU479
 1391 003a 10BD     		pop	{r4, pc}
 1392              	.LVL85:
 1393              	.L91:
 1394              		.cfi_def_cfa_offset 0
 1395              		.cfi_restore 4
 1396              		.cfi_restore 14
 781:Drivers/STM32F7xx_HAL_Driver/Src/stm32f7xx_hal_dcmi.c **** 
 1397              		.loc 1 781 3 view .LVU480
 1398 003c 0220     		movs	r0, #2
 803:Drivers/STM32F7xx_HAL_Driver/Src/stm32f7xx_hal_dcmi.c **** 
 1399              		.loc 1 803 1 view .LVU481
 1400 003e 7047     		bx	lr
 1401              		.cfi_endproc
 1402              	.LFE154:
 1404              		.section	.text.HAL_DCMI_DisableCrop,"ax",%progbits
 1405              		.align	1
 1406              		.global	HAL_DCMI_DisableCrop
 1407              		.syntax unified
 1408              		.thumb
 1409              		.thumb_func
 1411              	HAL_DCMI_DisableCrop:
 1412              	.LVL86:
 1413              	.LFB155:
 812:Drivers/STM32F7xx_HAL_Driver/Src/stm32f7xx_hal_dcmi.c ****   /* Process Locked */
 1414              		.loc 1 812 1 is_stmt 1 view -0
 1415              		.cfi_startproc
 1416              		@ args = 0, pretend = 0, frame = 0
 1417              		@ frame_needed = 0, uses_anonymous_args = 0
 1418              		@ link register save eliminated.
 814:Drivers/STM32F7xx_HAL_Driver/Src/stm32f7xx_hal_dcmi.c **** 
 1419              		.loc 1 814 3 view .LVU483
 814:Drivers/STM32F7xx_HAL_Driver/Src/stm32f7xx_hal_dcmi.c **** 
 1420              		.loc 1 814 3 view .LVU484
 1421 0000 90F83430 		ldrb	r3, [r0, #52]	@ zero_extendqisi2
 1422 0004 012B     		cmp	r3, #1
 1423 0006 11D0     		beq	.L98
ARM GAS  /var/folders/fz/x0kldt2j7vs_j4slv3pyc44m0000gp/T//ccoMI1M1.s 			page 54


 814:Drivers/STM32F7xx_HAL_Driver/Src/stm32f7xx_hal_dcmi.c **** 
 1424              		.loc 1 814 3 discriminator 2 view .LVU485
 1425 0008 0122     		movs	r2, #1
 1426 000a 80F83420 		strb	r2, [r0, #52]
 814:Drivers/STM32F7xx_HAL_Driver/Src/stm32f7xx_hal_dcmi.c **** 
 1427              		.loc 1 814 3 discriminator 2 view .LVU486
 817:Drivers/STM32F7xx_HAL_Driver/Src/stm32f7xx_hal_dcmi.c **** 
 1428              		.loc 1 817 3 discriminator 2 view .LVU487
 817:Drivers/STM32F7xx_HAL_Driver/Src/stm32f7xx_hal_dcmi.c **** 
 1429              		.loc 1 817 16 is_stmt 0 discriminator 2 view .LVU488
 1430 000e 0223     		movs	r3, #2
 1431 0010 80F83530 		strb	r3, [r0, #53]
 820:Drivers/STM32F7xx_HAL_Driver/Src/stm32f7xx_hal_dcmi.c **** 
 1432              		.loc 1 820 3 is_stmt 1 discriminator 2 view .LVU489
 820:Drivers/STM32F7xx_HAL_Driver/Src/stm32f7xx_hal_dcmi.c **** 
 1433              		.loc 1 820 8 is_stmt 0 discriminator 2 view .LVU490
 1434 0014 0168     		ldr	r1, [r0]
 820:Drivers/STM32F7xx_HAL_Driver/Src/stm32f7xx_hal_dcmi.c **** 
 1435              		.loc 1 820 18 discriminator 2 view .LVU491
 1436 0016 0B68     		ldr	r3, [r1]
 820:Drivers/STM32F7xx_HAL_Driver/Src/stm32f7xx_hal_dcmi.c **** 
 1437              		.loc 1 820 23 discriminator 2 view .LVU492
 1438 0018 23F00403 		bic	r3, r3, #4
 1439 001c 0B60     		str	r3, [r1]
 823:Drivers/STM32F7xx_HAL_Driver/Src/stm32f7xx_hal_dcmi.c **** 
 1440              		.loc 1 823 3 is_stmt 1 discriminator 2 view .LVU493
 823:Drivers/STM32F7xx_HAL_Driver/Src/stm32f7xx_hal_dcmi.c **** 
 1441              		.loc 1 823 16 is_stmt 0 discriminator 2 view .LVU494
 1442 001e 80F83520 		strb	r2, [r0, #53]
 826:Drivers/STM32F7xx_HAL_Driver/Src/stm32f7xx_hal_dcmi.c **** 
 1443              		.loc 1 826 3 is_stmt 1 discriminator 2 view .LVU495
 826:Drivers/STM32F7xx_HAL_Driver/Src/stm32f7xx_hal_dcmi.c **** 
 1444              		.loc 1 826 3 discriminator 2 view .LVU496
 1445 0022 0023     		movs	r3, #0
 1446 0024 80F83430 		strb	r3, [r0, #52]
 826:Drivers/STM32F7xx_HAL_Driver/Src/stm32f7xx_hal_dcmi.c **** 
 1447              		.loc 1 826 3 discriminator 2 view .LVU497
 828:Drivers/STM32F7xx_HAL_Driver/Src/stm32f7xx_hal_dcmi.c **** }
 1448              		.loc 1 828 3 discriminator 2 view .LVU498
 828:Drivers/STM32F7xx_HAL_Driver/Src/stm32f7xx_hal_dcmi.c **** }
 1449              		.loc 1 828 10 is_stmt 0 discriminator 2 view .LVU499
 1450 0028 1846     		mov	r0, r3
 1451              	.LVL87:
 828:Drivers/STM32F7xx_HAL_Driver/Src/stm32f7xx_hal_dcmi.c **** }
 1452              		.loc 1 828 10 discriminator 2 view .LVU500
 1453 002a 7047     		bx	lr
 1454              	.LVL88:
 1455              	.L98:
 814:Drivers/STM32F7xx_HAL_Driver/Src/stm32f7xx_hal_dcmi.c **** 
 1456              		.loc 1 814 3 view .LVU501
 1457 002c 0220     		movs	r0, #2
 1458              	.LVL89:
 829:Drivers/STM32F7xx_HAL_Driver/Src/stm32f7xx_hal_dcmi.c **** 
 1459              		.loc 1 829 1 view .LVU502
 1460 002e 7047     		bx	lr
 1461              		.cfi_endproc
 1462              	.LFE155:
ARM GAS  /var/folders/fz/x0kldt2j7vs_j4slv3pyc44m0000gp/T//ccoMI1M1.s 			page 55


 1464              		.section	.text.HAL_DCMI_EnableCrop,"ax",%progbits
 1465              		.align	1
 1466              		.global	HAL_DCMI_EnableCrop
 1467              		.syntax unified
 1468              		.thumb
 1469              		.thumb_func
 1471              	HAL_DCMI_EnableCrop:
 1472              	.LVL90:
 1473              	.LFB156:
 838:Drivers/STM32F7xx_HAL_Driver/Src/stm32f7xx_hal_dcmi.c ****   /* Process Locked */
 1474              		.loc 1 838 1 is_stmt 1 view -0
 1475              		.cfi_startproc
 1476              		@ args = 0, pretend = 0, frame = 0
 1477              		@ frame_needed = 0, uses_anonymous_args = 0
 1478              		@ link register save eliminated.
 840:Drivers/STM32F7xx_HAL_Driver/Src/stm32f7xx_hal_dcmi.c **** 
 1479              		.loc 1 840 3 view .LVU504
 840:Drivers/STM32F7xx_HAL_Driver/Src/stm32f7xx_hal_dcmi.c **** 
 1480              		.loc 1 840 3 view .LVU505
 1481 0000 90F83430 		ldrb	r3, [r0, #52]	@ zero_extendqisi2
 1482 0004 012B     		cmp	r3, #1
 1483 0006 11D0     		beq	.L101
 840:Drivers/STM32F7xx_HAL_Driver/Src/stm32f7xx_hal_dcmi.c **** 
 1484              		.loc 1 840 3 discriminator 2 view .LVU506
 1485 0008 0122     		movs	r2, #1
 1486 000a 80F83420 		strb	r2, [r0, #52]
 840:Drivers/STM32F7xx_HAL_Driver/Src/stm32f7xx_hal_dcmi.c **** 
 1487              		.loc 1 840 3 discriminator 2 view .LVU507
 843:Drivers/STM32F7xx_HAL_Driver/Src/stm32f7xx_hal_dcmi.c **** 
 1488              		.loc 1 843 3 discriminator 2 view .LVU508
 843:Drivers/STM32F7xx_HAL_Driver/Src/stm32f7xx_hal_dcmi.c **** 
 1489              		.loc 1 843 16 is_stmt 0 discriminator 2 view .LVU509
 1490 000e 0223     		movs	r3, #2
 1491 0010 80F83530 		strb	r3, [r0, #53]
 846:Drivers/STM32F7xx_HAL_Driver/Src/stm32f7xx_hal_dcmi.c **** 
 1492              		.loc 1 846 3 is_stmt 1 discriminator 2 view .LVU510
 846:Drivers/STM32F7xx_HAL_Driver/Src/stm32f7xx_hal_dcmi.c **** 
 1493              		.loc 1 846 8 is_stmt 0 discriminator 2 view .LVU511
 1494 0014 0168     		ldr	r1, [r0]
 846:Drivers/STM32F7xx_HAL_Driver/Src/stm32f7xx_hal_dcmi.c **** 
 1495              		.loc 1 846 18 discriminator 2 view .LVU512
 1496 0016 0B68     		ldr	r3, [r1]
 846:Drivers/STM32F7xx_HAL_Driver/Src/stm32f7xx_hal_dcmi.c **** 
 1497              		.loc 1 846 23 discriminator 2 view .LVU513
 1498 0018 43F00403 		orr	r3, r3, #4
 1499 001c 0B60     		str	r3, [r1]
 849:Drivers/STM32F7xx_HAL_Driver/Src/stm32f7xx_hal_dcmi.c **** 
 1500              		.loc 1 849 3 is_stmt 1 discriminator 2 view .LVU514
 849:Drivers/STM32F7xx_HAL_Driver/Src/stm32f7xx_hal_dcmi.c **** 
 1501              		.loc 1 849 16 is_stmt 0 discriminator 2 view .LVU515
 1502 001e 80F83520 		strb	r2, [r0, #53]
 852:Drivers/STM32F7xx_HAL_Driver/Src/stm32f7xx_hal_dcmi.c **** 
 1503              		.loc 1 852 3 is_stmt 1 discriminator 2 view .LVU516
 852:Drivers/STM32F7xx_HAL_Driver/Src/stm32f7xx_hal_dcmi.c **** 
 1504              		.loc 1 852 3 discriminator 2 view .LVU517
 1505 0022 0023     		movs	r3, #0
 1506 0024 80F83430 		strb	r3, [r0, #52]
ARM GAS  /var/folders/fz/x0kldt2j7vs_j4slv3pyc44m0000gp/T//ccoMI1M1.s 			page 56


 852:Drivers/STM32F7xx_HAL_Driver/Src/stm32f7xx_hal_dcmi.c **** 
 1507              		.loc 1 852 3 discriminator 2 view .LVU518
 854:Drivers/STM32F7xx_HAL_Driver/Src/stm32f7xx_hal_dcmi.c **** }
 1508              		.loc 1 854 3 discriminator 2 view .LVU519
 854:Drivers/STM32F7xx_HAL_Driver/Src/stm32f7xx_hal_dcmi.c **** }
 1509              		.loc 1 854 10 is_stmt 0 discriminator 2 view .LVU520
 1510 0028 1846     		mov	r0, r3
 1511              	.LVL91:
 854:Drivers/STM32F7xx_HAL_Driver/Src/stm32f7xx_hal_dcmi.c **** }
 1512              		.loc 1 854 10 discriminator 2 view .LVU521
 1513 002a 7047     		bx	lr
 1514              	.LVL92:
 1515              	.L101:
 840:Drivers/STM32F7xx_HAL_Driver/Src/stm32f7xx_hal_dcmi.c **** 
 1516              		.loc 1 840 3 view .LVU522
 1517 002c 0220     		movs	r0, #2
 1518              	.LVL93:
 855:Drivers/STM32F7xx_HAL_Driver/Src/stm32f7xx_hal_dcmi.c **** 
 1519              		.loc 1 855 1 view .LVU523
 1520 002e 7047     		bx	lr
 1521              		.cfi_endproc
 1522              	.LFE156:
 1524              		.section	.text.HAL_DCMI_ConfigSyncUnmask,"ax",%progbits
 1525              		.align	1
 1526              		.global	HAL_DCMI_ConfigSyncUnmask
 1527              		.syntax unified
 1528              		.thumb
 1529              		.thumb_func
 1531              	HAL_DCMI_ConfigSyncUnmask:
 1532              	.LVL94:
 1533              	.LFB157:
 866:Drivers/STM32F7xx_HAL_Driver/Src/stm32f7xx_hal_dcmi.c ****   /* Process Locked */
 1534              		.loc 1 866 1 is_stmt 1 view -0
 1535              		.cfi_startproc
 1536              		@ args = 0, pretend = 0, frame = 0
 1537              		@ frame_needed = 0, uses_anonymous_args = 0
 1538              		@ link register save eliminated.
 866:Drivers/STM32F7xx_HAL_Driver/Src/stm32f7xx_hal_dcmi.c ****   /* Process Locked */
 1539              		.loc 1 866 1 is_stmt 0 view .LVU525
 1540 0000 0346     		mov	r3, r0
 868:Drivers/STM32F7xx_HAL_Driver/Src/stm32f7xx_hal_dcmi.c **** 
 1541              		.loc 1 868 3 is_stmt 1 view .LVU526
 868:Drivers/STM32F7xx_HAL_Driver/Src/stm32f7xx_hal_dcmi.c **** 
 1542              		.loc 1 868 3 view .LVU527
 1543 0002 90F83420 		ldrb	r2, [r0, #52]	@ zero_extendqisi2
 1544 0006 012A     		cmp	r2, #1
 1545 0008 1AD0     		beq	.L104
 868:Drivers/STM32F7xx_HAL_Driver/Src/stm32f7xx_hal_dcmi.c **** 
 1546              		.loc 1 868 3 discriminator 2 view .LVU528
 1547 000a 0120     		movs	r0, #1
 1548              	.LVL95:
 868:Drivers/STM32F7xx_HAL_Driver/Src/stm32f7xx_hal_dcmi.c **** 
 1549              		.loc 1 868 3 is_stmt 0 discriminator 2 view .LVU529
 1550 000c 83F83400 		strb	r0, [r3, #52]
 868:Drivers/STM32F7xx_HAL_Driver/Src/stm32f7xx_hal_dcmi.c **** 
 1551              		.loc 1 868 3 is_stmt 1 discriminator 2 view .LVU530
 871:Drivers/STM32F7xx_HAL_Driver/Src/stm32f7xx_hal_dcmi.c **** 
ARM GAS  /var/folders/fz/x0kldt2j7vs_j4slv3pyc44m0000gp/T//ccoMI1M1.s 			page 57


 1552              		.loc 1 871 3 discriminator 2 view .LVU531
 871:Drivers/STM32F7xx_HAL_Driver/Src/stm32f7xx_hal_dcmi.c **** 
 1553              		.loc 1 871 16 is_stmt 0 discriminator 2 view .LVU532
 1554 0010 0222     		movs	r2, #2
 1555 0012 83F83520 		strb	r2, [r3, #53]
 874:Drivers/STM32F7xx_HAL_Driver/Src/stm32f7xx_hal_dcmi.c ****                            ((uint32_t)SyncUnmask->LineStartUnmask << DCMI_ESUR_LSU_Pos) | \
 1556              		.loc 1 874 3 is_stmt 1 discriminator 2 view .LVU533
 874:Drivers/STM32F7xx_HAL_Driver/Src/stm32f7xx_hal_dcmi.c ****                            ((uint32_t)SyncUnmask->LineStartUnmask << DCMI_ESUR_LSU_Pos) | \
 1557              		.loc 1 874 49 is_stmt 0 discriminator 2 view .LVU534
 1558 0016 0A78     		ldrb	r2, [r1]	@ zero_extendqisi2
 875:Drivers/STM32F7xx_HAL_Driver/Src/stm32f7xx_hal_dcmi.c ****                            ((uint32_t)SyncUnmask->LineEndUnmask << DCMI_ESUR_LEU_Pos) | \
 1559              		.loc 1 875 49 discriminator 2 view .LVU535
 1560 0018 91F801C0 		ldrb	ip, [r1, #1]	@ zero_extendqisi2
 874:Drivers/STM32F7xx_HAL_Driver/Src/stm32f7xx_hal_dcmi.c ****                            ((uint32_t)SyncUnmask->LineStartUnmask << DCMI_ESUR_LSU_Pos) | \
 1561              		.loc 1 874 69 discriminator 2 view .LVU536
 1562 001c 42EA0C22 		orr	r2, r2, ip, lsl #8
 876:Drivers/STM32F7xx_HAL_Driver/Src/stm32f7xx_hal_dcmi.c ****                            ((uint32_t)SyncUnmask->FrameEndUnmask << DCMI_ESUR_FEU_Pos));
 1563              		.loc 1 876 49 discriminator 2 view .LVU537
 1564 0020 91F802C0 		ldrb	ip, [r1, #2]	@ zero_extendqisi2
 875:Drivers/STM32F7xx_HAL_Driver/Src/stm32f7xx_hal_dcmi.c ****                            ((uint32_t)SyncUnmask->LineEndUnmask << DCMI_ESUR_LEU_Pos) | \
 1565              		.loc 1 875 89 discriminator 2 view .LVU538
 1566 0024 42EA0C42 		orr	r2, r2, ip, lsl #16
 877:Drivers/STM32F7xx_HAL_Driver/Src/stm32f7xx_hal_dcmi.c **** 
 1567              		.loc 1 877 49 discriminator 2 view .LVU539
 1568 0028 91F803C0 		ldrb	ip, [r1, #3]	@ zero_extendqisi2
 874:Drivers/STM32F7xx_HAL_Driver/Src/stm32f7xx_hal_dcmi.c ****                            ((uint32_t)SyncUnmask->LineStartUnmask << DCMI_ESUR_LSU_Pos) | \
 1569              		.loc 1 874 8 discriminator 2 view .LVU540
 1570 002c 1968     		ldr	r1, [r3]
 1571              	.LVL96:
 876:Drivers/STM32F7xx_HAL_Driver/Src/stm32f7xx_hal_dcmi.c ****                            ((uint32_t)SyncUnmask->FrameEndUnmask << DCMI_ESUR_FEU_Pos));
 1572              		.loc 1 876 87 discriminator 2 view .LVU541
 1573 002e 42EA0C62 		orr	r2, r2, ip, lsl #24
 874:Drivers/STM32F7xx_HAL_Driver/Src/stm32f7xx_hal_dcmi.c ****                            ((uint32_t)SyncUnmask->LineStartUnmask << DCMI_ESUR_LSU_Pos) | \
 1574              		.loc 1 874 25 discriminator 2 view .LVU542
 1575 0032 CA61     		str	r2, [r1, #28]
 880:Drivers/STM32F7xx_HAL_Driver/Src/stm32f7xx_hal_dcmi.c **** 
 1576              		.loc 1 880 3 is_stmt 1 discriminator 2 view .LVU543
 880:Drivers/STM32F7xx_HAL_Driver/Src/stm32f7xx_hal_dcmi.c **** 
 1577              		.loc 1 880 16 is_stmt 0 discriminator 2 view .LVU544
 1578 0034 83F83500 		strb	r0, [r3, #53]
 883:Drivers/STM32F7xx_HAL_Driver/Src/stm32f7xx_hal_dcmi.c **** 
 1579              		.loc 1 883 3 is_stmt 1 discriminator 2 view .LVU545
 883:Drivers/STM32F7xx_HAL_Driver/Src/stm32f7xx_hal_dcmi.c **** 
 1580              		.loc 1 883 3 discriminator 2 view .LVU546
 1581 0038 0020     		movs	r0, #0
 1582 003a 83F83400 		strb	r0, [r3, #52]
 883:Drivers/STM32F7xx_HAL_Driver/Src/stm32f7xx_hal_dcmi.c **** 
 1583              		.loc 1 883 3 discriminator 2 view .LVU547
 885:Drivers/STM32F7xx_HAL_Driver/Src/stm32f7xx_hal_dcmi.c **** }
 1584              		.loc 1 885 3 discriminator 2 view .LVU548
 885:Drivers/STM32F7xx_HAL_Driver/Src/stm32f7xx_hal_dcmi.c **** }
 1585              		.loc 1 885 10 is_stmt 0 discriminator 2 view .LVU549
 1586 003e 7047     		bx	lr
 1587              	.LVL97:
 1588              	.L104:
 868:Drivers/STM32F7xx_HAL_Driver/Src/stm32f7xx_hal_dcmi.c **** 
 1589              		.loc 1 868 3 view .LVU550
ARM GAS  /var/folders/fz/x0kldt2j7vs_j4slv3pyc44m0000gp/T//ccoMI1M1.s 			page 58


 1590 0040 0220     		movs	r0, #2
 1591              	.LVL98:
 886:Drivers/STM32F7xx_HAL_Driver/Src/stm32f7xx_hal_dcmi.c **** 
 1592              		.loc 1 886 1 view .LVU551
 1593 0042 7047     		bx	lr
 1594              		.cfi_endproc
 1595              	.LFE157:
 1597              		.section	.text.HAL_DCMI_GetState,"ax",%progbits
 1598              		.align	1
 1599              		.global	HAL_DCMI_GetState
 1600              		.syntax unified
 1601              		.thumb
 1602              		.thumb_func
 1604              	HAL_DCMI_GetState:
 1605              	.LVL99:
 1606              	.LFB158:
 915:Drivers/STM32F7xx_HAL_Driver/Src/stm32f7xx_hal_dcmi.c ****   return hdcmi->State;
 1607              		.loc 1 915 1 is_stmt 1 view -0
 1608              		.cfi_startproc
 1609              		@ args = 0, pretend = 0, frame = 0
 1610              		@ frame_needed = 0, uses_anonymous_args = 0
 1611              		@ link register save eliminated.
 916:Drivers/STM32F7xx_HAL_Driver/Src/stm32f7xx_hal_dcmi.c **** }
 1612              		.loc 1 916 3 view .LVU553
 916:Drivers/STM32F7xx_HAL_Driver/Src/stm32f7xx_hal_dcmi.c **** }
 1613              		.loc 1 916 15 is_stmt 0 view .LVU554
 1614 0000 90F83500 		ldrb	r0, [r0, #53]	@ zero_extendqisi2
 1615              	.LVL100:
 917:Drivers/STM32F7xx_HAL_Driver/Src/stm32f7xx_hal_dcmi.c **** 
 1616              		.loc 1 917 1 view .LVU555
 1617 0004 7047     		bx	lr
 1618              		.cfi_endproc
 1619              	.LFE158:
 1621              		.section	.text.HAL_DCMI_GetError,"ax",%progbits
 1622              		.align	1
 1623              		.global	HAL_DCMI_GetError
 1624              		.syntax unified
 1625              		.thumb
 1626              		.thumb_func
 1628              	HAL_DCMI_GetError:
 1629              	.LVL101:
 1630              	.LFB159:
 926:Drivers/STM32F7xx_HAL_Driver/Src/stm32f7xx_hal_dcmi.c ****   return hdcmi->ErrorCode;
 1631              		.loc 1 926 1 is_stmt 1 view -0
 1632              		.cfi_startproc
 1633              		@ args = 0, pretend = 0, frame = 0
 1634              		@ frame_needed = 0, uses_anonymous_args = 0
 1635              		@ link register save eliminated.
 927:Drivers/STM32F7xx_HAL_Driver/Src/stm32f7xx_hal_dcmi.c **** }
 1636              		.loc 1 927 3 view .LVU557
 927:Drivers/STM32F7xx_HAL_Driver/Src/stm32f7xx_hal_dcmi.c **** }
 1637              		.loc 1 927 15 is_stmt 0 view .LVU558
 1638 0000 C06C     		ldr	r0, [r0, #76]
 1639              	.LVL102:
 928:Drivers/STM32F7xx_HAL_Driver/Src/stm32f7xx_hal_dcmi.c **** 
 1640              		.loc 1 928 1 view .LVU559
 1641 0002 7047     		bx	lr
ARM GAS  /var/folders/fz/x0kldt2j7vs_j4slv3pyc44m0000gp/T//ccoMI1M1.s 			page 59


 1642              		.cfi_endproc
 1643              	.LFE159:
 1645              		.text
 1646              	.Letext0:
 1647              		.file 2 "/Users/sol/Library/Application Support/Code/User/globalStorage/bmd.stm32-for-vscode/@xpac
 1648              		.file 3 "/Users/sol/Library/Application Support/Code/User/globalStorage/bmd.stm32-for-vscode/@xpac
 1649              		.file 4 "Drivers/CMSIS/Device/ST/STM32F7xx/Include/stm32f746xx.h"
 1650              		.file 5 "Drivers/STM32F7xx_HAL_Driver/Inc/stm32f7xx_hal_def.h"
 1651              		.file 6 "Drivers/STM32F7xx_HAL_Driver/Inc/stm32f7xx_hal_dma.h"
 1652              		.file 7 "Drivers/STM32F7xx_HAL_Driver/Inc/stm32f7xx_hal_dma_ex.h"
 1653              		.file 8 "Drivers/STM32F7xx_HAL_Driver/Inc/stm32f7xx_hal_dcmi.h"
 1654              		.file 9 "Drivers/CMSIS/Device/ST/STM32F7xx/Include/system_stm32f7xx.h"
ARM GAS  /var/folders/fz/x0kldt2j7vs_j4slv3pyc44m0000gp/T//ccoMI1M1.s 			page 60


DEFINED SYMBOLS
                            *ABS*:0000000000000000 stm32f7xx_hal_dcmi.c
/var/folders/fz/x0kldt2j7vs_j4slv3pyc44m0000gp/T//ccoMI1M1.s:21     .text.DCMI_DMAXferCplt:0000000000000000 $t
/var/folders/fz/x0kldt2j7vs_j4slv3pyc44m0000gp/T//ccoMI1M1.s:26     .text.DCMI_DMAXferCplt:0000000000000000 DCMI_DMAXferCplt
/var/folders/fz/x0kldt2j7vs_j4slv3pyc44m0000gp/T//ccoMI1M1.s:199    .text.HAL_DCMI_MspInit:0000000000000000 $t
/var/folders/fz/x0kldt2j7vs_j4slv3pyc44m0000gp/T//ccoMI1M1.s:205    .text.HAL_DCMI_MspInit:0000000000000000 HAL_DCMI_MspInit
/var/folders/fz/x0kldt2j7vs_j4slv3pyc44m0000gp/T//ccoMI1M1.s:220    .text.HAL_DCMI_Init:0000000000000000 $t
/var/folders/fz/x0kldt2j7vs_j4slv3pyc44m0000gp/T//ccoMI1M1.s:226    .text.HAL_DCMI_Init:0000000000000000 HAL_DCMI_Init
/var/folders/fz/x0kldt2j7vs_j4slv3pyc44m0000gp/T//ccoMI1M1.s:400    .text.HAL_DCMI_Init:000000000000009c $d
/var/folders/fz/x0kldt2j7vs_j4slv3pyc44m0000gp/T//ccoMI1M1.s:405    .text.HAL_DCMI_MspDeInit:0000000000000000 $t
/var/folders/fz/x0kldt2j7vs_j4slv3pyc44m0000gp/T//ccoMI1M1.s:411    .text.HAL_DCMI_MspDeInit:0000000000000000 HAL_DCMI_MspDeInit
/var/folders/fz/x0kldt2j7vs_j4slv3pyc44m0000gp/T//ccoMI1M1.s:426    .text.HAL_DCMI_DeInit:0000000000000000 $t
/var/folders/fz/x0kldt2j7vs_j4slv3pyc44m0000gp/T//ccoMI1M1.s:432    .text.HAL_DCMI_DeInit:0000000000000000 HAL_DCMI_DeInit
/var/folders/fz/x0kldt2j7vs_j4slv3pyc44m0000gp/T//ccoMI1M1.s:467    .text.HAL_DCMI_Start_DMA:0000000000000000 $t
/var/folders/fz/x0kldt2j7vs_j4slv3pyc44m0000gp/T//ccoMI1M1.s:473    .text.HAL_DCMI_Start_DMA:0000000000000000 HAL_DCMI_Start_DMA
/var/folders/fz/x0kldt2j7vs_j4slv3pyc44m0000gp/T//ccoMI1M1.s:689    .text.HAL_DCMI_Start_DMA:00000000000000c8 $d
/var/folders/fz/x0kldt2j7vs_j4slv3pyc44m0000gp/T//ccoMI1M1.s:1049   .text.DCMI_DMAError:0000000000000000 DCMI_DMAError
/var/folders/fz/x0kldt2j7vs_j4slv3pyc44m0000gp/T//ccoMI1M1.s:695    .text.HAL_DCMI_Stop:0000000000000000 $t
/var/folders/fz/x0kldt2j7vs_j4slv3pyc44m0000gp/T//ccoMI1M1.s:701    .text.HAL_DCMI_Stop:0000000000000000 HAL_DCMI_Stop
/var/folders/fz/x0kldt2j7vs_j4slv3pyc44m0000gp/T//ccoMI1M1.s:824    .text.HAL_DCMI_Stop:000000000000007c $d
/var/folders/fz/x0kldt2j7vs_j4slv3pyc44m0000gp/T//ccoMI1M1.s:830    .text.HAL_DCMI_Suspend:0000000000000000 $t
/var/folders/fz/x0kldt2j7vs_j4slv3pyc44m0000gp/T//ccoMI1M1.s:836    .text.HAL_DCMI_Suspend:0000000000000000 HAL_DCMI_Suspend
/var/folders/fz/x0kldt2j7vs_j4slv3pyc44m0000gp/T//ccoMI1M1.s:950    .text.HAL_DCMI_Suspend:0000000000000074 $d
/var/folders/fz/x0kldt2j7vs_j4slv3pyc44m0000gp/T//ccoMI1M1.s:956    .text.HAL_DCMI_Resume:0000000000000000 $t
/var/folders/fz/x0kldt2j7vs_j4slv3pyc44m0000gp/T//ccoMI1M1.s:962    .text.HAL_DCMI_Resume:0000000000000000 HAL_DCMI_Resume
/var/folders/fz/x0kldt2j7vs_j4slv3pyc44m0000gp/T//ccoMI1M1.s:1023   .text.HAL_DCMI_ErrorCallback:0000000000000000 $t
/var/folders/fz/x0kldt2j7vs_j4slv3pyc44m0000gp/T//ccoMI1M1.s:1029   .text.HAL_DCMI_ErrorCallback:0000000000000000 HAL_DCMI_ErrorCallback
/var/folders/fz/x0kldt2j7vs_j4slv3pyc44m0000gp/T//ccoMI1M1.s:1044   .text.DCMI_DMAError:0000000000000000 $t
/var/folders/fz/x0kldt2j7vs_j4slv3pyc44m0000gp/T//ccoMI1M1.s:1093   .text.HAL_DCMI_LineEventCallback:0000000000000000 $t
/var/folders/fz/x0kldt2j7vs_j4slv3pyc44m0000gp/T//ccoMI1M1.s:1099   .text.HAL_DCMI_LineEventCallback:0000000000000000 HAL_DCMI_LineEventCallback
/var/folders/fz/x0kldt2j7vs_j4slv3pyc44m0000gp/T//ccoMI1M1.s:1113   .text.HAL_DCMI_VsyncEventCallback:0000000000000000 $t
/var/folders/fz/x0kldt2j7vs_j4slv3pyc44m0000gp/T//ccoMI1M1.s:1119   .text.HAL_DCMI_VsyncEventCallback:0000000000000000 HAL_DCMI_VsyncEventCallback
/var/folders/fz/x0kldt2j7vs_j4slv3pyc44m0000gp/T//ccoMI1M1.s:1134   .text.HAL_DCMI_FrameEventCallback:0000000000000000 $t
/var/folders/fz/x0kldt2j7vs_j4slv3pyc44m0000gp/T//ccoMI1M1.s:1140   .text.HAL_DCMI_FrameEventCallback:0000000000000000 HAL_DCMI_FrameEventCallback
/var/folders/fz/x0kldt2j7vs_j4slv3pyc44m0000gp/T//ccoMI1M1.s:1155   .text.HAL_DCMI_IRQHandler:0000000000000000 $t
/var/folders/fz/x0kldt2j7vs_j4slv3pyc44m0000gp/T//ccoMI1M1.s:1161   .text.HAL_DCMI_IRQHandler:0000000000000000 HAL_DCMI_IRQHandler
/var/folders/fz/x0kldt2j7vs_j4slv3pyc44m0000gp/T//ccoMI1M1.s:1321   .text.HAL_DCMI_IRQHandler:00000000000000b8 $d
/var/folders/fz/x0kldt2j7vs_j4slv3pyc44m0000gp/T//ccoMI1M1.s:1326   .text.HAL_DCMI_ConfigCrop:0000000000000000 $t
/var/folders/fz/x0kldt2j7vs_j4slv3pyc44m0000gp/T//ccoMI1M1.s:1332   .text.HAL_DCMI_ConfigCrop:0000000000000000 HAL_DCMI_ConfigCrop
/var/folders/fz/x0kldt2j7vs_j4slv3pyc44m0000gp/T//ccoMI1M1.s:1405   .text.HAL_DCMI_DisableCrop:0000000000000000 $t
/var/folders/fz/x0kldt2j7vs_j4slv3pyc44m0000gp/T//ccoMI1M1.s:1411   .text.HAL_DCMI_DisableCrop:0000000000000000 HAL_DCMI_DisableCrop
/var/folders/fz/x0kldt2j7vs_j4slv3pyc44m0000gp/T//ccoMI1M1.s:1465   .text.HAL_DCMI_EnableCrop:0000000000000000 $t
/var/folders/fz/x0kldt2j7vs_j4slv3pyc44m0000gp/T//ccoMI1M1.s:1471   .text.HAL_DCMI_EnableCrop:0000000000000000 HAL_DCMI_EnableCrop
/var/folders/fz/x0kldt2j7vs_j4slv3pyc44m0000gp/T//ccoMI1M1.s:1525   .text.HAL_DCMI_ConfigSyncUnmask:0000000000000000 $t
/var/folders/fz/x0kldt2j7vs_j4slv3pyc44m0000gp/T//ccoMI1M1.s:1531   .text.HAL_DCMI_ConfigSyncUnmask:0000000000000000 HAL_DCMI_ConfigSyncUnmask
/var/folders/fz/x0kldt2j7vs_j4slv3pyc44m0000gp/T//ccoMI1M1.s:1598   .text.HAL_DCMI_GetState:0000000000000000 $t
/var/folders/fz/x0kldt2j7vs_j4slv3pyc44m0000gp/T//ccoMI1M1.s:1604   .text.HAL_DCMI_GetState:0000000000000000 HAL_DCMI_GetState
/var/folders/fz/x0kldt2j7vs_j4slv3pyc44m0000gp/T//ccoMI1M1.s:1622   .text.HAL_DCMI_GetError:0000000000000000 $t
/var/folders/fz/x0kldt2j7vs_j4slv3pyc44m0000gp/T//ccoMI1M1.s:1628   .text.HAL_DCMI_GetError:0000000000000000 HAL_DCMI_GetError

UNDEFINED SYMBOLS
HAL_DMAEx_ChangeMemory
HAL_DMA_Start_IT
HAL_DMAEx_MultiBufferStart_IT
HAL_DMA_Abort
SystemCoreClock
HAL_DMA_Abort_IT
ARM GAS  /var/folders/fz/x0kldt2j7vs_j4slv3pyc44m0000gp/T//ccoMI1M1.s 			page 61


